 game

 Timestamp is 641c3936 (Thu Mar 23 08:34:14 2023)

 Preferred load address is 0000000140000000

 Start         Length     Name                   Class
 0001:00000000 00008f30H .text$di                CODE
 0001:00008f30 00074b60H .text$mn                CODE
 0001:0007da90 00001040H .text$mn$00             CODE
 0001:0007ead0 00001cb4H .text$x                 CODE
 0002:00000000 00000110H .CRT$XCA                DATA
 0002:00000110 00000110H .CRT$XCAA               DATA
 0002:00000220 00000110H .CRT$XCU                DATA
 0002:00000330 00000110H .CRT$XCZ                DATA
 0002:00000440 00000110H .CRT$XIA                DATA
 0002:00000550 00000110H .CRT$XIAA               DATA
 0002:00000660 00000110H .CRT$XIAC               DATA
 0002:00000770 00000140H .CRT$XIC                DATA
 0002:000008b0 00000110H .CRT$XIZ                DATA
 0002:000009c0 00000110H .CRT$XPA                DATA
 0002:00000ad0 00000120H .CRT$XPX                DATA
 0002:00000bf0 00000110H .CRT$XPXA               DATA
 0002:00000d00 00000110H .CRT$XPZ                DATA
 0002:00000e10 00000110H .CRT$XTA                DATA
 0002:00000f20 00000110H .CRT$XTZ                DATA
 0002:00001030 0000d1d0H .rdata                  DATA
 0002:0000e200 00000200H .rdata$CastGuardVftablesA DATA
 0002:0000e400 000001a0H .rdata$CastGuardVftablesC DATA
 0002:0000e5a0 0000060cH .rdata$r                DATA
 0002:0000ebac 00000164H .rdata$zzzdbg           DATA
 0002:0000ed10 00000110H .rtc$IAA                DATA
 0002:0000ee20 00000110H .rtc$IZZ                DATA
 0002:0000ef30 00000110H .rtc$TAA                DATA
 0002:0000f040 00000110H .rtc$TZZ                DATA
 0002:0000f150 00006fd8H .xdata                  DATA
 0002:00016128 00000196H .xdata$x                DATA
 0002:000162be 00000000H .edata                  DATA
 0003:00000000 00001330H .data                   DATA
 0003:00001330 00000190H .data$r                 DATA
 0003:000014c0 00000230H .data$rs                DATA
 0003:000016f0 000020e9H .bss                    DATA
 0004:00000000 00004fb0H .pdata                  DATA
 0005:00000000 00000580H .idata$5                DATA
 0005:00000580 00000028H .idata$2                DATA
 0005:000005a8 00000018H .idata$3                DATA
 0005:000005c0 00000580H .idata$4                DATA
 0005:00000b40 0000119cH .idata$6                DATA
 0006:00000000 00000175H .00cfg                  DATA
 0007:00000000 0000029fH _RDATA                  DATA

  Address         Publics by Value              Rva+Base               Lib:Object

 0000:00000000       __AbsoluteZero             0000000000000000     <absolute>
 0000:00000000       ___safe_se_handler_count   0000000000000000     <absolute>
 0000:00000000       ___safe_se_handler_table   0000000000000000     <absolute>
 0000:00000000       __arm64x_extra_rfe_table   0000000000000000     <absolute>
 0000:00000000       __arm64x_extra_rfe_table_size 0000000000000000     <absolute>
 0000:00000000       __arm64x_native_entrypoint 0000000000000000     <absolute>
 0000:00000000       __arm64x_redirection_metadata 0000000000000000     <absolute>
 0000:00000000       __arm64x_redirection_metadata_count 0000000000000000     <absolute>
 0000:00000000       __dynamic_value_reloc_table 0000000000000000     <absolute>
 0000:00000000       __enclave_config           0000000000000000     <absolute>
 0000:00000000       __guard_check_icall_a64n_fptr 0000000000000000     <absolute>
 0000:00000000       __guard_eh_cont_count      0000000000000000     <absolute>
 0000:00000000       __guard_eh_cont_table      0000000000000000     <absolute>
 0000:00000000       __guard_fids_count         0000000000000000     <absolute>
 0000:00000000       __guard_fids_table         0000000000000000     <absolute>
 0000:00000000       __guard_iat_count          0000000000000000     <absolute>
 0000:00000000       __guard_iat_table          0000000000000000     <absolute>
 0000:00000000       __guard_longjmp_count      0000000000000000     <absolute>
 0000:00000000       __guard_longjmp_table      0000000000000000     <absolute>
 0000:00000000       __hybrid_auxiliary_iat     0000000000000000     <absolute>
 0000:00000000       __hybrid_auxiliary_iat_copy 0000000000000000     <absolute>
 0000:00000000       __hybrid_code_map          0000000000000000     <absolute>
 0000:00000000       __hybrid_code_map_count    0000000000000000     <absolute>
 0000:00000000       __volatile_metadata        0000000000000000     <absolute>
 0000:00000000       __x64_code_ranges_to_entry_points 0000000000000000     <absolute>
 0000:00000000       __x64_code_ranges_to_entry_points_count 0000000000000000     <absolute>
 0000:00000100       __guard_flags              0000000000000100     <absolute>
 0000:00000000       __ImageBase                0000000140000000     <linker-defined>
 0001:00008f30       __local_stdio_printf_options 0000000140009f30 f i main.obj
 0001:00008f40       _vfprintf_l                0000000140009f40 f i main.obj
 0001:00008f90       printf                     0000000140009f90 f i main.obj
 0001:0000a490       main                       000000014000b490 f   main.obj
 0001:0000a64c       ??H@YA?AUTMVec3@@U0@0@Z    000000014000b64c f   tmlib:tmlib.dll
 0001:0000a652       ??D@YA?AUTMMat4@@U0@0@Z    000000014000b652 f   tmlib:tmlib.dll
 0001:0000a658       ?TMMat4Perspective@@YA?AUTMMat4@@MMMM@Z 000000014000b658 f   tmlib:tmlib.dll
 0001:0000a65e       ?TMMat4Ortho@@YA?AUTMMat4@@MMMMMM@Z 000000014000b65e f   tmlib:tmlib.dll
 0001:0000a664       ?TMMat4LookAt@@YA?AUTMMat4@@UTMVec3@@00@Z 000000014000b664 f   tmlib:tmlib.dll
 0001:0000a66a       ?TMMat4Translate@@YA?AUTMMat4@@MMM@Z 000000014000b66a f   tmlib:tmlib.dll
 0001:0000a670       ?TMMat4Scale@@YA?AUTMMat4@@MMM@Z 000000014000b670 f   tmlib:tmlib.dll
 0001:0000a676       ?TMMat4RotateY@@YA?AUTMMat4@@M@Z 000000014000b676 f   tmlib:tmlib.dll
 0001:0000a67c       ?TMRendererCreate@@YAPEAUTMRenderer@@PEAUTMWindow@@@Z 000000014000b67c f   tmlib:tmlib.dll
 0001:0000a682       ?TMRendererDestroy@@YAXPEAUTMRenderer@@@Z 000000014000b682 f   tmlib:tmlib.dll
 0001:0000a688       ?TMRendererDepthTestEnable@@YAXPEAUTMRenderer@@@Z 000000014000b688 f   tmlib:tmlib.dll
 0001:0000a68e       ?TMRendererDepthTestDisable@@YAXPEAUTMRenderer@@@Z 000000014000b68e f   tmlib:tmlib.dll
 0001:0000a694       ?TMRendererFaceCulling@@YAXPEAUTMRenderer@@_NI@Z 000000014000b694 f   tmlib:tmlib.dll
 0001:0000a69a       ?TMRendererGetWidth@@YAHPEAUTMRenderer@@@Z 000000014000b69a f   tmlib:tmlib.dll
 0001:0000a6a0       ?TMRendererGetHeight@@YAHPEAUTMRenderer@@@Z 000000014000b6a0 f   tmlib:tmlib.dll
 0001:0000a6a6       ?TMRendererClear@@YAXPEAUTMRenderer@@MMMMI@Z 000000014000b6a6 f   tmlib:tmlib.dll
 0001:0000a6ac       ?TMRendererPresent@@YAXPEAUTMRenderer@@@Z 000000014000b6ac f   tmlib:tmlib.dll
 0001:0000a6b2       ?TMRendererBufferCreate@@YAPEAUTMBuffer@@PEAUTMRenderer@@PEAUTMVertex@@IPEAUTMShader@@@Z 000000014000b6b2 f   tmlib:tmlib.dll
 0001:0000a6b8       ?TMRendererBufferCreate@@YAPEAUTMBuffer@@PEAUTMRenderer@@PEAUTMVertex@@IPEAIIPEAUTMShader@@@Z 000000014000b6b8 f   tmlib:tmlib.dll
 0001:0000a6be       ?TMRendererBufferCreate@@YAPEAUTMBuffer@@PEAUTMRenderer@@PEAMI1I1IPEAGIPEAUTMShader@@@Z 000000014000b6be f   tmlib:tmlib.dll
 0001:0000a6c4       ?TMRendererBufferDestroy@@YAXPEAUTMRenderer@@PEAUTMBuffer@@@Z 000000014000b6c4 f   tmlib:tmlib.dll
 0001:0000a6ca       ?TMRendererDrawBufferElements@@YAXPEAUTMRenderer@@PEAUTMBuffer@@@Z 000000014000b6ca f   tmlib:tmlib.dll
 0001:0000a6d0       ?TMRendererShaderCreate@@YAPEAUTMShader@@PEAUTMRenderer@@PEBD1@Z 000000014000b6d0 f   tmlib:tmlib.dll
 0001:0000a6d6       ?TMRendererShaderDestroy@@YAXPEAUTMRenderer@@PEAUTMShader@@@Z 000000014000b6d6 f   tmlib:tmlib.dll
 0001:0000a6dc       ?TMRendererBindShader@@YAXPEAUTMRenderer@@PEAUTMShader@@@Z 000000014000b6dc f   tmlib:tmlib.dll
 0001:0000a6e2       ?TMRendererShaderBufferCreate@@YAPEAUTMShaderBuffer@@PEAUTMRenderer@@PEAX_K@Z 000000014000b6e2 f   tmlib:tmlib.dll
 0001:0000a6e8       ?TMRendererShaderBufferDestroy@@YAXPEAUTMRenderer@@PEAUTMShaderBuffer@@@Z 000000014000b6e8 f   tmlib:tmlib.dll
 0001:0000a6ee       ?TMRendererShaderBufferUpdate@@YAXPEAUTMRenderer@@PEAUTMShaderBuffer@@PEAX@Z 000000014000b6ee f   tmlib:tmlib.dll
 0001:0000a6f4       ?TMRendererTextureCreate@@YAPEAUTMTexture@@PEAUTMRenderer@@PEBD@Z 000000014000b6f4 f   tmlib:tmlib.dll
 0001:0000a6fa       ?TMRendererTextureDestroy@@YAXPEAUTMRenderer@@PEAUTMTexture@@@Z 000000014000b6fa f   tmlib:tmlib.dll
 0001:0000a700       ?TMRendererTextureBind@@YAXPEAUTMRenderer@@PEAUTMTexture@@PEAUTMShader@@PEBDH@Z 000000014000b700 f   tmlib:tmlib.dll
 0001:0000a706       ?TMFileOpen@@YA?AUTMFile@@PEBD@Z 000000014000b706 f   tmlib:tmlib.dll
 0001:0000a70c       ?TMFileClose@@YAXPEAUTMFile@@@Z 000000014000b70c f   tmlib:tmlib.dll
 0001:0000a712       ?TMJsonOpen@@YAPEAUTMJson@@PEBD@Z 000000014000b712 f   tmlib:tmlib.dll
 0001:0000a718       ?TMJsonClose@@YAXPEAUTMJson@@@Z 000000014000b718 f   tmlib:tmlib.dll
 0001:0000a71e       ?TMJsonFindChildByName@@YAPEAUTMJsonObject@@PEAU1@PEBD@Z 000000014000b71e f   tmlib:tmlib.dll
 0001:0000a724       ?TMWindowCreate@@YAPEAUTMWindow@@HHPEBD@Z 000000014000b724 f   tmlib:tmlib.dll
 0001:0000a72a       ?TMWindowDestroy@@YAXPEAUTMWindow@@@Z 000000014000b72a f   tmlib:tmlib.dll
 0001:0000a730       ?TMWindowShouldClose@@YA_NPEAUTMWindow@@@Z 000000014000b730 f   tmlib:tmlib.dll
 0001:0000a736       ?TMWindowFlushEventQueue@@YAXPEAUTMWindow@@@Z 000000014000b736 f   tmlib:tmlib.dll
 0001:0000a73c       ?TMWindowPresent@@YAXPEAUTMWindow@@@Z 000000014000b73c f   tmlib:tmlib.dll
 0001:0000a744       __raise_securityfailure    000000014000b744 f   LIBCMT:gs_report.obj
 0001:0000a788       __report_gsfailure         000000014000b788 f   LIBCMT:gs_report.obj
 0001:0000a890       __report_rangecheckfailure 000000014000b890 f   LIBCMT:gs_report.obj
 0001:0000a8a8       __report_securityfailure   000000014000b8a8 f   LIBCMT:gs_report.obj
 0001:0000a96c       __report_securityfailureEx 000000014000b96c f   LIBCMT:gs_report.obj
 0001:0000abd8       __GSHandlerCheck           000000014000bbd8 f   LIBCMT:gshandler.obj
 0001:0000abfc       __GSHandlerCheckCommon     000000014000bbfc f   LIBCMT:gshandler.obj
 0001:0000ac80       __security_check_cookie    000000014000bc80 f   LIBCMT:amdsecgs.obj
 0001:0000afb8       ?configure_argv@__scrt_narrow_argv_policy@@SAHXZ 000000014000bfb8 f i LIBCMT:exe_main.obj
 0001:0000afd4       ?initialize_environment@__scrt_narrow_environment_policy@@SAHXZ 000000014000bfd4 f i LIBCMT:exe_main.obj
 0001:0000b020       ?set_app_type@__scrt_main_policy@@SAXXZ 000000014000c020 f i LIBCMT:exe_main.obj
 0001:0000b02c       ?set_commode@__scrt_file_policy@@SAXXZ 000000014000c02c f i LIBCMT:exe_main.obj
 0001:0000b04c       ?set_fmode@__scrt_file_policy@@SAXXZ 000000014000c04c f i LIBCMT:exe_main.obj
 0001:0000b068       mainCRTStartup             000000014000c068 f   LIBCMT:exe_main.obj
 0001:0000b118       NtCurrentTeb               000000014000c118 f i LIBCMT:utility.obj
 0001:0000b124       __scrt_acquire_startup_lock 000000014000c124 f   LIBCMT:utility.obj
 0001:0000b16c       __scrt_dllmain_after_initialize_c 000000014000c16c f   LIBCMT:utility.obj
 0001:0000b1b0       __scrt_dllmain_before_initialize_c 000000014000c1b0 f   LIBCMT:utility.obj
 0001:0000b1cc       __scrt_dllmain_crt_thread_attach 000000014000c1cc f   LIBCMT:utility.obj
 0001:0000b200       __scrt_dllmain_crt_thread_detach 000000014000c200 f   LIBCMT:utility.obj
 0001:0000b21c       __scrt_dllmain_exception_filter 000000014000c21c f   LIBCMT:utility.obj
 0001:0000b294       __scrt_dllmain_uninitialize_c 000000014000c294 f   LIBCMT:utility.obj
 0001:0000b2d0       __scrt_dllmain_uninitialize_critical 000000014000c2d0 f   LIBCMT:utility.obj
 0001:0000b2ec       __scrt_initialize_crt      000000014000c2ec f   LIBCMT:utility.obj
 0001:0000b348       __scrt_initialize_onexit_tables 000000014000c348 f   LIBCMT:utility.obj
 0001:0000b3f8       __scrt_is_nonwritable_in_current_image 000000014000c3f8 f   LIBCMT:utility.obj
 0001:0000b4b8       __scrt_release_startup_lock 000000014000c4b8 f   LIBCMT:utility.obj
 0001:0000b4e8       __scrt_uninitialize_crt    000000014000c4e8 f   LIBCMT:utility.obj
 0001:0000b51c       _onexit                    000000014000c51c f   LIBCMT:utility.obj
 0001:0000b564       at_quick_exit              000000014000c564 f   LIBCMT:utility.obj
 0001:0000b588       atexit                     000000014000c588 f   LIBCMT:utility.obj
 0001:0000b62c       __security_init_cookie     000000014000c62c f   LIBCMT:gs_support.obj
 0001:0000b704       _matherr                   000000014000c704 f   LIBCMT:matherr.obj
 0001:0000b708       _get_startup_argv_mode     000000014000c708 f   LIBCMT:argv_mode.obj
 0001:0000b710       _get_startup_commit_mode   000000014000c710 f   LIBCMT:commit_mode.obj
 0001:0000b714       _get_startup_file_mode     000000014000c714 f   LIBCMT:file_mode.obj
 0001:0000b71c       _get_startup_new_mode      000000014000c71c f   LIBCMT:new_mode.obj
 0001:0000b720       _get_startup_thread_locale_mode 000000014000c720 f   LIBCMT:thread_locale.obj
 0001:0000b724       ?__scrt_initialize_type_info@@YAXXZ 000000014000c724 f   LIBCMT:tncleanup.obj
 0001:0000b738       ?__scrt_uninitialize_type_info@@YAXXZ 000000014000c738 f   LIBCMT:tncleanup.obj
 0001:0000b748       _should_initialize_environment 000000014000c748 f   LIBCMT:env_mode.obj
 0001:0000b74c       _initialize_invalid_parameter_handler 000000014000c74c f   LIBCMT:invalid_parameter_handler.obj
 0001:0000b750       _initialize_denormal_control 000000014000c750 f   LIBCMT:denormal_control.obj
 0001:0000b754       __local_stdio_scanf_options 000000014000c754 f i LIBCMT:default_local_stdio_options.obj
 0001:0000b760       __scrt_initialize_default_local_stdio_options 000000014000c760 f   LIBCMT:default_local_stdio_options.obj
 0001:0000b784       __scrt_is_user_matherr_present 000000014000c784 f   LIBCMT:matherr_detection.obj
 0001:0000b794       __scrt_get_dyn_tls_init_callback 000000014000c794 f   LIBCMT:dyn_tls_init.obj
 0001:0000b7a0       __scrt_get_dyn_tls_dtor_callback 000000014000c7a0 f   LIBCMT:dyn_tls_dtor.obj
 0001:0000b7ac       __crt_debugger_hook        000000014000c7ac f   LIBCMT:utility_desktop.obj
 0001:0000b7b8       __scrt_fastfail            000000014000c7b8 f   LIBCMT:utility_desktop.obj
 0001:0000b958       __scrt_get_show_window_mode 000000014000c958 f   LIBCMT:utility_desktop.obj
 0001:0000b9a0       __scrt_initialize_mta      000000014000c9a0 f   LIBCMT:utility_desktop.obj
 0001:0000b9a8       __scrt_initialize_winrt    000000014000c9a8 f   LIBCMT:utility_desktop.obj
 0001:0000b9ac       __scrt_is_managed_app      000000014000c9ac f   LIBCMT:utility_desktop.obj
 0001:0000ba14       __scrt_set_unhandled_exception_filter 000000014000ca14 f   LIBCMT:utility_desktop.obj
 0001:0000ba28       __scrt_exe_initialize_mta  000000014000ca28 f   LIBCMT:utility_desktop.obj
 0001:0000ba28       __scrt_stub_for_initialize_mta 000000014000ca28 f   LIBCMT:utility_desktop.obj
 0001:0000ba2c       __scrt_unhandled_exception_filter 000000014000ca2c f   LIBCMT:utility_desktop.obj
 0001:0000baa0       _RTC_Initialize            000000014000caa0 f   LIBCMT:initsect.obj
 0001:0000baec       _RTC_Terminate             000000014000caec f   LIBCMT:initsect.obj
 0001:0000bb38       _guard_check_icall_nop     000000014000cb38 f i LIBCMT:guard_support.obj
 0001:0000bb3c       ReadNoFence64              000000014000cb3c f i LIBCMT:guard_support.obj
 0001:0000bb40       ReadPointerNoFence         000000014000cb40 f i LIBCMT:guard_support.obj
 0001:0000bb44       __castguard_check_failure_debugbreak 000000014000cb44 f i LIBCMT:guard_support.obj
 0001:0000bb68       __castguard_check_failure_fastfail 000000014000cb68 f i LIBCMT:guard_support.obj
 0001:0000bb94       __castguard_check_failure_nop 000000014000cb94 f i LIBCMT:guard_support.obj
 0001:0000bb98       __castguard_check_failure_os_handled 000000014000cb98 f i LIBCMT:guard_support.obj
 0001:0000bc2c       __castguard_slow_path_check_debugbreak 000000014000cc2c f i LIBCMT:guard_support.obj
 0001:0000bc70       __castguard_slow_path_check_fastfail 000000014000cc70 f i LIBCMT:guard_support.obj
 0001:0000bcb8       __castguard_slow_path_check_nop 000000014000ccb8 f i LIBCMT:guard_support.obj
 0001:0000bcbc       __castguard_slow_path_check_os_handled 000000014000ccbc f i LIBCMT:guard_support.obj
 0001:0000bd44       _guard_icall_checks_enforced 000000014000cd44 f i LIBCMT:guard_support.obj
 0001:0000bd60       _guard_rf_checks_enforced  000000014000cd60 f i LIBCMT:guard_support.obj
 0001:0000bd64       __isa_available_init       000000014000cd64 f   LIBCMT:cpu_disp.obj
 0001:0000bf7c       __scrt_is_ucrt_dll_in_use  000000014000cf7c f   LIBCMT:ucrt_detection.obj
 0001:0000bf90       RtlCaptureContext          000000014000cf90 f   kernel32:KERNEL32.dll
 0001:0000bf96       RtlLookupFunctionEntry     000000014000cf96 f   kernel32:KERNEL32.dll
 0001:0000bf9c       RtlVirtualUnwind           000000014000cf9c f   kernel32:KERNEL32.dll
 0001:0000bfa2       UnhandledExceptionFilter   000000014000cfa2 f   kernel32:KERNEL32.dll
 0001:0000bfa8       SetUnhandledExceptionFilter 000000014000cfa8 f   kernel32:KERNEL32.dll
 0001:0000bfae       GetCurrentProcess          000000014000cfae f   kernel32:KERNEL32.dll
 0001:0000bfb4       TerminateProcess           000000014000cfb4 f   kernel32:KERNEL32.dll
 0001:0000bfba       IsProcessorFeaturePresent  000000014000cfba f   kernel32:KERNEL32.dll
 0001:0000bfc0       QueryPerformanceCounter    000000014000cfc0 f   kernel32:KERNEL32.dll
 0001:0000bfc6       GetCurrentProcessId        000000014000cfc6 f   kernel32:KERNEL32.dll
 0001:0000bfcc       GetCurrentThreadId         000000014000cfcc f   kernel32:KERNEL32.dll
 0001:0000bfd2       GetSystemTimeAsFileTime    000000014000cfd2 f   kernel32:KERNEL32.dll
 0001:0000bfd8       InitializeSListHead        000000014000cfd8 f   kernel32:KERNEL32.dll
 0001:0000bfde       IsDebuggerPresent          000000014000cfde f   kernel32:KERNEL32.dll
 0001:0000bfe4       GetStartupInfoW            000000014000cfe4 f   kernel32:KERNEL32.dll
 0001:0000bfea       GetModuleHandleW           000000014000cfea f   kernel32:KERNEL32.dll
 0001:0000c000       memcpy_repmovs             000000014000d000 f   libvcruntime:memcpy.obj
 0001:0000c020       memcpy                     000000014000d020 f   libvcruntime:memcpy.obj
 0001:0000c020       memmove                    000000014000d020 f   libvcruntime:memcpy.obj
 0001:0000c840       __C_specific_handler       000000014000d840 f   libvcruntime:riscchandler.obj
 0001:0000cab4       __vcrt_initialize          000000014000dab4 f   libvcruntime:initialization.obj
 0001:0000cae8       __vcrt_thread_attach       000000014000dae8 f   libvcruntime:initialization.obj
 0001:0000cb04       __vcrt_thread_detach       000000014000db04 f   libvcruntime:initialization.obj
 0001:0000cb1c       __vcrt_uninitialize        000000014000db1c f   libvcruntime:initialization.obj
 0001:0000cb3c       __vcrt_uninitialize_critical 000000014000db3c f   libvcruntime:initialization.obj
 0001:0000cb64       ??$?RD@__crt_internal_free_policy@@QEBAXQEBD@Z 000000014000db64 f i libvcruntime:std_type_info.obj
 0001:0000cb70       ??$?RX@__crt_internal_free_policy@@QEBAXQEBX@Z 000000014000db70 f i libvcruntime:std_type_info.obj
 0001:0000cb7c       ??$__crt_interlocked_compare_exchange_pointer@$$CBDPEAD$$T@@YAPEBDPEDSEBDQEAD$$T@Z 000000014000db7c f i libvcruntime:std_type_info.obj
 0001:0000cb88       ??$__crt_interlocked_read_pointer@$$CBD@@YAPEBDPEDSEBD@Z 000000014000db88 f i libvcruntime:std_type_info.obj
 0001:0000cb90       ??0?$__crt_unique_heap_ptr@DU__crt_internal_free_policy@@@@QEAA@QEAD@Z 000000014000db90 f i libvcruntime:std_type_info.obj
 0001:0000cb98       ??0?$__crt_unique_heap_ptr@XU__crt_internal_free_policy@@@@QEAA@QEAX@Z 000000014000db98 f i libvcruntime:std_type_info.obj
 0001:0000cba0       ??1?$__crt_unique_heap_ptr@DU__crt_internal_free_policy@@@@QEAA@XZ 000000014000dba0 f i libvcruntime:std_type_info.obj
 0001:0000cbc4       ??1?$__crt_unique_heap_ptr@XU__crt_internal_free_policy@@@@QEAA@XZ 000000014000dbc4 f i libvcruntime:std_type_info.obj
 0001:0000cbe8       ??B?$__crt_unique_heap_ptr@DU__crt_internal_free_policy@@@@QEBA_NXZ 000000014000dbe8 f i libvcruntime:std_type_info.obj
 0001:0000cbf4       ??B?$__crt_unique_heap_ptr@XU__crt_internal_free_policy@@@@QEBA_NXZ 000000014000dbf4 f i libvcruntime:std_type_info.obj
 0001:0000cc18       ?__crt_interlocked_read_64@@YA_JPED_J@Z 000000014000dc18 f i libvcruntime:std_type_info.obj
 0001:0000cc20       ?detach@?$__crt_unique_heap_ptr@XU__crt_internal_free_policy@@@@QEAAPEAXXZ 000000014000dc20 f i libvcruntime:std_type_info.obj
 0001:0000cc2c       ?get@?$__crt_unique_heap_ptr@DU__crt_internal_free_policy@@@@QEBAPEADXZ 000000014000dc2c f i libvcruntime:std_type_info.obj
 0001:0000cc30       ?get@?$__crt_unique_heap_ptr@XU__crt_internal_free_policy@@@@QEBAPEAXXZ 000000014000dc30 f i libvcruntime:std_type_info.obj
 0001:0000cc34       ?is_valid@?$__crt_unique_heap_ptr@DU__crt_internal_free_policy@@@@QEBA_NXZ 000000014000dc34 f i libvcruntime:std_type_info.obj
 0001:0000cc40       ?is_valid@?$__crt_unique_heap_ptr@XU__crt_internal_free_policy@@@@QEBA_NXZ 000000014000dc40 f i libvcruntime:std_type_info.obj
 0001:0000cc4c       ?release@?$__crt_unique_heap_ptr@DU__crt_internal_free_policy@@@@QEAAXXZ 000000014000dc4c f i libvcruntime:std_type_info.obj
 0001:0000cc70       ?release@?$__crt_unique_heap_ptr@XU__crt_internal_free_policy@@@@QEAAXXZ 000000014000dc70 f i libvcruntime:std_type_info.obj
 0001:0000cc94       __std_type_info_compare    000000014000dc94 f   libvcruntime:std_type_info.obj
 0001:0000ccc4       __std_type_info_destroy_list 000000014000dcc4 f   libvcruntime:std_type_info.obj
 0001:0000ccf8       __std_type_info_hash       000000014000dcf8 f   libvcruntime:std_type_info.obj
 0001:0000cd40       __std_type_info_name       000000014000dd40 f   libvcruntime:std_type_info.obj
 0001:0000cea0       __DestructExceptionObject  000000014000dea0 f   libvcruntime:ehhelpers.obj
 0001:0000cf28       ?_CallMemberFunction0@@YAXQEAX0@Z 000000014000df28 f i libvcruntime:ehhelpers.obj
 0001:0000cf9c       ?raw_name@type_info@@QEBAPEBDXZ 000000014000df9c f i libvcruntime:ehhelpers.obj
 0001:0000cfa4       _IsExceptionObjectToBeDestroyed 000000014000dfa4 f   libvcruntime:ehhelpers.obj
 0001:0000cfe0       _SetWinRTOutOfMemoryExceptionCallback 000000014000dfe0 f   libvcruntime:ehhelpers.obj
 0001:0000cfec       __AdjustPointer            000000014000dfec f   libvcruntime:ehhelpers.obj
 0001:0000d018       __FrameUnwindFilter        000000014000e018 f   libvcruntime:ehhelpers.obj
 0001:0000d098       __GetPlatformExceptionInfo 000000014000e098 f   libvcruntime:ehhelpers.obj
 0001:0000d10c       __current_exception        000000014000e10c f   libvcruntime:ehhelpers.obj
 0001:0000d124       __current_exception_context 000000014000e124 f   libvcruntime:ehhelpers.obj
 0001:0000d13c       __processing_throw         000000014000e13c f   libvcruntime:ehhelpers.obj
 0001:0000d154       __std_terminate            000000014000e154 f   libvcruntime:ehhelpers.obj
 0001:0000d160       _is_exception_typeof       000000014000e160 f   libvcruntime:ehhelpers.obj
 0001:0000d240       memset_repstos             000000014000e240 f   libvcruntime:memset.obj
 0001:0000d260       memset                     000000014000e260 f   libvcruntime:memset.obj
 0001:0000d6f0       _NLG_Notify                000000014000e6f0 f   libvcruntime:notify.obj
 0001:0000d710       __NLG_Dispatch2            000000014000e710 f   libvcruntime:notify.obj
 0001:0000d720       __NLG_Return2              000000014000e720 f   libvcruntime:notify.obj
 0001:0000d73c       __except_validate_context_record 000000014000e73c f   libvcruntime:jbcxrval.obj
 0001:0000d780       __except_validate_jump_buffer 000000014000e780 f   libvcruntime:jbcxrval.obj
 0001:0000d7d0       __except_validate_jump_buffer_common 000000014000e7d0 f i libvcruntime:jbcxrval.obj
 0001:0000d844       ??$?RU__vcrt_ptd@@@__crt_internal_free_policy@@QEBAXQEBU__vcrt_ptd@@@Z 000000014000e844 f i libvcruntime:per_thread_data.obj
 0001:0000d850       ??0?$__crt_unique_heap_ptr@U__vcrt_ptd@@U__crt_internal_free_policy@@@@QEAA@QEAU__vcrt_ptd@@@Z 000000014000e850 f i libvcruntime:per_thread_data.obj
 0001:0000d878       ??1?$__crt_unique_heap_ptr@U__vcrt_ptd@@U__crt_internal_free_policy@@@@QEAA@XZ 000000014000e878 f i libvcruntime:per_thread_data.obj
 0001:0000d8a8       ??B?$__crt_unique_heap_ptr@U__vcrt_ptd@@U__crt_internal_free_policy@@@@QEBA_NXZ 000000014000e8a8 f i libvcruntime:per_thread_data.obj
 0001:0000d8b4       ?detach@?$__crt_unique_heap_ptr@U__vcrt_ptd@@U__crt_internal_free_policy@@@@QEAAPEAU__vcrt_ptd@@XZ 000000014000e8b4 f i libvcruntime:per_thread_data.obj
 0001:0000d8c0       ?get@?$__crt_unique_heap_ptr@U__vcrt_ptd@@U__crt_internal_free_policy@@@@QEBAPEAU__vcrt_ptd@@XZ 000000014000e8c0 f i libvcruntime:per_thread_data.obj
 0001:0000d8c4       ?is_valid@?$__crt_unique_heap_ptr@U__vcrt_ptd@@U__crt_internal_free_policy@@@@QEBA_NXZ 000000014000e8c4 f i libvcruntime:per_thread_data.obj
 0001:0000d8d0       ?release@?$__crt_unique_heap_ptr@U__vcrt_ptd@@U__crt_internal_free_policy@@@@QEAAXXZ 000000014000e8d0 f i libvcruntime:per_thread_data.obj
 0001:0000d928       __vcrt_freefls             000000014000e928 f   libvcruntime:per_thread_data.obj
 0001:0000d950       __vcrt_freeptd             000000014000e950 f   libvcruntime:per_thread_data.obj
 0001:0000d9b0       __vcrt_getptd              000000014000e9b0 f   libvcruntime:per_thread_data.obj
 0001:0000d9d0       __vcrt_getptd_noexit       000000014000e9d0 f   libvcruntime:per_thread_data.obj
 0001:0000dac0       __vcrt_getptd_noinit       000000014000eac0 f   libvcruntime:per_thread_data.obj
 0001:0000db20       __vcrt_initialize_ptd      000000014000eb20 f   libvcruntime:per_thread_data.obj
 0001:0000db78       __vcrt_uninitialize_ptd    000000014000eb78 f   libvcruntime:per_thread_data.obj
 0001:0000dba4       __vcrt_initialize_locks    000000014000eba4 f   libvcruntime:locks.obj
 0001:0000dbfc       __vcrt_lock                000000014000ebfc f   libvcruntime:locks.obj
 0001:0000dc1c       __vcrt_uninitialize_locks  000000014000ec1c f   libvcruntime:locks.obj
 0001:0000dc60       __vcrt_unlock              000000014000ec60 f   libvcruntime:locks.obj
 0001:0000dc80       ??$?0$00@DName@@QEAA@PEBDU?$StringLifeSelector@$00@@@Z 000000014000ec80 f i libvcruntime:undname.obj
 0001:0000dcd0       ??$?0$00@pcharNode@@QEAA@PEBDHU?$StringLifeSelector@$00@@@Z 000000014000ecd0 f i libvcruntime:undname.obj
 0001:0000dcec       ??$?0$01@DName@@QEAA@PEBDU?$StringLifeSelector@$01@@@Z 000000014000ecec f i libvcruntime:undname.obj
 0001:0000dd3c       ??$?0$01@pcharNode@@QEAA@PEBDHU?$StringLifeSelector@$01@@@Z 000000014000ed3c f i libvcruntime:undname.obj
 0001:0000ddcc       ??$?0$0A@@DName@@QEAA@PEBDU?$StringLifeSelector@$0A@@@@Z 000000014000edcc f i libvcruntime:undname.obj
 0001:0000de1c       ??$?0$0A@@pcharNode@@QEAA@PEBDHU?$StringLifeSelector@$0A@@@@Z 000000014000ee1c f i libvcruntime:undname.obj
 0001:0000deac       ??$?0_K$0A@@?$optional@_K@std@@QEAA@$$QEA_K@Z 000000014000eeac f i libvcruntime:undname.obj
 0001:0000dec0       ??$?0_K@?$_Optional_construct_base@_K@std@@QEAA@Uin_place_t@1@$$QEA_K@Z 000000014000eec0 f i libvcruntime:undname.obj
 0001:0000ded4       ??$?0_K@?$_Optional_destruct_base@_K$00@std@@QEAA@Uin_place_t@1@$$QEA_K@Z 000000014000eed4 f i libvcruntime:undname.obj
 0001:0000dee8       ??$append@VDNameNode@@@DName@@AEAAXPEBVDNameNode@@@Z 000000014000eee8 f i libvcruntime:undname.obj
 0001:0000df64       ??$append@VDNameStatusNode@@@DName@@AEAAXPEBVDNameStatusNode@@@Z 000000014000ef64 f i libvcruntime:undname.obj
 0001:0000dfe0       ??$append@VcharNode@@@DName@@AEAAXPEBVcharNode@@@Z 000000014000efe0 f i libvcruntime:undname.obj
 0001:0000e05c       ??$append@VpDNameNode@@@DName@@AEAAXPEBVpDNameNode@@@Z 000000014000f05c f i libvcruntime:undname.obj
 0001:0000e0d8       ??$append@VpcharNode@@@DName@@AEAAXPEBVpcharNode@@@Z 000000014000f0d8 f i libvcruntime:undname.obj
 0001:0000e154       ??$doPchar@$00@DName@@AEAAXPEBDH@Z 000000014000f154 f i libvcruntime:undname.obj
 0001:0000e220       ??$doPchar@$01@DName@@AEAAXPEBDH@Z 000000014000f220 f i libvcruntime:undname.obj
 0001:0000e2dc       ??$doPchar@$0A@@DName@@AEAAXPEBDH@Z 000000014000f2dc f i libvcruntime:undname.obj
 0001:0000e398       ??$forward@_K@std@@YA$$QEA_KAEA_K@Z 000000014000f398 f i libvcruntime:undname.obj
 0001:0000e4fc       ??$size@D$04@std@@YA_KAEAY04$$CBD@Z 000000014000f4fc f i libvcruntime:undname.obj
 0001:0000e504       ??0?$_Optional_construct_base@_K@std@@QEAA@XZ 000000014000f504 f i libvcruntime:undname.obj
 0001:0000e510       ??0?$_Optional_destruct_base@_K$00@std@@QEAA@XZ 000000014000f510 f i libvcruntime:undname.obj
 0001:0000e51c       ??0?$optional@_K@std@@QEAA@XZ 000000014000f51c f i libvcruntime:undname.obj
 0001:0000e528       ??0Block@_HeapManager@@QEAA@XZ 000000014000f528 f i libvcruntime:undname.obj
 0001:0000e534       ??0DName@@QEAA@AEAPEBDD@Z  000000014000f534 f   libvcruntime:undname.obj
 0001:0000e610       ??0DName@@QEAA@AEBUStringLiteral@@@Z 000000014000f610 f   libvcruntime:undname.obj
 0001:0000e648       ??0DName@@QEAA@AEBV0@@Z    000000014000f648 f i libvcruntime:undname.obj
 0001:0000e65c       ??0DName@@QEAA@D@Z         000000014000f65c f   libvcruntime:undname.obj
 0001:0000e684       ??0DName@@QEAA@PEAV0@@Z    000000014000f684 f   libvcruntime:undname.obj
 0001:0000e728       ??0DName@@QEAA@W4DNameStatus@@@Z 000000014000f728 f   libvcruntime:undname.obj
 0001:0000e760       ??0DName@@QEAA@XZ          000000014000f760 f i libvcruntime:undname.obj
 0001:0000e770       ??0DName@@QEAA@_J@Z        000000014000f770 f   libvcruntime:undname.obj
 0001:0000e840       ??0DName@@QEAA@_K@Z        000000014000f840 f   libvcruntime:undname.obj
 0001:0000e8ec       ??0DNameNode@@IEAA@XZ      000000014000f8ec f i libvcruntime:undname.obj
 0001:0000e900       ??0Replicator@@QEAA@XZ     000000014000f900 f i libvcruntime:undname.obj
 0001:0000e914       ??0UnDecorator@@QEAA@PEBDP6APEADJ@ZK@Z 000000014000f914 f i libvcruntime:undname.obj
 0001:0000e978       ??0_Nontrivial_dummy_type@std@@QEAA@XZ 000000014000f978 f i libvcruntime:undname.obj
 0001:0000e97c       ??0charNode@@QEAA@D@Z      000000014000f97c f i libvcruntime:undname.obj
 0001:0000e994       ??0pDNameNode@@QEAA@PEAVDName@@@Z 000000014000f994 f   libvcruntime:undname.obj
 0001:0000e9c4       ??0pairNode@@QEAA@PEBVDNameNode@@0@Z 000000014000f9c4 f i libvcruntime:undname.obj
 0001:0000e9ec       ??2@YAPEAX_KAEAV_HeapManager@@H@Z 000000014000f9ec f   libvcruntime:undname.obj
 0001:0000ea20       ??4DName@@QEAAAEAV0@AEBUStringLiteral@@@Z 000000014000fa20 f   libvcruntime:undname.obj
 0001:0000ea50       ??4DName@@QEAAAEAV0@AEBV0@@Z 000000014000fa50 f   libvcruntime:undname.obj
 0001:0000ea64       ??4DName@@QEAAAEAV0@D@Z    000000014000fa64 f i libvcruntime:undname.obj
 0001:0000ea8c       ??4DName@@QEAAAEAV0@PEAV0@@Z 000000014000fa8c f   libvcruntime:undname.obj
 0001:0000eb20       ??4DName@@QEAAAEAV0@W4DNameStatus@@@Z 000000014000fb20 f   libvcruntime:undname.obj
 0001:0000eb5c       ??AReplicator@@QEBA?AVDName@@H@Z 000000014000fb5c f   libvcruntime:undname.obj
 0001:0000ebac       ??B?$optional@_K@std@@QEBA_NXZ 000000014000fbac f i libvcruntime:undname.obj
 0001:0000ebb0       ??D?$_Optional_construct_base@_K@std@@QEGAAAEA_KXZ 000000014000fbb0 f i libvcruntime:undname.obj
 0001:0000ebb4       ??H@YA?AVDName@@AEBUStringLiteral@@AEBV0@@Z 000000014000fbb4 f i libvcruntime:undname.obj
 0001:0000ebf8       ??H@YA?AVDName@@DAEBV0@@Z  000000014000fbf8 f i libvcruntime:undname.obj
 0001:0000ec4c       ??H@YA?AVDName@@W4DNameStatus@@AEBV0@@Z 000000014000fc4c f i libvcruntime:undname.obj
 0001:0000eca8       ??HDName@@QEBA?AV0@AEBUStringLiteral@@@Z 000000014000fca8 f   libvcruntime:undname.obj
 0001:0000ecdc       ??HDName@@QEBA?AV0@AEBV0@@Z 000000014000fcdc f   libvcruntime:undname.obj
 0001:0000ed10       ??HDName@@QEBA?AV0@D@Z     000000014000fd10 f   libvcruntime:undname.obj
 0001:0000ed44       ??HDName@@QEBA?AV0@PEAV0@@Z 000000014000fd44 f   libvcruntime:undname.obj
 0001:0000ed78       ??HDName@@QEBA?AV0@W4DNameStatus@@@Z 000000014000fd78 f   libvcruntime:undname.obj
 0001:0000edac       ??HStringLiteral@@QEBA?AU0@H@Z 000000014000fdac f i libvcruntime:undname.obj
 0001:0000edc8       ??YDName@@QEAAAEAV0@AEBUStringLiteral@@@Z 000000014000fdc8 f   libvcruntime:undname.obj
 0001:0000ee68       ??YDName@@QEAAAEAV0@AEBV0@@Z 000000014000fe68 f   libvcruntime:undname.obj
 0001:0000eed8       ??YDName@@QEAAAEAV0@D@Z    000000014000fed8 f   libvcruntime:undname.obj
 0001:0000ef60       ??YDName@@QEAAAEAV0@PEAV0@@Z 000000014000ff60 f   libvcruntime:undname.obj
 0001:0000f018       ??YDName@@QEAAAEAV0@W4DNameStatus@@@Z 0000000140010018 f   libvcruntime:undname.obj
 0001:0000f084       ??YReplicator@@QEAAAEAV0@AEBVDName@@@Z 0000000140010084 f   libvcruntime:undname.obj
 0001:0000f0f4       ??_5DName@@QEAAAEAV0@AEBV0@@Z 00000001400100f4 f   libvcruntime:undname.obj
 0001:0000f114       ??__K_l@@YA?AUStringLiteral@@PEBD_K@Z 0000000140010114 f i libvcruntime:undname.obj
 0001:0000f124       ?Constructor@_HeapManager@@QEAAXP6APEAX_K@ZP6AXPEAX@Z@Z 0000000140010124 f i libvcruntime:undname.obj
 0001:0000f140       ?Destructor@_HeapManager@@QEAAXXZ 0000000140010140 f i libvcruntime:undname.obj
 0001:0000f19c       ?UScore@UnDecorator@@SA?AUStringLiteral@@W4Tokens@@@Z 000000014001019c f   libvcruntime:undname.obj
 0001:0000f1fc       ?composeDeclaration@UnDecorator@@CA?AVDName@@AEBV2@@Z 00000001400101fc f i libvcruntime:undname.obj
 0001:000104ac       ?doAccessSpecifiers@UnDecorator@@SAHXZ 00000001400114ac f i libvcruntime:undname.obj
 0001:000104c0       ?doAllocationLanguage@UnDecorator@@SAHXZ 00000001400114c0 f i libvcruntime:undname.obj
 0001:000104d4       ?doAllocationModel@UnDecorator@@SAHXZ 00000001400114d4 f i libvcruntime:undname.obj
 0001:000104e8       ?doEcsu@UnDecorator@@SAHXZ 00000001400114e8 f i libvcruntime:undname.obj
 0001:000104fc       ?doEllipsis@UnDecorator@@SAHXZ 00000001400114fc f i libvcruntime:undname.obj
 0001:00010510       ?doFunctionReturns@UnDecorator@@SAHXZ 0000000140011510 f i libvcruntime:undname.obj
 0001:00010524       ?doMSKeywords@UnDecorator@@SAHXZ 0000000140011524 f i libvcruntime:undname.obj
 0001:00010538       ?doMemberTypes@UnDecorator@@SAHXZ 0000000140011538 f i libvcruntime:undname.obj
 0001:0001054c       ?doNameOnly@UnDecorator@@SAHXZ 000000014001154c f i libvcruntime:undname.obj
 0001:0001055c       ?doNoIdentCharCheck@UnDecorator@@SAHXZ 000000014001155c f i libvcruntime:undname.obj
 0001:0001056c       ?doPchar@DName@@AEAAXD@Z   000000014001156c f   libvcruntime:undname.obj
 0001:000105d0       ?doPtr64@UnDecorator@@SAHXZ 00000001400115d0 f i libvcruntime:undname.obj
 0001:000105e4       ?doRestrictionSpec@UnDecorator@@SAHXZ 00000001400115e4 f i libvcruntime:undname.obj
 0001:000105f8       ?doThisTypes@UnDecorator@@SAHXZ 00000001400115f8 f i libvcruntime:undname.obj
 0001:00010610       ?doThrowTypes@UnDecorator@@SAHXZ 0000000140011610 f i libvcruntime:undname.obj
 0001:00010624       ?doTypeOnly@UnDecorator@@SAHXZ 0000000140011624 f i libvcruntime:undname.obj
 0001:00010634       ?doUnderScore@UnDecorator@@SAHXZ 0000000140011634 f i libvcruntime:undname.obj
 0001:00010644       ?getAddressOf@UnDecorator@@CA?AVDName@@XZ 0000000140011644 f   libvcruntime:undname.obj
 0001:000106f8       ?getArgumentList@UnDecorator@@CA?AVDName@@XZ 00000001400116f8 f   libvcruntime:undname.obj
 0001:0001091c       ?getArgumentTypes@UnDecorator@@CA?AVDName@@XZ 000000014001191c f   libvcruntime:undname.obj
 0001:00010abc       ?getArrayAccess@UnDecorator@@CA?AVDName@@XZ 0000000140011abc f   libvcruntime:undname.obj
 0001:00010b7c       ?getArrayObject@UnDecorator@@CA?AVDName@@XZ 0000000140011b7c f   libvcruntime:undname.obj
 0001:00010c64       ?getArrayType@UnDecorator@@CA?AVDName@@AEBV2@@Z 0000000140011c64 f i libvcruntime:undname.obj
 0001:00010f3c       ?getBasedType@UnDecorator@@CA?AVDName@@XZ 0000000140011f3c f   libvcruntime:undname.obj
 0001:00011070       ?getBasicDataType@UnDecorator@@CA?AVDName@@AEBV2@@Z 0000000140012070 f   libvcruntime:undname.obj
 0001:000117f4       ?getCHPEName@UnDecorator@@QEAAPEADPEADH@Z 00000001400127f4 f i libvcruntime:undname.obj
 0001:00011958       ?getCallIndex@UnDecorator@@CA?AVDName@@XZ 0000000140012958 f i libvcruntime:undname.obj
 0001:00011978       ?getCallingConvention@UnDecorator@@CA?AVDName@@XZ 0000000140012978 f   libvcruntime:undname.obj
 0001:00011b00       ?getDataIndirectType@UnDecorator@@CA?AVDName@@AEBV2@W4IndirectionKind@@0H@Z 0000000140012b00 f   libvcruntime:undname.obj
 0001:00012670       ?getDataIndirectType@UnDecorator@@CA?AVDName@@XZ 0000000140013670 f i libvcruntime:undname.obj
 0001:000126b8       ?getDataType@UnDecorator@@CA?AVDName@@PEAV2@@Z 00000001400136b8 f   libvcruntime:undname.obj
 0001:00012810       ?getDecoratedName@UnDecorator@@CA?AVDName@@XZ 0000000140013810 f   libvcruntime:undname.obj
 0001:00012bb0       ?getDimension@UnDecorator@@CA?AVDName@@_N@Z 0000000140013bb0 f   libvcruntime:undname.obj
 0001:00012d48       ?getDispatchTarget@UnDecorator@@CA?AVDName@@XZ 0000000140013d48 f   libvcruntime:undname.obj
 0001:00012dbc       ?getDisplacement@UnDecorator@@CA?AVDName@@XZ 0000000140013dbc f i libvcruntime:undname.obj
 0001:00012ddc       ?getECSUDataType@UnDecorator@@CA?AVDName@@XZ 0000000140013ddc f   libvcruntime:undname.obj
 0001:00013054       ?getECSUName@UnDecorator@@CA?AVDName@@XZ 0000000140014054 f i libvcruntime:undname.obj
 0001:00013070       ?getEnumType@UnDecorator@@CA?AVDName@@XZ 0000000140014070 f i libvcruntime:undname.obj
 0001:000131ec       ?getExtendedDataIndirectType@UnDecorator@@CA?AVDName@@AEAW4IndirectionKind@@AEA_NH@Z 00000001400141ec f   libvcruntime:undname.obj
 0001:00013470       ?getExternalDataType@UnDecorator@@CA?AVDName@@AEBV2@@Z 0000000140014470 f i libvcruntime:undname.obj
 0001:00013560       ?getFloatingPoint@UnDecorator@@CA?AVDName@@H@Z 0000000140014560 f   libvcruntime:undname.obj
 0001:00013720       ?getFunctionIndirectType@UnDecorator@@CA?AVDName@@AEBV2@@Z 0000000140014720 f   libvcruntime:undname.obj
 0001:00013da4       ?getGuardNumber@UnDecorator@@CA?AVDName@@XZ 0000000140014da4 f i libvcruntime:undname.obj
 0001:00013dc4       ?getLastChar@DName@@QEBADXZ 0000000140014dc4 f i libvcruntime:undname.obj
 0001:00013de4       ?getLastChar@DNameStatusNode@@UEBADXZ 0000000140014de4 f i libvcruntime:undname.obj
 0001:00013df4       ?getLastChar@charNode@@UEBADXZ 0000000140014df4 f i libvcruntime:undname.obj
 0001:00013df8       ?getLastChar@pDNameNode@@UEBADXZ 0000000140014df8 f i libvcruntime:undname.obj
 0001:00013e2c       ?getLastChar@pairNode@@UEBADXZ 0000000140014e2c f i libvcruntime:undname.obj
 0001:00013e70       ?getLastChar@pcharNode@@UEBADXZ 0000000140014e70 f i libvcruntime:undname.obj
 0001:00013e8c       ?getLexicalFrame@UnDecorator@@CA?AVDName@@XZ 0000000140014e8c f i libvcruntime:undname.obj
 0001:00013f08       ?getMemberAccess@UnDecorator@@CA?AVDName@@XZ 0000000140014f08 f   libvcruntime:undname.obj
 0001:00013fc0       ?getMemoryWithBuffer@_HeapManager@@QEAAPEAX_K@Z 0000000140014fc0 f   libvcruntime:undname.obj
 0001:00014074       ?getMemoryWithoutBuffer@_HeapManager@@QEAAPEAX_K@Z 0000000140015074 f   libvcruntime:undname.obj
 0001:0001408c       ?getNoexcept@UnDecorator@@CA?AVDName@@XZ 000000014001508c f   libvcruntime:undname.obj
 0001:00014108       ?getNumberOfDimensions@UnDecorator@@CAHXZ 0000000140015108 f   libvcruntime:undname.obj
 0001:00014188       ?getOperatorName@UnDecorator@@CA?AVDName@@_NPEA_N@Z 0000000140015188 f i libvcruntime:undname.obj
 0001:00014da4       ?getPointerToMember@UnDecorator@@CA?AVDName@@XZ 0000000140015da4 f   libvcruntime:undname.obj
 0001:00014ed8       ?getPointerType@UnDecorator@@CA?AVDName@@AEBV2@0@Z 0000000140015ed8 f i libvcruntime:undname.obj
 0001:00014efc       ?getPointerTypeArray@UnDecorator@@CA?AVDName@@AEBV2@0@Z 0000000140015efc f i libvcruntime:undname.obj
 0001:00014f1c       ?getPrimaryDataType@UnDecorator@@CA?AVDName@@AEBV2@@Z 0000000140015f1c f   libvcruntime:undname.obj
 0001:00015284       ?getPtrRefDataType@UnDecorator@@CA?AVDName@@AEBV2@H@Z 0000000140016284 f   libvcruntime:undname.obj
 0001:000154c4       ?getPtrRefType@UnDecorator@@CA?AVDName@@AEBV2@0W4IndirectionKind@@@Z 00000001400164c4 f   libvcruntime:undname.obj
 0001:00015710       ?getReferenceType@UnDecorator@@CA?AVDName@@AEBV2@0W4IndirectionKind@@@Z 0000000140016710 f i libvcruntime:undname.obj
 0001:0001572c       ?getRestrictionSpec@UnDecorator@@CA?AVDName@@XZ 000000014001672c f   libvcruntime:undname.obj
 0001:0001597c       ?getReturnType@UnDecorator@@CA?AVDName@@PEAV2@@Z 000000014001697c f   libvcruntime:undname.obj
 0001:000159c0       ?getScope@UnDecorator@@CA?AVDName@@XZ 00000001400169c0 f   libvcruntime:undname.obj
 0001:00015fa8       ?getScopedName@UnDecorator@@CA?AVDName@@XZ 0000000140016fa8 f   libvcruntime:undname.obj
 0001:00016134       ?getSignedDimension@UnDecorator@@CA?AVDName@@XZ 0000000140017134 f   libvcruntime:undname.obj
 0001:000161dc       ?getStorageConvention@UnDecorator@@CA?AVDName@@XZ 00000001400171dc f i libvcruntime:undname.obj
 0001:00016224       ?getString@DName@@QEBAPEADPEAD0@Z 0000000140017224 f i libvcruntime:undname.obj
 0001:00016244       ?getString@DName@@QEBAPEADPEADH@Z 0000000140017244 f i libvcruntime:undname.obj
 0001:000162fc       ?getString@DNameStatusNode@@UEBAPEADPEAD0@Z 00000001400172fc f i libvcruntime:undname.obj
 0001:00016354       ?getString@charNode@@UEBAPEADPEAD0@Z 0000000140017354 f i libvcruntime:undname.obj
 0001:0001636c       ?getString@pDNameNode@@UEBAPEADPEAD0@Z 000000014001736c f i libvcruntime:undname.obj
 0001:000163a4       ?getString@pairNode@@UEBAPEADPEAD0@Z 00000001400173a4 f i libvcruntime:undname.obj
 0001:00016404       ?getString@pcharNode@@UEBAPEADPEAD0@Z 0000000140017404 f i libvcruntime:undname.obj
 0001:00016448       ?getStringEncoding@UnDecorator@@CA?AVDName@@W4PrefixKind@@H@Z 0000000140017448 f   libvcruntime:undname.obj
 0001:00016598       ?getStringHelper@@YAPEADPEADPEBD1H@Z 0000000140017598 f i libvcruntime:undname.obj
 0001:000165d0       ?getStringObject@UnDecorator@@CA?AVDName@@XZ 00000001400175d0 f   libvcruntime:undname.obj
 0001:00016654       ?getSymbolName@UnDecorator@@CA?AVDName@@XZ 0000000140017654 f i libvcruntime:undname.obj
 0001:000166b4       ?getTemplateArgumentList@UnDecorator@@CA?AVDName@@XZ 00000001400176b4 f   libvcruntime:undname.obj
 0001:00016958       ?getTemplateName@UnDecorator@@CA?AVDName@@_N@Z 0000000140017958 f   libvcruntime:undname.obj
 0001:00016c90       ?getTemplateNonTypeArgument@UnDecorator@@CA?AVDName@@XZ 0000000140017c90 f   libvcruntime:undname.obj
 0001:00017334       ?getTemplateTypeArgument@UnDecorator@@CA?AVDName@@XZ 0000000140018334 f   libvcruntime:undname.obj
 0001:000174f8       ?getThisType@UnDecorator@@CA?AVDName@@XZ 00000001400184f8 f i libvcruntime:undname.obj
 0001:00017548       ?getThrowTypes@UnDecorator@@CA?AVDName@@XZ 0000000140018548 f   libvcruntime:undname.obj
 0001:00017574       ?getTypeEncoding@UnDecorator@@CAHXZ 0000000140018574 f i libvcruntime:undname.obj
 0001:00017a1c       ?getUndecoratedName@UnDecorator@@QEAAPEADPEADH@Z 0000000140018a1c f i libvcruntime:undname.obj
 0001:00017bc4       ?getUnionObject@UnDecorator@@CA?AVDName@@XZ 0000000140018bc4 f   libvcruntime:undname.obj
 0001:00017cd0       ?getVCallThunkType@UnDecorator@@CA?AVDName@@XZ 0000000140018cd0 f i libvcruntime:undname.obj
 0001:00017d64       ?getValue@UnDecorator@@CA?AV?$optional@_K@std@@XZ 0000000140018d64 f   libvcruntime:undname.obj
 0001:00017df4       ?getValueObject@UnDecorator@@CA?AVDName@@XZ 0000000140018df4 f   libvcruntime:undname.obj
 0001:00017f84       ?getVbTableType@UnDecorator@@CA?AVDName@@AEBV2@@Z 0000000140018f84 f i libvcruntime:undname.obj
 0001:00017fa0       ?getVdispMapType@UnDecorator@@CA?AVDName@@AEBV2@@Z 0000000140018fa0 f i libvcruntime:undname.obj
 0001:0001803c       ?getVfTableType@UnDecorator@@CA?AVDName@@AEBV2@@Z 000000014001903c f i libvcruntime:undname.obj
 0001:000182c8       ?getZName@UnDecorator@@CA?AVDName@@_N0@Z 00000001400192c8 f   libvcruntime:undname.obj
 0001:00018654       ?get_current_character_and_increment_buffer@UnDecorator@@CADXZ 0000000140019654 f i libvcruntime:undname.obj
 0001:00018674       ?haveTemplateParameters@UnDecorator@@SAHXZ 0000000140019674 f i libvcruntime:undname.obj
 0001:00018684       ?increment_buffer@UnDecorator@@CA_N_K@Z 0000000140019684 f i libvcruntime:undname.obj
 0001:000186bc       ?increment_buffer_no_check@UnDecorator@@CAXXZ 00000001400196bc f i libvcruntime:undname.obj
 0001:000186c8       ?increment_buffer_no_check@UnDecorator@@CAX_K@Z 00000001400196c8 f i libvcruntime:undname.obj
 0001:000186d4       ?isArray@DName@@QEBAHXZ    00000001400196d4 f i libvcruntime:undname.obj
 0001:000186e0       ?isComArray@DName@@QEBAHXZ 00000001400196e0 f i libvcruntime:undname.obj
 0001:000186ec       ?isEmpty@DName@@QEBAHXZ    00000001400196ec f i libvcruntime:undname.obj
 0001:000186f8       ?isFull@Replicator@@QEBAHXZ 00000001400196f8 f i libvcruntime:undname.obj
 0001:00018704       ?isNoTE@DName@@QEBAHXZ     0000000140019704 f i libvcruntime:undname.obj
 0001:00018710       ?isPinPtr@DName@@QEBAHXZ   0000000140019710 f i libvcruntime:undname.obj
 0001:0001871c       ?isPtrRef@DName@@QEBAHXZ   000000014001971c f i libvcruntime:undname.obj
 0001:00018728       ?isUDC@DName@@QEBAHXZ      0000000140019728 f i libvcruntime:undname.obj
 0001:00018744       ?isUDTThunk@DName@@QEBAHXZ 0000000140019744 f i libvcruntime:undname.obj
 0001:00018760       ?isVCallThunk@DName@@QEBAHXZ 0000000140019760 f i libvcruntime:undname.obj
 0001:0001876c       ?isValid@DName@@QEBAHXZ    000000014001976c f i libvcruntime:undname.obj
 0001:00018778       ?length@DName@@QEBAHXZ     0000000140019778 f i libvcruntime:undname.obj
 0001:00018798       ?length@DNameStatusNode@@UEBAHXZ 0000000140019798 f i libvcruntime:undname.obj
 0001:0001879c       ?length@charNode@@UEBAHXZ  000000014001979c f i libvcruntime:undname.obj
 0001:000187a4       ?length@pDNameNode@@UEBAHXZ 00000001400197a4 f i libvcruntime:undname.obj
 0001:000187d8       ?length@pairNode@@UEBAHXZ  00000001400197d8 f i libvcruntime:undname.obj
 0001:00018830       ?length@pcharNode@@UEBAHXZ 0000000140019830 f i libvcruntime:undname.obj
 0001:00018834       ?make@DNameStatusNode@@SAPEBV1@W4DNameStatus@@@Z 0000000140019834 f i libvcruntime:undname.obj
 0001:0001885c       ?parseDecoratedName@UnDecorator@@CA?AVDName@@XZ 000000014001985c f   libvcruntime:undname.obj
 0001:000189b8       ?raw_length@DNameStatusNode@@UEBAHXZ 00000001400199b8 f i libvcruntime:undname.obj
 0001:000189bc       ?raw_length@charNode@@UEBAHXZ 00000001400199bc f i libvcruntime:undname.obj
 0001:000189c4       ?raw_length@pDNameNode@@UEBAHXZ 00000001400199c4 f i libvcruntime:undname.obj
 0001:000189c8       ?raw_length@pairNode@@UEBAHXZ 00000001400199c8 f i libvcruntime:undname.obj
 0001:000189cc       ?raw_length@pcharNode@@UEBAHXZ 00000001400199cc f i libvcruntime:undname.obj
 0001:000189d0       ?setIsArray@DName@@QEAAXXZ 00000001400199d0 f i libvcruntime:undname.obj
 0001:000189d8       ?setIsComArray@DName@@QEAAXXZ 00000001400199d8 f i libvcruntime:undname.obj
 0001:000189e0       ?setIsNoTE@DName@@QEAAXXZ  00000001400199e0 f i libvcruntime:undname.obj
 0001:000189e8       ?setIsPinPtr@DName@@QEAAXXZ 00000001400199e8 f i libvcruntime:undname.obj
 0001:000189f0       ?setIsUDC@DName@@QEAAXXZ   00000001400199f0 f i libvcruntime:undname.obj
 0001:00018a00       ?setIsVCallThunk@DName@@QEAAXXZ 0000000140019a00 f i libvcruntime:undname.obj
 0001:00018a08       ?setPtrRef@DName@@QEAAAEAV1@XZ 0000000140019a08 f i libvcruntime:undname.obj
 0001:00018a14       ?status@DName@@QEBA?AW4DNameStatus@@XZ 0000000140019a14 f i libvcruntime:undname.obj
 0001:00018a8c       __unDName                  0000000140019a8c f   libvcruntime:undname.obj
 0001:00018abc       __unDNameEx                0000000140019abc f   libvcruntime:undname.obj
 0001:00018c3c       _vsprintf_s_l              0000000140019c3c f i libvcruntime:undname.obj
 0001:00018cb8       snprintf                   0000000140019cb8 f i libvcruntime:undname.obj
 0001:00018d24       sprintf_s                  0000000140019d24 f i libvcruntime:undname.obj
 0001:00018d8c       unDNameGenerateCHPE        0000000140019d8c f   libvcruntime:undname.obj
 0001:00018ed4       vsnprintf                  0000000140019ed4 f i libvcruntime:undname.obj
 0001:00018f50       ??$__crt_interlocked_exchange_pointer@UHINSTANCE__@@PEAU1@@@YAPEAUHINSTANCE__@@PEDSEAU0@QEAU0@@Z 0000000140019f50 f i libvcruntime:winapi_downlevel.obj
 0001:00018f58       ??$__crt_interlocked_exchange_pointer@UHINSTANCE__@@PEAX@@YAPEAUHINSTANCE__@@PEDSEAU0@QEAX@Z 0000000140019f58 f i libvcruntime:winapi_downlevel.obj
 0001:00018f60       ??$__crt_interlocked_exchange_pointer@XPEAX@@YAPEAXPEDSEAXQEAX@Z 0000000140019f60 f i libvcruntime:winapi_downlevel.obj
 0001:00018f68       ??$__crt_interlocked_read_pointer@UHINSTANCE__@@@@YAPEAUHINSTANCE__@@PEDSEAU0@@Z 0000000140019f68 f i libvcruntime:winapi_downlevel.obj
 0001:00018f70       ??$__crt_interlocked_read_pointer@X@@YAPEAXPEDSEAX@Z 0000000140019f70 f i libvcruntime:winapi_downlevel.obj
 0001:000195f8       __vcrt_FlsAlloc            000000014001a5f8 f   libvcruntime:winapi_downlevel.obj
 0001:00019650       __vcrt_FlsFree             000000014001a650 f   libvcruntime:winapi_downlevel.obj
 0001:000196a8       __vcrt_FlsGetValue         000000014001a6a8 f   libvcruntime:winapi_downlevel.obj
 0001:00019700       __vcrt_FlsSetValue         000000014001a700 f   libvcruntime:winapi_downlevel.obj
 0001:00019768       __vcrt_InitializeCriticalSectionEx 000000014001a768 f   libvcruntime:winapi_downlevel.obj
 0001:000197e4       ??$__crt_interlocked_exchange_pointer@$$A6AXXZP6AXXZ@@YAP6AXXZPEDS6AXXZQ6AXXZ@Z 000000014001a7e4 f i libvcruntime:purevirt.obj
 0001:000197ec       ??$__crt_interlocked_read_pointer@$$A6AXXZ@@YAP6AXXZPEDS6AXXZ@Z 000000014001a7ec f i libvcruntime:purevirt.obj
 0001:000197f4       _get_purecall_handler      000000014001a7f4 f   libvcruntime:purevirt.obj
 0001:00019800       _purecall                  000000014001a800 f   libvcruntime:purevirt.obj
 0001:00019820       _set_purecall_handler      000000014001a820 f   libvcruntime:purevirt.obj
 0001:00019830       ??$?0AEAViterator@TryBlockMap4@FH4@@AEAV012@$0A@@?$pair@Viterator@TryBlockMap4@FH4@@V123@@std@@QEAA@AEAViterator@TryBlockMap4@FH4@@0@Z 000000014001a830 f i libvcruntime:risctrnsctrl.obj
 0001:0001984c       ??$?0AEAViterator@TryBlockMap@__FrameHandler3@@AEAV012@$0A@@?$pair@Viterator@TryBlockMap@__FrameHandler3@@V123@@std@@QEAA@AEAViterator@TryBlockMap@__FrameHandler3@@0@Z 000000014001a84c f i libvcruntime:risctrnsctrl.obj
 0001:00019a34       ??$_CallSETranslator@V__FrameHandler3@@@@YAHPEAUEHExceptionRecord@@PEA_KPEAU_CONTEXT@@PEAU_xDISPATCHER_CONTEXT@@PEBU_s_FuncInfo@@K1H@Z 000000014001aa34 f i libvcruntime:risctrnsctrl.obj
 0001:00019a9c       ??$_CallSETranslator@V__FrameHandler4@@@@YAHPEAUEHExceptionRecord@@PEA_KPEAU_CONTEXT@@PEAU_xDISPATCHER_CONTEXT@@PEAUFuncInfo4@FH4@@K1H@Z 000000014001aa9c f i libvcruntime:risctrnsctrl.obj
 0001:00019b04       ??$forward@AEAViterator@TryBlockMap4@FH4@@@std@@YAAEAViterator@TryBlockMap4@FH4@@AEAV123@@Z 000000014001ab04 f i libvcruntime:risctrnsctrl.obj
 0001:00019b08       ??$forward@AEAViterator@TryBlockMap@__FrameHandler3@@@std@@YAAEAViterator@TryBlockMap@__FrameHandler3@@AEAV123@@Z 000000014001ab08 f i libvcruntime:risctrnsctrl.obj
 0001:00019b0c       ??0FuncInfo4@FH4@@QEAA@XZ  000000014001ab0c f i libvcruntime:risctrnsctrl.obj
 0001:00019b24       ??0FuncInfoHeader@FH4@@QEAA@XZ 000000014001ab24 f i libvcruntime:risctrnsctrl.obj
 0001:00019b2c       ??0iterator@TryBlockMap4@FH4@@QEAA@AEAV12@I@Z 000000014001ab2c f i libvcruntime:risctrnsctrl.obj
 0001:00019b3c       ??0iterator@TryBlockMap@__FrameHandler3@@QEAA@AEAV12@I@Z 000000014001ab3c f i libvcruntime:risctrnsctrl.obj
 0001:00019b4c       ??4iterator@TryBlockMap4@FH4@@QEAAAEAV012@AEBV012@@Z 000000014001ab4c f i libvcruntime:risctrnsctrl.obj
 0001:00019b58       ??9iterator@TryBlockMap4@FH4@@QEBA_NAEBV012@@Z 000000014001ab58 f i libvcruntime:risctrnsctrl.obj
 0001:00019b64       ??Diterator@TryBlockMap4@FH4@@QEAA?AUTryBlockMapEntry4@2@XZ 000000014001ab64 f i libvcruntime:risctrnsctrl.obj
 0001:00019b78       ??Eiterator@TryBlockMap4@FH4@@QEAAAEAV012@XZ 000000014001ab78 f i libvcruntime:risctrnsctrl.obj
 0001:00019c3c       ?CatchTryBlock@__FrameHandler3@@SAPEBU_s_TryBlockMapEntry@@PEBU_s_FuncInfo@@H@Z 000000014001ac3c f   libvcruntime:risctrnsctrl.obj
 0001:00019cb8       ?DecompFuncInfo@FH4@@YA_JPEAEAEAUFuncInfo4@1@_KH@Z 000000014001acb8 f i libvcruntime:risctrnsctrl.obj
 0001:00019cd0       ?DecompFuncInfo@FH4@@YA_JPEAEAEAUFuncInfo4@1@_KH_N@Z 000000014001acd0 f i libvcruntime:risctrnsctrl.obj
 0001:00019e3c       ?DecompTryBlock@TryBlockMap4@FH4@@AEAAXXZ 000000014001ae3c f i libvcruntime:risctrnsctrl.obj
 0001:00019ef4       ?ExecutionInCatch@__FrameHandler3@@SA_NPEAU_xDISPATCHER_CONTEXT@@PEBU_s_FuncInfo@@@Z 000000014001aef4 f   libvcruntime:risctrnsctrl.obj
 0001:00019f28       ?ExecutionInCatch@__FrameHandler4@@SA_NPEAU_xDISPATCHER_CONTEXT@@PEAUFuncInfo4@FH4@@@Z 000000014001af28 f   libvcruntime:risctrnsctrl.obj
 0001:00019f30       ?FrameUnwindToEmptyState@__FrameHandler3@@SAXPEA_KPEAU_xDISPATCHER_CONTEXT@@PEBU_s_FuncInfo@@@Z 000000014001af30 f   libvcruntime:risctrnsctrl.obj
 0001:00019fb0       ?FrameUnwindToEmptyState@__FrameHandler4@@SAXPEA_KPEAU_xDISPATCHER_CONTEXT@@PEAUFuncInfo4@FH4@@@Z 000000014001afb0 f   libvcruntime:risctrnsctrl.obj
 0001:00019ff0       ?GetEstablisherFrame@__FrameHandler3@@SAPEA_KPEA_KPEAU_xDISPATCHER_CONTEXT@@PEBU_s_FuncInfo@@0@Z 000000014001aff0 f   libvcruntime:risctrnsctrl.obj
 0001:0001a0f0       ?GetEstablisherFrame@__FrameHandler4@@SAPEA_KPEA_KPEAU_xDISPATCHER_CONTEXT@@PEAUFuncInfo4@FH4@@0@Z 000000014001b0f0 f   libvcruntime:risctrnsctrl.obj
 0001:0001a11c       ?GetRangeOfTrysToCheck@__FrameHandler3@@SA?AU?$pair@Viterator@TryBlockMap@__FrameHandler3@@V123@@std@@AEAVTryBlockMap@1@HPEAU_xDISPATCHER_CONTEXT@@PEBU_s_FuncInfo@@H@Z 000000014001b11c f   libvcruntime:risctrnsctrl.obj
 0001:0001a2ac       ?GetRangeOfTrysToCheck@__FrameHandler4@@SA?AU?$pair@Viterator@TryBlockMap4@FH4@@V123@@std@@AEAVTryBlockMap4@FH4@@HPEAU_xDISPATCHER_CONTEXT@@PEAUFuncInfo4@5@H@Z 000000014001b2ac f   libvcruntime:risctrnsctrl.obj
 0001:0001a470       ?ReadInt@FH4@@YAHPEAPEAE@Z 000000014001b470 f i libvcruntime:risctrnsctrl.obj
 0001:0001a480       ?ReadUnsigned@FH4@@YAIPEAPEAE@Z 000000014001b480 f i libvcruntime:risctrnsctrl.obj
 0001:0001a4bc       ?UnwindNestedFrames@__FrameHandler3@@SAXPEA_KPEAUEHExceptionRecord@@PEAU_CONTEXT@@0PEAXPEBU_s_FuncInfo@@HHPEBU_s_HandlerType@@PEAU_xDISPATCHER_CONTEXT@@E@Z 000000014001b4bc f   libvcruntime:risctrnsctrl.obj
 0001:0001a600       ?UnwindNestedFrames@__FrameHandler4@@SAXPEA_KPEAUEHExceptionRecord@@PEAU_CONTEXT@@0PEAXPEAUFuncInfo4@FH4@@HHPEAUHandlerType4@5@PEAU_xDISPATCHER_CONTEXT@@E@Z 000000014001b600 f   libvcruntime:risctrnsctrl.obj
 0001:0001a768       ?begin@TryBlockMap4@FH4@@QEAA?AViterator@12@XZ 000000014001b768 f i libvcruntime:risctrnsctrl.obj
 0001:0001a778       ?end@TryBlockMap4@FH4@@QEAA?AViterator@12@XZ 000000014001b778 f i libvcruntime:risctrnsctrl.obj
 0001:0001a788       ?imageRelToByteBuffer@FH4@@YAPEAE_KH@Z 000000014001b788 f i libvcruntime:risctrnsctrl.obj
 0001:0001a790       ?incrementToSentinel@iterator@TryBlockMap4@FH4@@QEAAXXZ 000000014001b790 f i libvcruntime:risctrnsctrl.obj
 0001:0001a794       ?setBuffer@TryBlockMap4@FH4@@QEAAXViterator@12@@Z 000000014001b794 f i libvcruntime:risctrnsctrl.obj
 0001:0001a9c8       _CreateFrameInfo           000000014001b9c8 f   libvcruntime:risctrnsctrl.obj
 0001:0001aa10       _FindAndUnlinkFrame        000000014001ba10 f   libvcruntime:risctrnsctrl.obj
 0001:0001aa78       _GetImageBase              000000014001ba78 f   libvcruntime:risctrnsctrl.obj
 0001:0001aa90       _GetThrowImageBase         000000014001ba90 f   libvcruntime:risctrnsctrl.obj
 0001:0001aaa8       _SetImageBase              000000014001baa8 f   libvcruntime:risctrnsctrl.obj
 0001:0001aac8       _SetThrowImageBase         000000014001bac8 f   libvcruntime:risctrnsctrl.obj
 0001:0001aae8       __CxxFrameHandler          000000014001bae8 f   libvcruntime:risctrnsctrl.obj
 0001:0001aaf0       __CxxFrameHandler2         000000014001baf0 f   libvcruntime:risctrnsctrl.obj
 0001:0001aaf8       __CxxFrameHandler3         000000014001baf8 f   libvcruntime:risctrnsctrl.obj
 0001:0001aba0       __CxxFrameHandler4         000000014001bba0 f   libvcruntime:risctrnsctrl.obj
 0001:0001ac90       ?GetCurrentState@__FrameHandler3@@SAHPEA_KPEAU_xDISPATCHER_CONTEXT@@PEBU_s_FuncInfo@@@Z 000000014001bc90 f   libvcruntime:ehstate.obj
 0001:0001acc0       ?GetUnwindTryBlock@__FrameHandler3@@SAHPEA_KPEAU_xDISPATCHER_CONTEXT@@PEBU_s_FuncInfo@@@Z 000000014001bcc0 f   libvcruntime:ehstate.obj
 0001:0001acf4       ?SetState@__FrameHandler3@@SAXPEA_KPEBU_s_FuncInfo@@H@Z 000000014001bcf4 f   libvcruntime:ehstate.obj
 0001:0001ad04       ?SetUnwindTryBlock@__FrameHandler3@@SAXPEA_KPEAU_xDISPATCHER_CONTEXT@@PEBU_s_FuncInfo@@H@Z 000000014001bd04 f   libvcruntime:ehstate.obj
 0001:0001ad50       ?StateFromControlPc@__FrameHandler3@@SAHPEBU_s_FuncInfo@@PEAU_xDISPATCHER_CONTEXT@@@Z 000000014001bd50 f   libvcruntime:ehstate.obj
 0001:0001ad5c       ?StateFromControlPc@__FrameHandler4@@SAHPEAUFuncInfo4@FH4@@PEAU_xDISPATCHER_CONTEXT@@@Z 000000014001bd5c f   libvcruntime:ehstate.obj
 0001:0001ad68       ?StateFromIp@__FrameHandler3@@SAHPEBU_s_FuncInfo@@PEAU_xDISPATCHER_CONTEXT@@_K@Z 000000014001bd68 f   libvcruntime:ehstate.obj
 0001:0001ade8       ?StateFromIp@__FrameHandler4@@SAHPEAUFuncInfo4@FH4@@PEAU_xDISPATCHER_CONTEXT@@_K@Z 000000014001bde8 f   libvcruntime:ehstate.obj
 0001:0001af10       ?__FuncRelToRealOffset@@YA_KPEAU_xDISPATCHER_CONTEXT@@I@Z 000000014001bf10 f i libvcruntime:ehstate.obj
 0001:0001af24       ?__RVAtoRealOffset@@YA_KPEAU_xDISPATCHER_CONTEXT@@H@Z 000000014001bf24 f i libvcruntime:ehstate.obj
 0001:0001cac0       ??$TypeMatchHelper@V__FrameHandler3@@@@YAHPEBU_s_HandlerType@@PEBU_s_CatchableType@@PEBU_s_ThrowInfo@@@Z 000000014001dac0 f i libvcruntime:frame.obj
 0001:0001cc4c       ??$TypeMatchHelper@V__FrameHandler4@@@@YAHPEAUHandlerType4@FH4@@PEBU_s_CatchableType@@PEBU_s_ThrowInfo@@@Z 000000014001dc4c f i libvcruntime:frame.obj
 0001:0001cde0       ??$__InternalCxxFrameHandler@V__FrameHandler3@@@@YA?AW4_EXCEPTION_DISPOSITION@@PEAUEHExceptionRecord@@PEA_KPEAU_CONTEXT@@PEAU_xDISPATCHER_CONTEXT@@PEBU_s_FuncInfo@@H1E@Z 000000014001dde0 f i libvcruntime:frame.obj
 0001:0001d0a4       ??$__InternalCxxFrameHandler@V__FrameHandler4@@@@YA?AW4_EXCEPTION_DISPOSITION@@PEAUEHExceptionRecord@@PEA_KPEAU_CONTEXT@@PEAU_xDISPATCHER_CONTEXT@@PEAUFuncInfo4@FH4@@H1E@Z 000000014001e0a4 f i libvcruntime:frame.obj
 0001:0001d3e0       ??$__InternalCxxFrameHandlerWrapper@V__FrameHandler3@@@@YA?AW4_EXCEPTION_DISPOSITION@@PEAUEHExceptionRecord@@PEA_KPEAU_CONTEXT@@PEAU_xDISPATCHER_CONTEXT@@PEBU_s_FuncInfo@@H1E@Z 000000014001e3e0 f i libvcruntime:frame.obj
 0001:0001d3e8       ??$__InternalCxxFrameHandlerWrapper@V__FrameHandler4@@@@YA?AW4_EXCEPTION_DISPOSITION@@PEAUEHExceptionRecord@@PEA_KPEAU_CONTEXT@@PEAU_xDISPATCHER_CONTEXT@@PEAUFuncInfo4@FH4@@H1E@Z 000000014001e3e8 f i libvcruntime:frame.obj
 0001:0001d45c       ??0HandlerMap4@FH4@@QEAA@PEBUTryBlockMapEntry4@1@_KH@Z 000000014001e45c f i libvcruntime:frame.obj
 0001:0001d4f4       ??0HandlerMap@__FrameHandler3@@QEAA@PEBU_s_TryBlockMapEntry@@_KI@Z 000000014001e4f4 f i libvcruntime:frame.obj
 0001:0001d510       ??0HandlerType4@FH4@@QEAA@XZ 000000014001e510 f i libvcruntime:frame.obj
 0001:0001d52c       ??0TryBlockMap4@FH4@@QEAA@PEBUFuncInfo4@1@_K@Z 000000014001e52c f i libvcruntime:frame.obj
 0001:0001d638       ??0TryBlockMap@__FrameHandler3@@QEAA@PEBU_s_FuncInfo@@_K@Z 000000014001e638 f i libvcruntime:frame.obj
 0001:0001d648       ??0UWMap4@FH4@@QEAA@PEBUFuncInfo4@1@_K@Z 000000014001e648 f i libvcruntime:frame.obj
 0001:0001d69c       ??0bad_exception@std@@QEAA@AEBV01@@Z 000000014001e69c f i libvcruntime:frame.obj
 0001:0001d6e8       ??0bad_exception@std@@QEAA@XZ 000000014001e6e8 f i libvcruntime:frame.obj
 0001:0001d710       ??0exception@std@@QEAA@AEBV01@@Z 000000014001e710 f i libvcruntime:frame.obj
 0001:0001d750       ??0exception@std@@QEAA@QEBDH@Z 000000014001e750 f i libvcruntime:frame.obj
 0001:0001d76c       ??0iterator@HandlerMap4@FH4@@QEAA@AEAV12@I@Z 000000014001e76c f i libvcruntime:frame.obj
 0001:0001d77c       ??0iterator@HandlerMap@__FrameHandler3@@QEAA@AEAV12@I@Z 000000014001e77c f i libvcruntime:frame.obj
 0001:0001d78c       ??0iterator@UWMap4@FH4@@QEAA@AEAV12@PEAE@Z 000000014001e78c f i libvcruntime:frame.obj
 0001:0001d79c       ??1bad_exception@std@@UEAA@XZ 000000014001e79c f i libvcruntime:frame.obj
 0001:0001d7b4       ??1exception@std@@UEAA@XZ  000000014001e7b4 f i libvcruntime:frame.obj
 0001:0001d7cc       ??4iterator@UWMap4@FH4@@QEAAAEAV012@AEBV012@@Z 000000014001e7cc f i libvcruntime:frame.obj
 0001:0001d7f4       ??8iterator@HandlerMap4@FH4@@QEBA_NAEBV012@@Z 000000014001e7f4 f i libvcruntime:frame.obj
 0001:0001d800       ??8iterator@HandlerMap@__FrameHandler3@@QEBA_NAEBV012@@Z 000000014001e800 f i libvcruntime:frame.obj
 0001:0001d80c       ??8type_info@@QEBA_NAEBV0@@Z 000000014001e80c f i libvcruntime:frame.obj
 0001:0001d830       ??9iterator@HandlerMap4@FH4@@QEBA_NAEBV012@@Z 000000014001e830 f i libvcruntime:frame.obj
 0001:0001d83c       ??9iterator@HandlerMap@__FrameHandler3@@QEBA_NAEBV012@@Z 000000014001e83c f i libvcruntime:frame.obj
 0001:0001d848       ??Diterator@HandlerMap4@FH4@@QEAA?AUHandlerType4@2@XZ 000000014001e848 f i libvcruntime:frame.obj
 0001:0001d870       ??Diterator@HandlerMap@__FrameHandler3@@QEAA?BU_s_HandlerType@@XZ 000000014001e870 f i libvcruntime:frame.obj
 0001:0001d89c       ??Diterator@TryBlockMap@__FrameHandler3@@QEAA?BU_s_TryBlockMapEntry@@XZ 000000014001e89c f i libvcruntime:frame.obj
 0001:0001d8d4       ??Diterator@UWMap4@FH4@@QEAA?AUUnwindMapEntry4@2@XZ 000000014001e8d4 f i libvcruntime:frame.obj
 0001:0001d93c       ??Eiterator@HandlerMap4@FH4@@QEAAAEAV012@XZ 000000014001e93c f i libvcruntime:frame.obj
 0001:0001d960       ??Eiterator@HandlerMap@__FrameHandler3@@QEAAAEAV012@XZ 000000014001e960 f i libvcruntime:frame.obj
 0001:0001d968       ??Eiterator@TryBlockMap@__FrameHandler3@@QEAAAEAV012@XZ 000000014001e968 f i libvcruntime:frame.obj
 0001:0001d970       ??Eiterator@UWMap4@FH4@@QEAAAEAV012@XZ 000000014001e970 f i libvcruntime:frame.obj
 0001:0001d998       ??Giterator@UWMap4@FH4@@QEBA_JAEBV012@@Z 000000014001e998 f i libvcruntime:frame.obj
 0001:0001d9a4       ??Miterator@TryBlockMap4@FH4@@QEBA_NAEBV012@@Z 000000014001e9a4 f i libvcruntime:frame.obj
 0001:0001d9b0       ??Miterator@TryBlockMap@__FrameHandler3@@QEBA_NAEBV012@@Z 000000014001e9b0 f i libvcruntime:frame.obj
 0001:0001d9bc       ??Oiterator@UWMap4@FH4@@QEBA_NAEBV012@@Z 000000014001e9bc f i libvcruntime:frame.obj
 0001:0001d9cc       ??Piterator@UWMap4@FH4@@QEBA_NAEBV012@@Z 000000014001e9cc f i libvcruntime:frame.obj
 0001:0001d9dc       ??_Ebad_exception@std@@UEAAPEAXI@Z 000000014001e9dc f i libvcruntime:frame.obj
 0001:0001d9dc       ??_Gbad_exception@std@@UEAAPEAXI@Z 000000014001e9dc f i libvcruntime:frame.obj
 0001:0001da30       ??_Eexception@std@@UEAAPEAXI@Z 000000014001ea30 f i libvcruntime:frame.obj
 0001:0001da30       ??_Gexception@std@@UEAAPEAXI@Z 000000014001ea30 f i libvcruntime:frame.obj
 0001:0001da84       ?BuildCatchObject@__FrameHandler3@@SAXPEAUEHExceptionRecord@@PEAXPEBU_s_HandlerType@@PEBU_s_CatchableType@@@Z 000000014001ea84 f   libvcruntime:frame.obj
 0001:0001da8c       ?BuildCatchObject@__FrameHandler4@@SAXPEAUEHExceptionRecord@@PEAXPEAUHandlerType4@FH4@@PEBU_s_CatchableType@@@Z 000000014001ea8c f   libvcruntime:frame.obj
 0001:0001da94       ?BuildCatchObjectHelper@__FrameHandler3@@SAHPEAUEHExceptionRecord@@PEAXPEBU_s_HandlerType@@PEBU_s_CatchableType@@@Z 000000014001ea94 f   libvcruntime:frame.obj
 0001:0001da9c       ?BuildCatchObjectHelper@__FrameHandler4@@SAHPEAUEHExceptionRecord@@PEAXPEAUHandlerType4@FH4@@PEBU_s_CatchableType@@@Z 000000014001ea9c f   libvcruntime:frame.obj
 0001:0001daa4       ?CxxCallCatchBlock@__FrameHandler3@@SAPEAXPEAU_EXCEPTION_RECORD@@@Z 000000014001eaa4 f   libvcruntime:frame.obj
 0001:0001dd08       ?CxxCallCatchBlock@__FrameHandler4@@SAPEAXPEAU_EXCEPTION_RECORD@@@Z 000000014001ed08 f   libvcruntime:frame.obj
 0001:0001dfec       ?DecompHandler@HandlerMap4@FH4@@AEAAXXZ 000000014001efec f i libvcruntime:frame.obj
 0001:0001e2cc       ?FrameUnwindToState@__FrameHandler3@@SAXPEA_KPEAU_xDISPATCHER_CONTEXT@@PEBU_s_FuncInfo@@H@Z 000000014001f2cc f   libvcruntime:frame.obj
 0001:0001e4b8       ?FrameUnwindToState@__FrameHandler4@@SAXPEA_KPEAU_xDISPATCHER_CONTEXT@@PEAUFuncInfo4@FH4@@H@Z 000000014001f4b8 f   libvcruntime:frame.obj
 0001:0001e870       ?GetHandlerSearchState@__FrameHandler3@@SAHPEA_KPEAU_xDISPATCHER_CONTEXT@@PEBU_s_FuncInfo@@@Z 000000014001f870 f i libvcruntime:frame.obj
 0001:0001e92c       ?GetHandlerSearchState@__FrameHandler4@@SAHPEA_KPEAU_xDISPATCHER_CONTEXT@@PEAUFuncInfo4@FH4@@@Z 000000014001f92c f i libvcruntime:frame.obj
 0001:0001e9a8       ?GetMaxState@__FrameHandler3@@SAHPEAU_xDISPATCHER_CONTEXT@@PEBU_s_FuncInfo@@@Z 000000014001f9a8 f i libvcruntime:frame.obj
 0001:0001e9ac       ?GetMaxState@__FrameHandler4@@SAHPEAU_xDISPATCHER_CONTEXT@@PEAUFuncInfo4@FH4@@@Z 000000014001f9ac f i libvcruntime:frame.obj
 0001:0001ebc8       ?ReadEntry@UWMap4@FH4@@AEAAXPEAPEAE@Z 000000014001fbc8 f i libvcruntime:frame.obj
 0001:0001ec8c       ?TypeMatch@__FrameHandler3@@SAHPEBU_s_HandlerType@@PEBU_s_CatchableType@@PEBU_s_ThrowInfo@@@Z 000000014001fc8c f   libvcruntime:frame.obj
 0001:0001ec94       ?TypeMatch@__FrameHandler4@@SAHPEAUHandlerType4@FH4@@PEBU_s_CatchableType@@PEBU_s_ThrowInfo@@@Z 000000014001fc94 f   libvcruntime:frame.obj
 0001:0001ec9c       ?WalkBack@UWMap4@FH4@@AEAAXPEAPEAE@Z 000000014001fc9c f i libvcruntime:frame.obj
 0001:0001ece0       ?WalkBack@iterator@UWMap4@FH4@@QEAAXXZ 000000014001fce0 f i libvcruntime:frame.obj
 0001:0001ed2c       ?WalkForward@UWMap4@FH4@@AEAAXPEAPEAE@Z 000000014001fd2c f i libvcruntime:frame.obj
 0001:0001ed34       ?_CallMemberFunction1@@YAXQEAX00@Z 000000014001fd34 f i libvcruntime:frame.obj
 0001:0001ed40       ?_CallMemberFunction2@@YAXQEAX00H@Z 000000014001fd40 f i libvcruntime:frame.obj
 0001:0001ed70       ?begin@HandlerMap4@FH4@@QEAA?AViterator@12@XZ 000000014001fd70 f i libvcruntime:frame.obj
 0001:0001ed80       ?begin@HandlerMap@__FrameHandler3@@QEAA?AViterator@12@XZ 000000014001fd80 f i libvcruntime:frame.obj
 0001:0001ed90       ?begin@UWMap4@FH4@@QEAA?AViterator@12@XZ 000000014001fd90 f i libvcruntime:frame.obj
 0001:0001eda4       ?end@HandlerMap4@FH4@@QEAA?AViterator@12@XZ 000000014001fda4 f i libvcruntime:frame.obj
 0001:0001edb4       ?end@HandlerMap@__FrameHandler3@@QEAA?AViterator@12@XZ 000000014001fdb4 f i libvcruntime:frame.obj
 0001:0001edc4       ?getESTypes@__FrameHandler3@@SAPEBU_s_ESTypeList@@PEBU_s_FuncInfo@@@Z 000000014001fdc4 f i libvcruntime:frame.obj
 0001:0001edf8       ?getESTypes@__FrameHandler4@@SAPEBU_s_ESTypeList@@PEAUFuncInfo4@FH4@@@Z 000000014001fdf8 f i libvcruntime:frame.obj
 0001:0001edfc       ?getLastEntry@HandlerMap4@FH4@@QEAAPEAUHandlerType4@2@XZ 000000014001fdfc f i libvcruntime:frame.obj
 0001:0001ee60       ?getLastEntry@HandlerMap@__FrameHandler3@@QEAAPEBU_s_HandlerType@@XZ 000000014001fe60 f i libvcruntime:frame.obj
 0001:0001ee78       ?getMagicNum@__FrameHandler3@@SAIPEBU_s_FuncInfo@@@Z 000000014001fe78 f i libvcruntime:frame.obj
 0001:0001ee84       ?getMagicNum@__FrameHandler4@@SAIPEAUFuncInfo4@FH4@@@Z 000000014001fe84 f i libvcruntime:frame.obj
 0001:0001ee8c       ?getNumTryBlocks@TryBlockMap4@FH4@@QEAAIXZ 000000014001fe8c f i libvcruntime:frame.obj
 0001:0001ee90       ?getNumTryBlocks@TryBlockMap@__FrameHandler3@@QEAAIXZ 000000014001fe90 f i libvcruntime:frame.obj
 0001:0001ee98       ?getStartStop@UWMap4@FH4@@QEAAXHHAEAViterator@12@0@Z 000000014001fe98 f i libvcruntime:frame.obj
 0001:0001ef9c       ?getStateFromIterators@UWMap4@FH4@@SAHAEBViterator@12@H0H0@Z 000000014001ff9c f i libvcruntime:frame.obj
 0001:0001f078       ?isEHs@__FrameHandler3@@SA_NPEBU_s_FuncInfo@@@Z 0000000140020078 f i libvcruntime:frame.obj
 0001:0001f080       ?isEHs@__FrameHandler4@@SA_NPEAUFuncInfo4@FH4@@@Z 0000000140020080 f i libvcruntime:frame.obj
 0001:0001f08c       ?isNoExcept@__FrameHandler3@@SA_NPEBU_s_FuncInfo@@@Z 000000014002008c f i libvcruntime:frame.obj
 0001:0001f098       ?isNoExcept@__FrameHandler4@@SA_NPEAUFuncInfo4@FH4@@@Z 0000000140020098 f i libvcruntime:frame.obj
 0001:0001f0a4       ?reset@HandlerType4@FH4@@QEAAXXZ 00000001400200a4 f i libvcruntime:frame.obj
 0001:0001f0c0       ?resetBuffer@HandlerMap4@FH4@@QEAAXXZ 00000001400200c0 f i libvcruntime:frame.obj
 0001:0001f0d0       ?setBuffer@HandlerMap4@FH4@@QEAAXI@Z 00000001400200d0 f i libvcruntime:frame.obj
 0001:0001f118       ?what@exception@std@@UEBAPEBDXZ 0000000140020118 f i libvcruntime:frame.obj
 0001:0001f130       __BuildCatchObject         0000000140020130 f   libvcruntime:frame.obj
 0001:0001f138       __BuildCatchObjectHelper   0000000140020138 f   libvcruntime:frame.obj
 0001:0001f140       __TypeMatch                0000000140020140 f   libvcruntime:frame.obj
 0001:0001f148       __vcrt_EncodePointer       0000000140020148 f i libvcruntime:frame.obj
 0001:0001f160       _CallSettingFrame          0000000140020160 f   libvcruntime:handlers.obj
 0001:0001f1b0       _CallSettingFrame_LookupContinuationIndex 00000001400201b0 f   libvcruntime:handlers.obj
 0001:0001f1e0       _CallSettingFrame_NotifyContinuationAddr 00000001400201e0 f   libvcruntime:handlers.obj
 0001:0001f210       _CallSettingFrameEncoded   0000000140020210 f   libvcruntime:handlers.obj
 0001:0001f298       ??$?RD@__crt_public_free_policy@@QEBAXQEBD@Z 0000000140020298 f i libvcruntime:std_exception.obj
 0001:0001f2a4       ??0?$__crt_unique_heap_ptr@DU__crt_public_free_policy@@@@QEAA@QEAD@Z 00000001400202a4 f i libvcruntime:std_exception.obj
 0001:0001f2ac       ??1?$__crt_unique_heap_ptr@DU__crt_public_free_policy@@@@QEAA@XZ 00000001400202ac f i libvcruntime:std_exception.obj
 0001:0001f2d0       ??B?$__crt_unique_heap_ptr@DU__crt_public_free_policy@@@@QEBA_NXZ 00000001400202d0 f i libvcruntime:std_exception.obj
 0001:0001f2dc       ?detach@?$__crt_unique_heap_ptr@DU__crt_public_free_policy@@@@QEAAPEADXZ 00000001400202dc f i libvcruntime:std_exception.obj
 0001:0001f2e8       ?get@?$__crt_unique_heap_ptr@DU__crt_public_free_policy@@@@QEBAPEADXZ 00000001400202e8 f i libvcruntime:std_exception.obj
 0001:0001f2ec       ?is_valid@?$__crt_unique_heap_ptr@DU__crt_public_free_policy@@@@QEBA_NXZ 00000001400202ec f i libvcruntime:std_exception.obj
 0001:0001f2f8       ?release@?$__crt_unique_heap_ptr@DU__crt_public_free_policy@@@@QEAAXXZ 00000001400202f8 f i libvcruntime:std_exception.obj
 0001:0001f31c       __std_exception_copy       000000014002031c f   libvcruntime:std_exception.obj
 0001:0001f3cc       __std_exception_destroy    00000001400203cc f   libvcruntime:std_exception.obj
 0001:0001f3fc       _CxxThrowException         00000001400203fc f   libvcruntime:throw.obj
 0001:0001f4c4       _local_unwind              00000001400204c4 f   libvcruntime:jmpuwind.obj
 0001:0001f4f8       free                       00000001400204f8 f   libucrt:free.obj
 0001:0001f510       malloc                     0000000140020510 f   libucrt:malloc.obj
 0001:0001f518       ??$is_overflow_condition@K@__crt_strtox@@YA_NIK@Z 0000000140020518 f i libucrt:atox.obj
 0001:0001f548       ??$is_overflow_condition@_K@__crt_strtox@@YA_NI_K@Z 0000000140020548 f i libucrt:atox.obj
 0001:0001f584       ??$make_c_string_character_source@D$$T@__crt_strtox@@YA?AV?$c_string_character_source@D@0@QEBD$$T@Z 0000000140020584 f i libucrt:atox.obj
 0001:0001f59c       ??$make_c_string_character_source@_W$$T@__crt_strtox@@YA?AV?$c_string_character_source@_W@0@QEB_W$$T@Z 000000014002059c f i libucrt:atox.obj
 0001:0001f5b4       ??$parse_integer@KV?$c_string_character_source@D@__crt_strtox@@$00@__crt_strtox@@YAKAEAV__crt_cached_ptd_host@@V?$c_string_character_source@D@0@H_N@Z 00000001400205b4 f i libucrt:atox.obj
 0001:0001f94c       ??$parse_integer@KV?$c_string_character_source@_W@__crt_strtox@@$00@__crt_strtox@@YAKAEAV__crt_cached_ptd_host@@V?$c_string_character_source@_W@0@H_N@Z 000000014002094c f i libucrt:atox.obj
 0001:000202b4       ??$parse_integer@_KV?$c_string_character_source@D@__crt_strtox@@$00@__crt_strtox@@YA_KAEAV__crt_cached_ptd_host@@V?$c_string_character_source@D@0@H_N@Z 00000001400212b4 f i libucrt:atox.obj
 0001:00020648       ??$parse_integer@_KV?$c_string_character_source@_W@__crt_strtox@@$00@__crt_strtox@@YA_KAEAV__crt_cached_ptd_host@@V?$c_string_character_source@_W@0@H_N@Z 0000000140021648 f i libucrt:atox.obj
 0001:00020f9c       ??$parse_integer_from_string@JD$$T@__crt_strtox@@YAJQEBD$$THQEAU__crt_locale_pointers@@@Z 0000000140021f9c f i libucrt:atox.obj
 0001:00021088       ??$parse_integer_from_string@J_W$$T@__crt_strtox@@YAJQEB_W$$THQEAU__crt_locale_pointers@@@Z 0000000140022088 f i libucrt:atox.obj
 0001:00021174       ??$parse_integer_from_string@_JD$$T@__crt_strtox@@YA_JQEBD$$THQEAU__crt_locale_pointers@@@Z 0000000140022174 f i libucrt:atox.obj
 0001:00021264       ??$parse_integer_from_string@_J_W$$T@__crt_strtox@@YA_JQEB_W$$THQEAU__crt_locale_pointers@@@Z 0000000140022264 f i libucrt:atox.obj
 0001:00021354       ??0?$c_string_character_source@D@__crt_strtox@@QEAA@QEBDQEAPEBD@Z 0000000140022354 f i libucrt:atox.obj
 0001:0002136c       ??0?$c_string_character_source@_W@__crt_strtox@@QEAA@QEB_WQEAPEB_W@Z 000000014002236c f i libucrt:atox.obj
 0001:00021384       ??0?$cached@H@__crt_cached_ptd_host@@QEAA@XZ 0000000140022384 f i libucrt:atox.obj
 0001:00021390       ??0?$cached@K@__crt_cached_ptd_host@@QEAA@XZ 0000000140022390 f i libucrt:atox.obj
 0001:000213a0       ??0__crt_cached_ptd_host@@QEAA@QEAU__crt_locale_pointers@@@Z 00000001400223a0 f i libucrt:atox.obj
 0001:000213f8       ??0__crt_scoped_get_last_error_reset@@QEAA@XZ 00000001400223f8 f i libucrt:atox.obj
 0001:00021418       ??1?$c_string_character_source@D@__crt_strtox@@QEAA@XZ 0000000140022418 f i libucrt:atox.obj
 0001:0002142c       ??1?$c_string_character_source@_W@__crt_strtox@@QEAA@XZ 000000014002242c f i libucrt:atox.obj
 0001:00021440       ??1__crt_cached_ptd_host@@QEAA@XZ 0000000140022440 f i libucrt:atox.obj
 0001:000214a4       ??1__crt_scoped_get_last_error_reset@@QEAA@XZ 00000001400224a4 f i libucrt:atox.obj
 0001:000214b0       ?check_synchronize_global_state_index@__crt_cached_ptd_host@@AEAA_KAEBV__crt_scoped_get_last_error_reset@@@Z 00000001400224b0 f i libucrt:atox.obj
 0001:000214d0       ?check_synchronize_per_thread_data@__crt_cached_ptd_host@@AEAAPEAU__acrt_ptd@@XZ 00000001400224d0 f i libucrt:atox.obj
 0001:00021550       ?force_synchronize_global_state_index@__crt_cached_ptd_host@@AEAA_KAEBV__crt_scoped_get_last_error_reset@@@Z 0000000140022550 f i libucrt:atox.obj
 0001:00021570       ?force_synchronize_per_thread_data@__crt_cached_ptd_host@@AEAAPEAU__acrt_ptd@@XZ 0000000140022570 f i libucrt:atox.obj
 0001:000215dc       ?get@?$c_string_character_source@D@__crt_strtox@@QEAADXZ 00000001400225dc f i libucrt:atox.obj
 0001:000215ec       ?get@?$c_string_character_source@_W@__crt_strtox@@QEAA_WXZ 00000001400225ec f i libucrt:atox.obj
 0001:00021600       ?get_current_state_index@__crt_state_management@@YA_KAEBV__crt_scoped_get_last_error_reset@@@Z 0000000140022600 f i libucrt:atox.obj
 0001:00021610       ?get_errno@__crt_cached_ptd_host@@QEAAAEAU?$cached@H@1@XZ 0000000140022610 f i libucrt:atox.obj
 0001:00021620       ?get_locale@__crt_cached_ptd_host@@QEAAPEAU__crt_locale_pointers@@XZ 0000000140022620 f i libucrt:atox.obj
 0001:00021660       ?get_raw_ptd@__crt_cached_ptd_host@@QEAAPEAU__acrt_ptd@@XZ 0000000140022660 f i libucrt:atox.obj
 0001:000216e0       ?is_space@__crt_strtox@@YA_NDQEAU__crt_locale_pointers@@@Z 00000001400226e0 f i libucrt:atox.obj
 0001:00021708       ?is_space@__crt_strtox@@YA_N_WPEAU__crt_locale_pointers@@@Z 0000000140022708 f i libucrt:atox.obj
 0001:00021728       ?maximum_signed_value@__crt_strtox@@YAJK@Z 0000000140022728 f i libucrt:atox.obj
 0001:00021730       ?maximum_signed_value@__crt_strtox@@YA_J_K@Z 0000000140022730 f i libucrt:atox.obj
 0001:00021740       ?minimum_signed_value@__crt_strtox@@YAJK@Z 0000000140022740 f i libucrt:atox.obj
 0001:00021748       ?minimum_signed_value@__crt_strtox@@YA_J_K@Z 0000000140022748 f i libucrt:atox.obj
 0001:00021758       ?parse_digit@__crt_strtox@@YAID@Z 0000000140022758 f i libucrt:atox.obj
 0001:00021794       ?parse_digit@__crt_strtox@@YAI_W@Z 0000000140022794 f i libucrt:atox.obj
 0001:000219bc       ?restore_state@?$c_string_character_source@D@__crt_strtox@@QEAA_NQEBD@Z 00000001400229bc f i libucrt:atox.obj
 0001:000219c4       ?restore_state@?$c_string_character_source@_W@__crt_strtox@@QEAA_NQEB_W@Z 00000001400229c4 f i libucrt:atox.obj
 0001:000219cc       ?save_state@?$c_string_character_source@D@__crt_strtox@@QEBAPEBDXZ 00000001400229cc f i libucrt:atox.obj
 0001:000219d0       ?save_state@?$c_string_character_source@_W@__crt_strtox@@QEBAPEB_WXZ 00000001400229d0 f i libucrt:atox.obj
 0001:000219d4       ?set@?$cached@H@__crt_cached_ptd_host@@QEAAHH@Z 00000001400229d4 f i libucrt:atox.obj
 0001:000219e0       ?unget@?$c_string_character_source@D@__crt_strtox@@QEAAXD@Z 00000001400229e0 f i libucrt:atox.obj
 0001:00021a14       ?unget@?$c_string_character_source@_W@__crt_strtox@@QEAAX_W@Z 0000000140022a14 f i libucrt:atox.obj
 0001:00021a4c       ?unsafe_value@?$cached@H@__crt_cached_ptd_host@@QEAAHXZ 0000000140022a4c f i libucrt:atox.obj
 0001:00021a50       ?unsafe_value@?$cached@K@__crt_cached_ptd_host@@QEAAKXZ 0000000140022a50 f i libucrt:atox.obj
 0001:00021a60       ?update_locale@__crt_cached_ptd_host@@AEAAXXZ 0000000140022a60 f i libucrt:atox.obj
 0001:00021a70       ?update_locale_slow@__crt_cached_ptd_host@@AEAAXXZ 0000000140022a70 f i libucrt:atox.obj
 0001:00021b04       ?valid@?$cached@H@__crt_cached_ptd_host@@QEBA_NXZ 0000000140022b04 f i libucrt:atox.obj
 0001:00021b08       ?valid@?$cached@K@__crt_cached_ptd_host@@QEBA_NXZ 0000000140022b08 f i libucrt:atox.obj
 0001:00021b0c       ?validate@?$c_string_character_source@D@__crt_strtox@@QEBA_NXZ 0000000140022b0c f i libucrt:atox.obj
 0001:00021b3c       ?validate@?$c_string_character_source@_W@__crt_strtox@@QEBA_NXZ 0000000140022b3c f i libucrt:atox.obj
 0001:00021b6c       ?wide_character_to_digit@__crt_strtox@@YAH_W@Z 0000000140022b6c f i libucrt:atox.obj
 0001:00021d74       __acrt_disable_global_locale_sync 0000000140022d74 f i libucrt:atox.obj
 0001:00021d7c       __acrt_enable_global_locale_sync 0000000140022d7c f i libucrt:atox.obj
 0001:00021d88       __acrt_get_locale_data_prefix 0000000140022d88 f i libucrt:atox.obj
 0001:00021d8c       __acrt_locale_changed      0000000140022d8c f i libucrt:atox.obj
 0001:00021d9c       __acrt_locale_get_ctype_array_value 0000000140022d9c f i libucrt:atox.obj
 0001:00021dbc       __ascii_iswalpha           0000000140022dbc f i libucrt:atox.obj
 0001:00021ddc       __ascii_toupper            0000000140022ddc f i libucrt:atox.obj
 0001:00021df0       __ascii_towupper           0000000140022df0 f i libucrt:atox.obj
 0001:00021e00       _atoi64                    0000000140022e00 f   libucrt:atox.obj
 0001:00021ee0       _atoi64_l                  0000000140022ee0 f   libucrt:atox.obj
 0001:00021fcc       _atoi_l                    0000000140022fcc f   libucrt:atox.obj
 0001:000220b4       _atol_l                    00000001400230b4 f   libucrt:atox.obj
 0001:0002219c       _atoll_l                   000000014002319c f   libucrt:atox.obj
 0001:00022288       _chvalidchk_l              0000000140023288 f i libucrt:atox.obj
 0001:00022304       _ischartype_l              0000000140023304 f i libucrt:atox.obj
 0001:00022398       _wtoi                      0000000140023398 f   libucrt:atox.obj
 0001:00022474       _wtoi64                    0000000140023474 f   libucrt:atox.obj
 0001:00022554       _wtoi64_l                  0000000140023554 f   libucrt:atox.obj
 0001:00022640       _wtoi_l                    0000000140023640 f   libucrt:atox.obj
 0001:00022728       _wtol                      0000000140023728 f   libucrt:atox.obj
 0001:00022804       _wtol_l                    0000000140023804 f   libucrt:atox.obj
 0001:000228ec       _wtoll                     00000001400238ec f   libucrt:atox.obj
 0001:000229cc       _wtoll_l                   00000001400239cc f   libucrt:atox.obj
 0001:00022ab8       atoi                       0000000140023ab8 f   libucrt:atox.obj
 0001:00022b94       atol                       0000000140023b94 f   libucrt:atox.obj
 0001:00022c70       atoll                      0000000140023c70 f   libucrt:atox.obj
 0001:00022d50       ??$__crt_interlocked_read@J@@YAJPEDJ@Z 0000000140023d50 f i libucrt:assert.obj
 0001:00023e38       ??$ftprintf@PEAU_iobuf@@PEBDAEBQEBDAEBQEBDAEBI@?$__crt_char_traits@D@@SAH$$QEAPEAU_iobuf@@$$QEAPEBDAEBQEBD2AEBI@Z 0000000140024e38 f i libucrt:assert.obj
 0001:00023e60       ??$ftprintf@PEAU_iobuf@@PEB_WAEBQEB_WAEBQEB_WAEBI@?$__crt_char_traits@_W@@SAH$$QEAPEAU_iobuf@@$$QEAPEB_WAEBQEB_W2AEBI@Z 0000000140024e60 f i libucrt:assert.obj
 0001:00023e88       ??$get_module_file_name@AEAPEAUHINSTANCE__@@AEAY0BAF@DK@?$__crt_char_traits@D@@SAKAEAPEAUHINSTANCE__@@AEAY0BAF@D$$QEAK@Z 0000000140024e88 f i libucrt:assert.obj
 0001:00023e98       ??$get_module_file_name@AEAPEAUHINSTANCE__@@AEAY0BAF@_WK@?$__crt_char_traits@_W@@SAKAEAPEAUHINSTANCE__@@AEAY0BAF@_W$$QEAK@Z 0000000140024e98 f i libucrt:assert.obj
 0001:00023ea8       ??$itot_s@AEBIPEAD_KH@?$__crt_char_traits@D@@SAHAEBI$$QEAPEAD$$QEA_K$$QEAH@Z 0000000140024ea8 f i libucrt:assert.obj
 0001:00023ebc       ??$itot_s@AEBIPEA_W_KH@?$__crt_char_traits@_W@@SAHAEBI$$QEAPEA_W$$QEA_K$$QEAH@Z 0000000140024ebc f i libucrt:assert.obj
 0001:00023ed0       ??$show_message_box@AEAY0CEA@DPEBDJ@?$__crt_char_traits@D@@SAHAEAY0CEA@D$$QEAPEBD$$QEAJ@Z 0000000140024ed0 f i libucrt:assert.obj
 0001:00023ee0       ??$show_message_box@AEAY0CEA@_WPEB_WJ@?$__crt_char_traits@_W@@SAHAEAY0CEA@_W$$QEAPEB_W$$QEAJ@Z 0000000140024ee0 f i libucrt:assert.obj
 0001:00023ef0       ??$tcscat_s@AEBQEADAEB_KAEAPEAD@?$__crt_char_traits@D@@SAHAEBQEADAEB_KAEAPEAD@Z 0000000140024ef0 f i libucrt:assert.obj
 0001:00023f04       ??$tcscat_s@AEBQEADAEB_KAEBQEBD@?$__crt_char_traits@D@@SAHAEBQEADAEB_KAEBQEBD@Z 0000000140024f04 f i libucrt:assert.obj
 0001:00023f18       ??$tcscat_s@AEBQEADAEB_KPEBD@?$__crt_char_traits@D@@SAHAEBQEADAEB_K$$QEAPEBD@Z 0000000140024f18 f i libucrt:assert.obj
 0001:00023f2c       ??$tcscat_s@AEBQEA_WAEB_KAEAPEA_W@?$__crt_char_traits@_W@@SAHAEBQEA_WAEB_KAEAPEA_W@Z 0000000140024f2c f i libucrt:assert.obj
 0001:00023f40       ??$tcscat_s@AEBQEA_WAEB_KAEBQEB_W@?$__crt_char_traits@_W@@SAHAEBQEA_WAEB_KAEBQEB_W@Z 0000000140024f40 f i libucrt:assert.obj
 0001:00023f54       ??$tcscat_s@AEBQEA_WAEB_KPEB_W@?$__crt_char_traits@_W@@SAHAEBQEA_WAEB_K$$QEAPEB_W@Z 0000000140024f54 f i libucrt:assert.obj
 0001:00023f68       ??$tcscpy_s@AEAY0BAF@D_KPEBD@?$__crt_char_traits@D@@SAHAEAY0BAF@D$$QEA_K$$QEAPEBD@Z 0000000140024f68 f i libucrt:assert.obj
 0001:00023f78       ??$tcscpy_s@AEAY0BAF@_W_KPEB_W@?$__crt_char_traits@_W@@SAHAEAY0BAF@_W$$QEA_K$$QEAPEB_W@Z 0000000140024f78 f i libucrt:assert.obj
 0001:00023f88       ??$tcscpy_s@AEBQEADAEB_KPEBD@?$__crt_char_traits@D@@SAHAEBQEADAEB_K$$QEAPEBD@Z 0000000140024f88 f i libucrt:assert.obj
 0001:00023f9c       ??$tcscpy_s@AEBQEA_WAEB_KPEB_W@?$__crt_char_traits@_W@@SAHAEBQEA_WAEB_K$$QEAPEB_W@Z 0000000140024f9c f i libucrt:assert.obj
 0001:00023fb0       ??$tcslen@AEAY0BAF@D@?$__crt_char_traits@D@@SA_KAEAY0BAF@D@Z 0000000140024fb0 f i libucrt:assert.obj
 0001:00023fc4       ??$tcslen@AEAY0BAF@_W@?$__crt_char_traits@_W@@SA_KAEAY0BAF@_W@Z 0000000140024fc4 f i libucrt:assert.obj
 0001:00023fd8       ??$tcslen@AEBQEAD@?$__crt_char_traits@D@@SA_KAEBQEAD@Z 0000000140024fd8 f i libucrt:assert.obj
 0001:00023ff0       ??$tcslen@AEBQEA_W@?$__crt_char_traits@_W@@SA_KAEBQEA_W@Z 0000000140024ff0 f i libucrt:assert.obj
 0001:00024008       ??$tcslen@AEBQEBD@?$__crt_char_traits@D@@SA_KAEBQEBD@Z 0000000140025008 f i libucrt:assert.obj
 0001:00024020       ??$tcslen@AEBQEB_W@?$__crt_char_traits@_W@@SA_KAEBQEB_W@Z 0000000140025020 f i libucrt:assert.obj
 0001:00024038       ??$tcsncat_s@AEBQEADAEB_KAEAPEBD_K@?$__crt_char_traits@D@@SAHAEBQEADAEB_KAEAPEBD$$QEA_K@Z 0000000140025038 f i libucrt:assert.obj
 0001:00024050       ??$tcsncat_s@AEBQEADAEB_KAEBQEBDAEB_K@?$__crt_char_traits@D@@SAHAEBQEADAEB_KAEBQEBD1@Z 0000000140025050 f i libucrt:assert.obj
 0001:00024068       ??$tcsncat_s@AEBQEADAEB_KPEBD_K@?$__crt_char_traits@D@@SAHAEBQEADAEB_K$$QEAPEBD$$QEA_K@Z 0000000140025068 f i libucrt:assert.obj
 0001:00024080       ??$tcsncat_s@AEBQEA_WAEB_KAEAPEB_W_K@?$__crt_char_traits@_W@@SAHAEBQEA_WAEB_KAEAPEB_W$$QEA_K@Z 0000000140025080 f i libucrt:assert.obj
 0001:00024098       ??$tcsncat_s@AEBQEA_WAEB_KAEBQEB_WAEB_K@?$__crt_char_traits@_W@@SAHAEBQEA_WAEB_KAEBQEB_W1@Z 0000000140025098 f i libucrt:assert.obj
 0001:000240b0       ??$tcsncat_s@AEBQEA_WAEB_KPEB_W_K@?$__crt_char_traits@_W@@SAHAEBQEA_WAEB_K$$QEAPEB_W$$QEA_K@Z 00000001400250b0 f i libucrt:assert.obj
 0001:000240c8       ??0__crt_stdio_stream@@QEAA@QEAU_iobuf@@@Z 00000001400250c8 f i libucrt:assert.obj
 0001:000240d0       ?__crt_interlocked_read_32@@YAHPEDH@Z 00000001400250d0 f i libucrt:assert.obj
 0001:0002428c       ?get_flags@__crt_stdio_stream@@QEBAJXZ 000000014002528c f i libucrt:assert.obj
 0001:00024324       ?has_any_buffer@__crt_stdio_stream@@QEBA_NXZ 0000000140025324 f i libucrt:assert.obj
 0001:00024338       ?has_any_of@__crt_stdio_stream@@QEBA_NJ@Z 0000000140025338 f i libucrt:assert.obj
 0001:00024348       _assert                    0000000140025348 f   libucrt:assert.obj
 0001:000243d8       _invoke_watson_if_error    00000001400253d8 f i libucrt:assert.obj
 0001:00024418       _vfwprintf_l               0000000140025418 f i libucrt:assert.obj
 0001:0002447c       _vswprintf_c_l             000000014002547c f i libucrt:assert.obj
 0001:000244f8       _wassert                   00000001400254f8 f   libucrt:assert.obj
 0001:00024588       fprintf                    0000000140025588 f i libucrt:assert.obj
 0001:000245dc       fwprintf                   00000001400255dc f i libucrt:assert.obj
 0001:000246d8       swprintf                   00000001400256d8 f i libucrt:assert.obj
 0001:00024740       ??$?RPEAU__crt_stdio_stream_data@@@__crt_internal_free_policy@@QEBAXQEBQEAU__crt_stdio_stream_data@@@Z 0000000140025740 f i libucrt:_file.obj
 0001:0002474c       ??0?$__crt_unique_heap_ptr@PEAU__crt_stdio_stream_data@@U__crt_internal_free_policy@@@@QEAA@QEAPEAU__crt_stdio_stream_data@@@Z 000000014002574c f i libucrt:_file.obj
 0001:00024754       ??1?$__crt_unique_heap_ptr@PEAU__crt_stdio_stream_data@@U__crt_internal_free_policy@@@@QEAA@XZ 0000000140025754 f i libucrt:_file.obj
 0001:00024778       ??C__crt_stdio_stream@@QEBAPEAU__crt_stdio_stream_data@@XZ 0000000140025778 f i libucrt:_file.obj
 0001:0002477c       ?detach@?$__crt_unique_heap_ptr@PEAU__crt_stdio_stream_data@@U__crt_internal_free_policy@@@@QEAAPEAPEAU__crt_stdio_stream_data@@XZ 000000014002577c f i libucrt:_file.obj
 0001:00024788       ?release@?$__crt_unique_heap_ptr@PEAU__crt_stdio_stream_data@@U__crt_internal_free_policy@@@@QEAAXXZ 0000000140025788 f i libucrt:_file.obj
 0001:000247ac       __acrt_initialize_stdio    00000001400257ac f   libucrt:_file.obj
 0001:00024914       __acrt_iob_func            0000000140025914 f   libucrt:_file.obj
 0001:0002492c       __acrt_uninitialize_stdio  000000014002592c f   libucrt:_file.obj
 0001:000249a0       _get_stream_buffer_pointers 00000001400259a0 f   libucrt:_file.obj
 0001:000249f8       _lock_file                 00000001400259f8 f   libucrt:_file.obj
 0001:00024a08       _unlock_file               0000000140025a08 f   libucrt:_file.obj
 0001:00024a18       ??$?0AEBV?$stream_output_adapter@D@__crt_stdio_output@@AEB_KAEBQEBDAEAV__crt_cached_ptd_host@@AEBQEAD@?$format_validation_base@DV?$stream_output_adapter@D@__crt_stdio_output@@@__crt_stdio_output@@IEAA@AEBV?$stream_output_adapter@D@1@AEB_KAEBQEBDAEAV__crt_cached_ptd_host@@AEBQEAD@Z 0000000140025a18 f i libucrt:output.obj
 0001:00024aa4       ??$?0AEBV?$stream_output_adapter@D@__crt_stdio_output@@AEB_KAEBQEBDAEAV__crt_cached_ptd_host@@AEBQEAD@?$positional_parameter_base@DV?$stream_output_adapter@D@__crt_stdio_output@@@__crt_stdio_output@@IEAA@AEBV?$stream_output_adapter@D@1@AEB_KAEBQEBDAEAV__crt_cached_ptd_host@@AEBQEAD@Z 0000000140025aa4 f i libucrt:output.obj
 0001:00024b54       ??$?0AEBV?$stream_output_adapter@D@__crt_stdio_output@@AEB_KAEBQEBDAEAV__crt_cached_ptd_host@@AEBQEAD@?$standard_base@DV?$stream_output_adapter@D@__crt_stdio_output@@@__crt_stdio_output@@IEAA@AEBV?$stream_output_adapter@D@1@AEB_KAEBQEBDAEAV__crt_cached_ptd_host@@AEBQEAD@Z 0000000140025b54 f i libucrt:output.obj
 0001:00024be0       ??$?0AEBV?$stream_output_adapter@_W@__crt_stdio_output@@AEB_KAEBQEB_WAEAV__crt_cached_ptd_host@@AEBQEAD@?$format_validation_base@_WV?$stream_output_adapter@_W@__crt_stdio_output@@@__crt_stdio_output@@IEAA@AEBV?$stream_output_adapter@_W@1@AEB_KAEBQEB_WAEAV__crt_cached_ptd_host@@AEBQEAD@Z 0000000140025be0 f i libucrt:output.obj
 0001:00024c74       ??$?0AEBV?$stream_output_adapter@_W@__crt_stdio_output@@AEB_KAEBQEB_WAEAV__crt_cached_ptd_host@@AEBQEAD@?$positional_parameter_base@_WV?$stream_output_adapter@_W@__crt_stdio_output@@@__crt_stdio_output@@IEAA@AEBV?$stream_output_adapter@_W@1@AEB_KAEBQEB_WAEAV__crt_cached_ptd_host@@AEBQEAD@Z 0000000140025c74 f i libucrt:output.obj
 0001:00024d2c       ??$?0AEBV?$stream_output_adapter@_W@__crt_stdio_output@@AEB_KAEBQEB_WAEAV__crt_cached_ptd_host@@AEBQEAD@?$standard_base@_WV?$stream_output_adapter@_W@__crt_stdio_output@@@__crt_stdio_output@@IEAA@AEBV?$stream_output_adapter@_W@1@AEB_KAEBQEB_WAEAV__crt_cached_ptd_host@@AEBQEAD@Z 0000000140025d2c f i libucrt:output.obj
 0001:00024dc0       ??$?0AEBV?$string_output_adapter@D@__crt_stdio_output@@AEB_KAEBQEBDAEAV__crt_cached_ptd_host@@AEBQEAD@?$format_validation_base@DV?$string_output_adapter@D@__crt_stdio_output@@@__crt_stdio_output@@IEAA@AEBV?$string_output_adapter@D@1@AEB_KAEBQEBDAEAV__crt_cached_ptd_host@@AEBQEAD@Z 0000000140025dc0 f i libucrt:output.obj
 0001:00024e4c       ??$?0AEBV?$string_output_adapter@D@__crt_stdio_output@@AEB_KAEBQEBDAEAV__crt_cached_ptd_host@@AEBQEAD@?$positional_parameter_base@DV?$string_output_adapter@D@__crt_stdio_output@@@__crt_stdio_output@@IEAA@AEBV?$string_output_adapter@D@1@AEB_KAEBQEBDAEAV__crt_cached_ptd_host@@AEBQEAD@Z 0000000140025e4c f i libucrt:output.obj
 0001:00024efc       ??$?0AEBV?$string_output_adapter@D@__crt_stdio_output@@AEB_KAEBQEBDAEAV__crt_cached_ptd_host@@AEBQEAD@?$standard_base@DV?$string_output_adapter@D@__crt_stdio_output@@@__crt_stdio_output@@IEAA@AEBV?$string_output_adapter@D@1@AEB_KAEBQEBDAEAV__crt_cached_ptd_host@@AEBQEAD@Z 0000000140025efc f i libucrt:output.obj
 0001:00024f88       ??$?0AEBV?$string_output_adapter@_W@__crt_stdio_output@@AEB_KAEBQEB_WAEAV__crt_cached_ptd_host@@AEBQEAD@?$format_validation_base@_WV?$string_output_adapter@_W@__crt_stdio_output@@@__crt_stdio_output@@IEAA@AEBV?$string_output_adapter@_W@1@AEB_KAEBQEB_WAEAV__crt_cached_ptd_host@@AEBQEAD@Z 0000000140025f88 f i libucrt:output.obj
 0001:0002501c       ??$?0AEBV?$string_output_adapter@_W@__crt_stdio_output@@AEB_KAEBQEB_WAEAV__crt_cached_ptd_host@@AEBQEAD@?$positional_parameter_base@_WV?$string_output_adapter@_W@__crt_stdio_output@@@__crt_stdio_output@@IEAA@AEBV?$string_output_adapter@_W@1@AEB_KAEBQEB_WAEAV__crt_cached_ptd_host@@AEBQEAD@Z 000000014002601c f i libucrt:output.obj
 0001:000250d4       ??$?0AEBV?$string_output_adapter@_W@__crt_stdio_output@@AEB_KAEBQEB_WAEAV__crt_cached_ptd_host@@AEBQEAD@?$standard_base@_WV?$string_output_adapter@_W@__crt_stdio_output@@@__crt_stdio_output@@IEAA@AEBV?$string_output_adapter@_W@1@AEB_KAEBQEB_WAEAV__crt_cached_ptd_host@@AEBQEAD@Z 00000001400260d4 f i libucrt:output.obj
 0001:00025468       ??$_tcstol_internal@DPEAPEAD$0A@@@YAJAEAV__crt_cached_ptd_host@@QEBDQEAPEADH@Z 0000000140026468 f i libucrt:output.obj
 0001:000254a4       ??$_tcstol_internal@_WPEAPEA_W$0A@@@YAJAEAV__crt_cached_ptd_host@@QEB_WQEAPEA_WH@Z 00000001400264a4 f i libucrt:output.obj
 0001:00026a40       ??$count@D@formatting_buffer@__crt_stdio_output@@QEBA_KXZ 0000000140027a40 f i libucrt:output.obj
 0001:00026a64       ??$count@_W@formatting_buffer@__crt_stdio_output@@QEBA_KXZ 0000000140027a64 f i libucrt:output.obj
 0001:00026a88       ??$data@D@formatting_buffer@__crt_stdio_output@@QEAAPEADXZ 0000000140027a88 f i libucrt:output.obj
 0001:00026a9c       ??$data@_W@formatting_buffer@__crt_stdio_output@@QEAAPEA_WXZ 0000000140027a9c f i libucrt:output.obj
 0001:00026ab0       ??$ensure_buffer_is_big_enough@D@formatting_buffer@__crt_stdio_output@@QEAA_N_KAEAV__crt_cached_ptd_host@@@Z 0000000140027ab0 f i libucrt:output.obj
 0001:00026b84       ??$ensure_buffer_is_big_enough@_W@formatting_buffer@__crt_stdio_output@@QEAA_N_KAEAV__crt_cached_ptd_host@@@Z 0000000140027b84 f i libucrt:output.obj
 0001:00026c5c       ??$extract_argument_from_va_list@C_J@?$positional_parameter_base@DV?$stream_output_adapter@D@__crt_stdio_output@@@__crt_stdio_output@@IEAA_NAEA_J@Z 0000000140027c5c f i libucrt:output.obj
 0001:00026da4       ??$extract_argument_from_va_list@C_J@?$positional_parameter_base@DV?$string_output_adapter@D@__crt_stdio_output@@@__crt_stdio_output@@IEAA_NAEA_J@Z 0000000140027da4 f i libucrt:output.obj
 0001:00026eec       ??$extract_argument_from_va_list@C_J@?$positional_parameter_base@_WV?$stream_output_adapter@_W@__crt_stdio_output@@@__crt_stdio_output@@IEAA_NAEA_J@Z 0000000140027eec f i libucrt:output.obj
 0001:00027038       ??$extract_argument_from_va_list@C_J@?$positional_parameter_base@_WV?$string_output_adapter@_W@__crt_stdio_output@@@__crt_stdio_output@@IEAA_NAEA_J@Z 0000000140028038 f i libucrt:output.obj
 0001:00027184       ??$extract_argument_from_va_list@C_J@?$standard_base@DV?$stream_output_adapter@D@__crt_stdio_output@@@__crt_stdio_output@@IEAA_NAEA_J@Z 0000000140028184 f i libucrt:output.obj
 0001:000271a0       ??$extract_argument_from_va_list@C_J@?$standard_base@DV?$string_output_adapter@D@__crt_stdio_output@@@__crt_stdio_output@@IEAA_NAEA_J@Z 00000001400281a0 f i libucrt:output.obj
 0001:000271bc       ??$extract_argument_from_va_list@C_J@?$standard_base@_WV?$stream_output_adapter@_W@__crt_stdio_output@@@__crt_stdio_output@@IEAA_NAEA_J@Z 00000001400281bc f i libucrt:output.obj
 0001:000271d8       ??$extract_argument_from_va_list@C_J@?$standard_base@_WV?$string_output_adapter@_W@__crt_stdio_output@@@__crt_stdio_output@@IEAA_NAEA_J@Z 00000001400281d8 f i libucrt:output.obj
 0001:000271f4       ??$extract_argument_from_va_list@E_J@?$positional_parameter_base@DV?$stream_output_adapter@D@__crt_stdio_output@@@__crt_stdio_output@@IEAA_NAEA_J@Z 00000001400281f4 f i libucrt:output.obj
 0001:0002733c       ??$extract_argument_from_va_list@E_J@?$positional_parameter_base@DV?$string_output_adapter@D@__crt_stdio_output@@@__crt_stdio_output@@IEAA_NAEA_J@Z 000000014002833c f i libucrt:output.obj
 0001:00027484       ??$extract_argument_from_va_list@E_J@?$positional_parameter_base@_WV?$stream_output_adapter@_W@__crt_stdio_output@@@__crt_stdio_output@@IEAA_NAEA_J@Z 0000000140028484 f i libucrt:output.obj
 0001:000275d0       ??$extract_argument_from_va_list@E_J@?$positional_parameter_base@_WV?$string_output_adapter@_W@__crt_stdio_output@@@__crt_stdio_output@@IEAA_NAEA_J@Z 00000001400285d0 f i libucrt:output.obj
 0001:0002771c       ??$extract_argument_from_va_list@E_J@?$standard_base@DV?$stream_output_adapter@D@__crt_stdio_output@@@__crt_stdio_output@@IEAA_NAEA_J@Z 000000014002871c f i libucrt:output.obj
 0001:00027734       ??$extract_argument_from_va_list@E_J@?$standard_base@DV?$string_output_adapter@D@__crt_stdio_output@@@__crt_stdio_output@@IEAA_NAEA_J@Z 0000000140028734 f i libucrt:output.obj
 0001:0002774c       ??$extract_argument_from_va_list@E_J@?$standard_base@_WV?$stream_output_adapter@_W@__crt_stdio_output@@@__crt_stdio_output@@IEAA_NAEA_J@Z 000000014002874c f i libucrt:output.obj
 0001:00027764       ??$extract_argument_from_va_list@E_J@?$standard_base@_WV?$string_output_adapter@_W@__crt_stdio_output@@@__crt_stdio_output@@IEAA_NAEA_J@Z 0000000140028764 f i libucrt:output.obj
 0001:0002777c       ??$extract_argument_from_va_list@F_J@?$positional_parameter_base@DV?$stream_output_adapter@D@__crt_stdio_output@@@__crt_stdio_output@@IEAA_NAEA_J@Z 000000014002877c f i libucrt:output.obj
 0001:000278c4       ??$extract_argument_from_va_list@F_J@?$positional_parameter_base@DV?$string_output_adapter@D@__crt_stdio_output@@@__crt_stdio_output@@IEAA_NAEA_J@Z 00000001400288c4 f i libucrt:output.obj
 0001:00027a0c       ??$extract_argument_from_va_list@F_J@?$positional_parameter_base@_WV?$stream_output_adapter@_W@__crt_stdio_output@@@__crt_stdio_output@@IEAA_NAEA_J@Z 0000000140028a0c f i libucrt:output.obj
 0001:00027b58       ??$extract_argument_from_va_list@F_J@?$positional_parameter_base@_WV?$string_output_adapter@_W@__crt_stdio_output@@@__crt_stdio_output@@IEAA_NAEA_J@Z 0000000140028b58 f i libucrt:output.obj
 0001:00027ca4       ??$extract_argument_from_va_list@F_J@?$standard_base@DV?$stream_output_adapter@D@__crt_stdio_output@@@__crt_stdio_output@@IEAA_NAEA_J@Z 0000000140028ca4 f i libucrt:output.obj
 0001:00027cc0       ??$extract_argument_from_va_list@F_J@?$standard_base@DV?$string_output_adapter@D@__crt_stdio_output@@@__crt_stdio_output@@IEAA_NAEA_J@Z 0000000140028cc0 f i libucrt:output.obj
 0001:00027cdc       ??$extract_argument_from_va_list@F_J@?$standard_base@_WV?$stream_output_adapter@_W@__crt_stdio_output@@@__crt_stdio_output@@IEAA_NAEA_J@Z 0000000140028cdc f i libucrt:output.obj
 0001:00027cf8       ??$extract_argument_from_va_list@F_J@?$standard_base@_WV?$string_output_adapter@_W@__crt_stdio_output@@@__crt_stdio_output@@IEAA_NAEA_J@Z 0000000140028cf8 f i libucrt:output.obj
 0001:00027d14       ??$extract_argument_from_va_list@GD@?$positional_parameter_base@DV?$stream_output_adapter@D@__crt_stdio_output@@@__crt_stdio_output@@IEAA_NAEAD@Z 0000000140028d14 f i libucrt:output.obj
 0001:00027e58       ??$extract_argument_from_va_list@GD@?$positional_parameter_base@DV?$string_output_adapter@D@__crt_stdio_output@@@__crt_stdio_output@@IEAA_NAEAD@Z 0000000140028e58 f i libucrt:output.obj
 0001:00027f9c       ??$extract_argument_from_va_list@GD@?$standard_base@DV?$stream_output_adapter@D@__crt_stdio_output@@@__crt_stdio_output@@IEAA_NAEAD@Z 0000000140028f9c f i libucrt:output.obj
 0001:00027fb4       ??$extract_argument_from_va_list@GD@?$standard_base@DV?$string_output_adapter@D@__crt_stdio_output@@@__crt_stdio_output@@IEAA_NAEAD@Z 0000000140028fb4 f i libucrt:output.obj
 0001:00027fcc       ??$extract_argument_from_va_list@G_J@?$positional_parameter_base@DV?$stream_output_adapter@D@__crt_stdio_output@@@__crt_stdio_output@@IEAA_NAEA_J@Z 0000000140028fcc f i libucrt:output.obj
 0001:00028114       ??$extract_argument_from_va_list@G_J@?$positional_parameter_base@DV?$string_output_adapter@D@__crt_stdio_output@@@__crt_stdio_output@@IEAA_NAEA_J@Z 0000000140029114 f i libucrt:output.obj
 0001:0002825c       ??$extract_argument_from_va_list@G_J@?$positional_parameter_base@_WV?$stream_output_adapter@_W@__crt_stdio_output@@@__crt_stdio_output@@IEAA_NAEA_J@Z 000000014002925c f i libucrt:output.obj
 0001:000283a8       ??$extract_argument_from_va_list@G_J@?$positional_parameter_base@_WV?$string_output_adapter@_W@__crt_stdio_output@@@__crt_stdio_output@@IEAA_NAEA_J@Z 00000001400293a8 f i libucrt:output.obj
 0001:000284f4       ??$extract_argument_from_va_list@G_J@?$standard_base@DV?$stream_output_adapter@D@__crt_stdio_output@@@__crt_stdio_output@@IEAA_NAEA_J@Z 00000001400294f4 f i libucrt:output.obj
 0001:0002850c       ??$extract_argument_from_va_list@G_J@?$standard_base@DV?$string_output_adapter@D@__crt_stdio_output@@@__crt_stdio_output@@IEAA_NAEA_J@Z 000000014002950c f i libucrt:output.obj
 0001:00028524       ??$extract_argument_from_va_list@G_J@?$standard_base@_WV?$stream_output_adapter@_W@__crt_stdio_output@@@__crt_stdio_output@@IEAA_NAEA_J@Z 0000000140029524 f i libucrt:output.obj
 0001:0002853c       ??$extract_argument_from_va_list@G_J@?$standard_base@_WV?$string_output_adapter@_W@__crt_stdio_output@@@__crt_stdio_output@@IEAA_NAEA_J@Z 000000014002953c f i libucrt:output.obj
 0001:00028554       ??$extract_argument_from_va_list@H_J@?$positional_parameter_base@DV?$stream_output_adapter@D@__crt_stdio_output@@@__crt_stdio_output@@IEAA_NAEA_J@Z 0000000140029554 f i libucrt:output.obj
 0001:0002869c       ??$extract_argument_from_va_list@H_J@?$positional_parameter_base@DV?$string_output_adapter@D@__crt_stdio_output@@@__crt_stdio_output@@IEAA_NAEA_J@Z 000000014002969c f i libucrt:output.obj
 0001:000287e4       ??$extract_argument_from_va_list@H_J@?$positional_parameter_base@_WV?$stream_output_adapter@_W@__crt_stdio_output@@@__crt_stdio_output@@IEAA_NAEA_J@Z 00000001400297e4 f i libucrt:output.obj
 0001:0002892c       ??$extract_argument_from_va_list@H_J@?$positional_parameter_base@_WV?$string_output_adapter@_W@__crt_stdio_output@@@__crt_stdio_output@@IEAA_NAEA_J@Z 000000014002992c f i libucrt:output.obj
 0001:00028a74       ??$extract_argument_from_va_list@H_J@?$standard_base@DV?$stream_output_adapter@D@__crt_stdio_output@@@__crt_stdio_output@@IEAA_NAEA_J@Z 0000000140029a74 f i libucrt:output.obj
 0001:00028a8c       ??$extract_argument_from_va_list@H_J@?$standard_base@DV?$string_output_adapter@D@__crt_stdio_output@@@__crt_stdio_output@@IEAA_NAEA_J@Z 0000000140029a8c f i libucrt:output.obj
 0001:00028aa4       ??$extract_argument_from_va_list@H_J@?$standard_base@_WV?$stream_output_adapter@_W@__crt_stdio_output@@@__crt_stdio_output@@IEAA_NAEA_J@Z 0000000140029aa4 f i libucrt:output.obj
 0001:00028abc       ??$extract_argument_from_va_list@H_J@?$standard_base@_WV?$string_output_adapter@_W@__crt_stdio_output@@@__crt_stdio_output@@IEAA_NAEA_J@Z 0000000140029abc f i libucrt:output.obj
 0001:00028ad4       ??$extract_argument_from_va_list@I_J@?$positional_parameter_base@DV?$stream_output_adapter@D@__crt_stdio_output@@@__crt_stdio_output@@IEAA_NAEA_J@Z 0000000140029ad4 f i libucrt:output.obj
 0001:00028c1c       ??$extract_argument_from_va_list@I_J@?$positional_parameter_base@DV?$string_output_adapter@D@__crt_stdio_output@@@__crt_stdio_output@@IEAA_NAEA_J@Z 0000000140029c1c f i libucrt:output.obj
 0001:00028d64       ??$extract_argument_from_va_list@I_J@?$positional_parameter_base@_WV?$stream_output_adapter@_W@__crt_stdio_output@@@__crt_stdio_output@@IEAA_NAEA_J@Z 0000000140029d64 f i libucrt:output.obj
 0001:00028eac       ??$extract_argument_from_va_list@I_J@?$positional_parameter_base@_WV?$string_output_adapter@_W@__crt_stdio_output@@@__crt_stdio_output@@IEAA_NAEA_J@Z 0000000140029eac f i libucrt:output.obj
 0001:00028ff4       ??$extract_argument_from_va_list@I_J@?$standard_base@DV?$stream_output_adapter@D@__crt_stdio_output@@@__crt_stdio_output@@IEAA_NAEA_J@Z 0000000140029ff4 f i libucrt:output.obj
 0001:0002900c       ??$extract_argument_from_va_list@I_J@?$standard_base@DV?$string_output_adapter@D@__crt_stdio_output@@@__crt_stdio_output@@IEAA_NAEA_J@Z 000000014002a00c f i libucrt:output.obj
 0001:00029024       ??$extract_argument_from_va_list@I_J@?$standard_base@_WV?$stream_output_adapter@_W@__crt_stdio_output@@@__crt_stdio_output@@IEAA_NAEA_J@Z 000000014002a024 f i libucrt:output.obj
 0001:0002903c       ??$extract_argument_from_va_list@I_J@?$standard_base@_WV?$string_output_adapter@_W@__crt_stdio_output@@@__crt_stdio_output@@IEAA_NAEA_J@Z 000000014002a03c f i libucrt:output.obj
 0001:00029054       ??$extract_argument_from_va_list@PEADPEAD@?$positional_parameter_base@DV?$stream_output_adapter@D@__crt_stdio_output@@@__crt_stdio_output@@IEAA_NAEAPEAD@Z 000000014002a054 f i libucrt:output.obj
 0001:0002919c       ??$extract_argument_from_va_list@PEADPEAD@?$positional_parameter_base@DV?$string_output_adapter@D@__crt_stdio_output@@@__crt_stdio_output@@IEAA_NAEAPEAD@Z 000000014002a19c f i libucrt:output.obj
 0001:000292e4       ??$extract_argument_from_va_list@PEADPEAD@?$positional_parameter_base@_WV?$stream_output_adapter@_W@__crt_stdio_output@@@__crt_stdio_output@@IEAA_NAEAPEAD@Z 000000014002a2e4 f i libucrt:output.obj
 0001:0002942c       ??$extract_argument_from_va_list@PEADPEAD@?$positional_parameter_base@_WV?$string_output_adapter@_W@__crt_stdio_output@@@__crt_stdio_output@@IEAA_NAEAPEAD@Z 000000014002a42c f i libucrt:output.obj
 0001:00029574       ??$extract_argument_from_va_list@PEADPEAD@?$standard_base@DV?$stream_output_adapter@D@__crt_stdio_output@@@__crt_stdio_output@@IEAA_NAEAPEAD@Z 000000014002a574 f i libucrt:output.obj
 0001:0002958c       ??$extract_argument_from_va_list@PEADPEAD@?$standard_base@DV?$string_output_adapter@D@__crt_stdio_output@@@__crt_stdio_output@@IEAA_NAEAPEAD@Z 000000014002a58c f i libucrt:output.obj
 0001:000295a4       ??$extract_argument_from_va_list@PEADPEAD@?$standard_base@_WV?$stream_output_adapter@_W@__crt_stdio_output@@@__crt_stdio_output@@IEAA_NAEAPEAD@Z 000000014002a5a4 f i libucrt:output.obj
 0001:000295bc       ??$extract_argument_from_va_list@PEADPEAD@?$standard_base@_WV?$string_output_adapter@_W@__crt_stdio_output@@@__crt_stdio_output@@IEAA_NAEAPEAD@Z 000000014002a5bc f i libucrt:output.obj
 0001:000295d4       ??$extract_argument_from_va_list@PEAUansi_string@?1??type_case_Z@?$output_processor@DV?$stream_output_adapter@D@__crt_stdio_output@@V?$format_validation_base@DV?$stream_output_adapter@D@__crt_stdio_output@@@2@@__crt_stdio_output@@AEAA_NXZ@PEAU1?1??234@AEAA_NXZ@@?$standard_base@DV?$stream_output_adapter@D@__crt_stdio_output@@@__crt_stdio_output@@IEAA_NAEAPEAUansi_string@?1??type_case_Z@?$output_processor@DV?$stream_output_adapter@D@__crt_stdio_output@@V?$format_validation_base@DV?$stream_output_adapter@D@__crt_stdio_output@@@2@@1@AEAA_NXZ@@Z 000000014002a5d4 f i libucrt:output.obj
 0001:000295ec       ??$extract_argument_from_va_list@PEAUansi_string@?1??type_case_Z@?$output_processor@DV?$stream_output_adapter@D@__crt_stdio_output@@V?$positional_parameter_base@DV?$stream_output_adapter@D@__crt_stdio_output@@@2@@__crt_stdio_output@@AEAA_NXZ@PEAU1?1??234@AEAA_NXZ@@?$positional_parameter_base@DV?$stream_output_adapter@D@__crt_stdio_output@@@__crt_stdio_output@@IEAA_NAEAPEAUansi_string@?1??type_case_Z@?$output_processor@DV?$stream_output_adapter@D@__crt_stdio_output@@V?$positional_parameter_base@DV?$stream_output_adapter@D@__crt_stdio_output@@@2@@1@AEAA_NXZ@@Z 000000014002a5ec f i libucrt:output.obj
 0001:00029734       ??$extract_argument_from_va_list@PEAUansi_string@?1??type_case_Z@?$output_processor@DV?$stream_output_adapter@D@__crt_stdio_output@@V?$positional_parameter_base@DV?$stream_output_adapter@D@__crt_stdio_output@@@2@@__crt_stdio_output@@AEAA_NXZ@PEAU1?1??234@AEAA_NXZ@@?$standard_base@DV?$stream_output_adapter@D@__crt_stdio_output@@@__crt_stdio_output@@IEAA_NAEAPEAUansi_string@?1??type_case_Z@?$output_processor@DV?$stream_output_adapter@D@__crt_stdio_output@@V?$positional_parameter_base@DV?$stream_output_adapter@D@__crt_stdio_output@@@2@@1@AEAA_NXZ@@Z 000000014002a734 f i libucrt:output.obj
 0001:0002974c       ??$extract_argument_from_va_list@PEAUansi_string@?1??type_case_Z@?$output_processor@DV?$stream_output_adapter@D@__crt_stdio_output@@V?$standard_base@DV?$stream_output_adapter@D@__crt_stdio_output@@@2@@__crt_stdio_output@@AEAA_NXZ@PEAU1?1??234@AEAA_NXZ@@?$standard_base@DV?$stream_output_adapter@D@__crt_stdio_output@@@__crt_stdio_output@@IEAA_NAEAPEAUansi_string@?1??type_case_Z@?$output_processor@DV?$stream_output_adapter@D@__crt_stdio_output@@V?$standard_base@DV?$stream_output_adapter@D@__crt_stdio_output@@@2@@1@AEAA_NXZ@@Z 000000014002a74c f i libucrt:output.obj
 0001:00029764       ??$extract_argument_from_va_list@PEAUansi_string@?1??type_case_Z@?$output_processor@DV?$string_output_adapter@D@__crt_stdio_output@@V?$format_validation_base@DV?$string_output_adapter@D@__crt_stdio_output@@@2@@__crt_stdio_output@@AEAA_NXZ@PEAU1?1??234@AEAA_NXZ@@?$standard_base@DV?$string_output_adapter@D@__crt_stdio_output@@@__crt_stdio_output@@IEAA_NAEAPEAUansi_string@?1??type_case_Z@?$output_processor@DV?$string_output_adapter@D@__crt_stdio_output@@V?$format_validation_base@DV?$string_output_adapter@D@__crt_stdio_output@@@2@@1@AEAA_NXZ@@Z 000000014002a764 f i libucrt:output.obj
 0001:0002977c       ??$extract_argument_from_va_list@PEAUansi_string@?1??type_case_Z@?$output_processor@DV?$string_output_adapter@D@__crt_stdio_output@@V?$positional_parameter_base@DV?$string_output_adapter@D@__crt_stdio_output@@@2@@__crt_stdio_output@@AEAA_NXZ@PEAU1?1??234@AEAA_NXZ@@?$positional_parameter_base@DV?$string_output_adapter@D@__crt_stdio_output@@@__crt_stdio_output@@IEAA_NAEAPEAUansi_string@?1??type_case_Z@?$output_processor@DV?$string_output_adapter@D@__crt_stdio_output@@V?$positional_parameter_base@DV?$string_output_adapter@D@__crt_stdio_output@@@2@@1@AEAA_NXZ@@Z 000000014002a77c f i libucrt:output.obj
 0001:000298c4       ??$extract_argument_from_va_list@PEAUansi_string@?1??type_case_Z@?$output_processor@DV?$string_output_adapter@D@__crt_stdio_output@@V?$positional_parameter_base@DV?$string_output_adapter@D@__crt_stdio_output@@@2@@__crt_stdio_output@@AEAA_NXZ@PEAU1?1??234@AEAA_NXZ@@?$standard_base@DV?$string_output_adapter@D@__crt_stdio_output@@@__crt_stdio_output@@IEAA_NAEAPEAUansi_string@?1??type_case_Z@?$output_processor@DV?$string_output_adapter@D@__crt_stdio_output@@V?$positional_parameter_base@DV?$string_output_adapter@D@__crt_stdio_output@@@2@@1@AEAA_NXZ@@Z 000000014002a8c4 f i libucrt:output.obj
 0001:000298dc       ??$extract_argument_from_va_list@PEAUansi_string@?1??type_case_Z@?$output_processor@DV?$string_output_adapter@D@__crt_stdio_output@@V?$standard_base@DV?$string_output_adapter@D@__crt_stdio_output@@@2@@__crt_stdio_output@@AEAA_NXZ@PEAU1?1??234@AEAA_NXZ@@?$standard_base@DV?$string_output_adapter@D@__crt_stdio_output@@@__crt_stdio_output@@IEAA_NAEAPEAUansi_string@?1??type_case_Z@?$output_processor@DV?$string_output_adapter@D@__crt_stdio_output@@V?$standard_base@DV?$string_output_adapter@D@__crt_stdio_output@@@2@@1@AEAA_NXZ@@Z 000000014002a8dc f i libucrt:output.obj
 0001:000298f4       ??$extract_argument_from_va_list@PEAUansi_string@?1??type_case_Z@?$output_processor@_WV?$stream_output_adapter@_W@__crt_stdio_output@@V?$format_validation_base@_WV?$stream_output_adapter@_W@__crt_stdio_output@@@2@@__crt_stdio_output@@AEAA_NXZ@PEAU1?1??234@AEAA_NXZ@@?$standard_base@_WV?$stream_output_adapter@_W@__crt_stdio_output@@@__crt_stdio_output@@IEAA_NAEAPEAUansi_string@?1??type_case_Z@?$output_processor@_WV?$stream_output_adapter@_W@__crt_stdio_output@@V?$format_validation_base@_WV?$stream_output_adapter@_W@__crt_stdio_output@@@2@@1@AEAA_NXZ@@Z 000000014002a8f4 f i libucrt:output.obj
 0001:0002990c       ??$extract_argument_from_va_list@PEAUansi_string@?1??type_case_Z@?$output_processor@_WV?$stream_output_adapter@_W@__crt_stdio_output@@V?$positional_parameter_base@_WV?$stream_output_adapter@_W@__crt_stdio_output@@@2@@__crt_stdio_output@@AEAA_NXZ@PEAU1?1??234@AEAA_NXZ@@?$positional_parameter_base@_WV?$stream_output_adapter@_W@__crt_stdio_output@@@__crt_stdio_output@@IEAA_NAEAPEAUansi_string@?1??type_case_Z@?$output_processor@_WV?$stream_output_adapter@_W@__crt_stdio_output@@V?$positional_parameter_base@_WV?$stream_output_adapter@_W@__crt_stdio_output@@@2@@1@AEAA_NXZ@@Z 000000014002a90c f i libucrt:output.obj
 0001:00029a54       ??$extract_argument_from_va_list@PEAUansi_string@?1??type_case_Z@?$output_processor@_WV?$stream_output_adapter@_W@__crt_stdio_output@@V?$positional_parameter_base@_WV?$stream_output_adapter@_W@__crt_stdio_output@@@2@@__crt_stdio_output@@AEAA_NXZ@PEAU1?1??234@AEAA_NXZ@@?$standard_base@_WV?$stream_output_adapter@_W@__crt_stdio_output@@@__crt_stdio_output@@IEAA_NAEAPEAUansi_string@?1??type_case_Z@?$output_processor@_WV?$stream_output_adapter@_W@__crt_stdio_output@@V?$positional_parameter_base@_WV?$stream_output_adapter@_W@__crt_stdio_output@@@2@@1@AEAA_NXZ@@Z 000000014002aa54 f i libucrt:output.obj
 0001:00029a6c       ??$extract_argument_from_va_list@PEAUansi_string@?1??type_case_Z@?$output_processor@_WV?$stream_output_adapter@_W@__crt_stdio_output@@V?$standard_base@_WV?$stream_output_adapter@_W@__crt_stdio_output@@@2@@__crt_stdio_output@@AEAA_NXZ@PEAU1?1??234@AEAA_NXZ@@?$standard_base@_WV?$stream_output_adapter@_W@__crt_stdio_output@@@__crt_stdio_output@@IEAA_NAEAPEAUansi_string@?1??type_case_Z@?$output_processor@_WV?$stream_output_adapter@_W@__crt_stdio_output@@V?$standard_base@_WV?$stream_output_adapter@_W@__crt_stdio_output@@@2@@1@AEAA_NXZ@@Z 000000014002aa6c f i libucrt:output.obj
 0001:00029a84       ??$extract_argument_from_va_list@PEAUansi_string@?1??type_case_Z@?$output_processor@_WV?$string_output_adapter@_W@__crt_stdio_output@@V?$format_validation_base@_WV?$string_output_adapter@_W@__crt_stdio_output@@@2@@__crt_stdio_output@@AEAA_NXZ@PEAU1?1??234@AEAA_NXZ@@?$standard_base@_WV?$string_output_adapter@_W@__crt_stdio_output@@@__crt_stdio_output@@IEAA_NAEAPEAUansi_string@?1??type_case_Z@?$output_processor@_WV?$string_output_adapter@_W@__crt_stdio_output@@V?$format_validation_base@_WV?$string_output_adapter@_W@__crt_stdio_output@@@2@@1@AEAA_NXZ@@Z 000000014002aa84 f i libucrt:output.obj
 0001:00029a9c       ??$extract_argument_from_va_list@PEAUansi_string@?1??type_case_Z@?$output_processor@_WV?$string_output_adapter@_W@__crt_stdio_output@@V?$positional_parameter_base@_WV?$string_output_adapter@_W@__crt_stdio_output@@@2@@__crt_stdio_output@@AEAA_NXZ@PEAU1?1??234@AEAA_NXZ@@?$positional_parameter_base@_WV?$string_output_adapter@_W@__crt_stdio_output@@@__crt_stdio_output@@IEAA_NAEAPEAUansi_string@?1??type_case_Z@?$output_processor@_WV?$string_output_adapter@_W@__crt_stdio_output@@V?$positional_parameter_base@_WV?$string_output_adapter@_W@__crt_stdio_output@@@2@@1@AEAA_NXZ@@Z 000000014002aa9c f i libucrt:output.obj
 0001:00029be4       ??$extract_argument_from_va_list@PEAUansi_string@?1??type_case_Z@?$output_processor@_WV?$string_output_adapter@_W@__crt_stdio_output@@V?$positional_parameter_base@_WV?$string_output_adapter@_W@__crt_stdio_output@@@2@@__crt_stdio_output@@AEAA_NXZ@PEAU1?1??234@AEAA_NXZ@@?$standard_base@_WV?$string_output_adapter@_W@__crt_stdio_output@@@__crt_stdio_output@@IEAA_NAEAPEAUansi_string@?1??type_case_Z@?$output_processor@_WV?$string_output_adapter@_W@__crt_stdio_output@@V?$positional_parameter_base@_WV?$string_output_adapter@_W@__crt_stdio_output@@@2@@1@AEAA_NXZ@@Z 000000014002abe4 f i libucrt:output.obj
 0001:00029bfc       ??$extract_argument_from_va_list@PEAUansi_string@?1??type_case_Z@?$output_processor@_WV?$string_output_adapter@_W@__crt_stdio_output@@V?$standard_base@_WV?$string_output_adapter@_W@__crt_stdio_output@@@2@@__crt_stdio_output@@AEAA_NXZ@PEAU1?1??234@AEAA_NXZ@@?$standard_base@_WV?$string_output_adapter@_W@__crt_stdio_output@@@__crt_stdio_output@@IEAA_NAEAPEAUansi_string@?1??type_case_Z@?$output_processor@_WV?$string_output_adapter@_W@__crt_stdio_output@@V?$standard_base@_WV?$string_output_adapter@_W@__crt_stdio_output@@@2@@1@AEAA_NXZ@@Z 000000014002abfc f i libucrt:output.obj
 0001:00029c14       ??$extract_argument_from_va_list@PEAXPEAX@?$positional_parameter_base@DV?$stream_output_adapter@D@__crt_stdio_output@@@__crt_stdio_output@@IEAA_NAEAPEAX@Z 000000014002ac14 f i libucrt:output.obj
 0001:00029d5c       ??$extract_argument_from_va_list@PEAXPEAX@?$positional_parameter_base@DV?$string_output_adapter@D@__crt_stdio_output@@@__crt_stdio_output@@IEAA_NAEAPEAX@Z 000000014002ad5c f i libucrt:output.obj
 0001:00029ea4       ??$extract_argument_from_va_list@PEAXPEAX@?$positional_parameter_base@_WV?$stream_output_adapter@_W@__crt_stdio_output@@@__crt_stdio_output@@IEAA_NAEAPEAX@Z 000000014002aea4 f i libucrt:output.obj
 0001:00029fec       ??$extract_argument_from_va_list@PEAXPEAX@?$positional_parameter_base@_WV?$string_output_adapter@_W@__crt_stdio_output@@@__crt_stdio_output@@IEAA_NAEAPEAX@Z 000000014002afec f i libucrt:output.obj
 0001:0002a134       ??$extract_argument_from_va_list@PEAXPEAX@?$standard_base@DV?$stream_output_adapter@D@__crt_stdio_output@@@__crt_stdio_output@@IEAA_NAEAPEAX@Z 000000014002b134 f i libucrt:output.obj
 0001:0002a14c       ??$extract_argument_from_va_list@PEAXPEAX@?$standard_base@DV?$string_output_adapter@D@__crt_stdio_output@@@__crt_stdio_output@@IEAA_NAEAPEAX@Z 000000014002b14c f i libucrt:output.obj
 0001:0002a164       ??$extract_argument_from_va_list@PEAXPEAX@?$standard_base@_WV?$stream_output_adapter@_W@__crt_stdio_output@@@__crt_stdio_output@@IEAA_NAEAPEAX@Z 000000014002b164 f i libucrt:output.obj
 0001:0002a17c       ??$extract_argument_from_va_list@PEAXPEAX@?$standard_base@_WV?$string_output_adapter@_W@__crt_stdio_output@@@__crt_stdio_output@@IEAA_NAEAPEAX@Z 000000014002b17c f i libucrt:output.obj
 0001:0002a194       ??$extract_argument_from_va_list@U_CRT_DOUBLE@@U1@@?$positional_parameter_base@DV?$stream_output_adapter@D@__crt_stdio_output@@@__crt_stdio_output@@IEAA_NAEAU_CRT_DOUBLE@@@Z 000000014002b194 f i libucrt:output.obj
 0001:0002a2dc       ??$extract_argument_from_va_list@U_CRT_DOUBLE@@U1@@?$positional_parameter_base@DV?$string_output_adapter@D@__crt_stdio_output@@@__crt_stdio_output@@IEAA_NAEAU_CRT_DOUBLE@@@Z 000000014002b2dc f i libucrt:output.obj
 0001:0002a424       ??$extract_argument_from_va_list@U_CRT_DOUBLE@@U1@@?$positional_parameter_base@_WV?$stream_output_adapter@_W@__crt_stdio_output@@@__crt_stdio_output@@IEAA_NAEAU_CRT_DOUBLE@@@Z 000000014002b424 f i libucrt:output.obj
 0001:0002a56c       ??$extract_argument_from_va_list@U_CRT_DOUBLE@@U1@@?$positional_parameter_base@_WV?$string_output_adapter@_W@__crt_stdio_output@@@__crt_stdio_output@@IEAA_NAEAU_CRT_DOUBLE@@@Z 000000014002b56c f i libucrt:output.obj
 0001:0002a6b4       ??$extract_argument_from_va_list@U_CRT_DOUBLE@@U1@@?$standard_base@DV?$stream_output_adapter@D@__crt_stdio_output@@@__crt_stdio_output@@IEAA_NAEAU_CRT_DOUBLE@@@Z 000000014002b6b4 f i libucrt:output.obj
 0001:0002a6d0       ??$extract_argument_from_va_list@U_CRT_DOUBLE@@U1@@?$standard_base@DV?$string_output_adapter@D@__crt_stdio_output@@@__crt_stdio_output@@IEAA_NAEAU_CRT_DOUBLE@@@Z 000000014002b6d0 f i libucrt:output.obj
 0001:0002a6ec       ??$extract_argument_from_va_list@U_CRT_DOUBLE@@U1@@?$standard_base@_WV?$stream_output_adapter@_W@__crt_stdio_output@@@__crt_stdio_output@@IEAA_NAEAU_CRT_DOUBLE@@@Z 000000014002b6ec f i libucrt:output.obj
 0001:0002a708       ??$extract_argument_from_va_list@U_CRT_DOUBLE@@U1@@?$standard_base@_WV?$string_output_adapter@_W@__crt_stdio_output@@@__crt_stdio_output@@IEAA_NAEAU_CRT_DOUBLE@@@Z 000000014002b708 f i libucrt:output.obj
 0001:0002a724       ??$extract_argument_from_va_list@_J_J@?$positional_parameter_base@DV?$stream_output_adapter@D@__crt_stdio_output@@@__crt_stdio_output@@IEAA_NAEA_J@Z 000000014002b724 f i libucrt:output.obj
 0001:0002a86c       ??$extract_argument_from_va_list@_J_J@?$positional_parameter_base@DV?$string_output_adapter@D@__crt_stdio_output@@@__crt_stdio_output@@IEAA_NAEA_J@Z 000000014002b86c f i libucrt:output.obj
 0001:0002a9b4       ??$extract_argument_from_va_list@_J_J@?$positional_parameter_base@_WV?$stream_output_adapter@_W@__crt_stdio_output@@@__crt_stdio_output@@IEAA_NAEA_J@Z 000000014002b9b4 f i libucrt:output.obj
 0001:0002aafc       ??$extract_argument_from_va_list@_J_J@?$positional_parameter_base@_WV?$string_output_adapter@_W@__crt_stdio_output@@@__crt_stdio_output@@IEAA_NAEA_J@Z 000000014002bafc f i libucrt:output.obj
 0001:0002ac44       ??$extract_argument_from_va_list@_J_J@?$standard_base@DV?$stream_output_adapter@D@__crt_stdio_output@@@__crt_stdio_output@@IEAA_NAEA_J@Z 000000014002bc44 f i libucrt:output.obj
 0001:0002ac5c       ??$extract_argument_from_va_list@_J_J@?$standard_base@DV?$string_output_adapter@D@__crt_stdio_output@@@__crt_stdio_output@@IEAA_NAEA_J@Z 000000014002bc5c f i libucrt:output.obj
 0001:0002ac74       ??$extract_argument_from_va_list@_J_J@?$standard_base@_WV?$stream_output_adapter@_W@__crt_stdio_output@@@__crt_stdio_output@@IEAA_NAEA_J@Z 000000014002bc74 f i libucrt:output.obj
 0001:0002ac8c       ??$extract_argument_from_va_list@_J_J@?$standard_base@_WV?$string_output_adapter@_W@__crt_stdio_output@@@__crt_stdio_output@@IEAA_NAEA_J@Z 000000014002bc8c f i libucrt:output.obj
 0001:0002aca4       ??$extract_argument_from_va_list@_K_J@?$positional_parameter_base@DV?$stream_output_adapter@D@__crt_stdio_output@@@__crt_stdio_output@@IEAA_NAEA_J@Z 000000014002bca4 f i libucrt:output.obj
 0001:0002adec       ??$extract_argument_from_va_list@_K_J@?$positional_parameter_base@DV?$string_output_adapter@D@__crt_stdio_output@@@__crt_stdio_output@@IEAA_NAEA_J@Z 000000014002bdec f i libucrt:output.obj
 0001:0002af34       ??$extract_argument_from_va_list@_K_J@?$positional_parameter_base@_WV?$stream_output_adapter@_W@__crt_stdio_output@@@__crt_stdio_output@@IEAA_NAEA_J@Z 000000014002bf34 f i libucrt:output.obj
 0001:0002b07c       ??$extract_argument_from_va_list@_K_J@?$positional_parameter_base@_WV?$string_output_adapter@_W@__crt_stdio_output@@@__crt_stdio_output@@IEAA_NAEA_J@Z 000000014002c07c f i libucrt:output.obj
 0001:0002b1c4       ??$extract_argument_from_va_list@_K_J@?$standard_base@DV?$stream_output_adapter@D@__crt_stdio_output@@@__crt_stdio_output@@IEAA_NAEA_J@Z 000000014002c1c4 f i libucrt:output.obj
 0001:0002b1dc       ??$extract_argument_from_va_list@_K_J@?$standard_base@DV?$string_output_adapter@D@__crt_stdio_output@@@__crt_stdio_output@@IEAA_NAEA_J@Z 000000014002c1dc f i libucrt:output.obj
 0001:0002b1f4       ??$extract_argument_from_va_list@_K_J@?$standard_base@_WV?$stream_output_adapter@_W@__crt_stdio_output@@@__crt_stdio_output@@IEAA_NAEA_J@Z 000000014002c1f4 f i libucrt:output.obj
 0001:0002b20c       ??$extract_argument_from_va_list@_K_J@?$standard_base@_WV?$string_output_adapter@_W@__crt_stdio_output@@@__crt_stdio_output@@IEAA_NAEA_J@Z 000000014002c20c f i libucrt:output.obj
 0001:0002b224       ??$extract_argument_from_va_list@_W_W@?$positional_parameter_base@DV?$stream_output_adapter@D@__crt_stdio_output@@@__crt_stdio_output@@IEAA_NAEA_W@Z 000000014002c224 f i libucrt:output.obj
 0001:0002b36c       ??$extract_argument_from_va_list@_W_W@?$positional_parameter_base@DV?$string_output_adapter@D@__crt_stdio_output@@@__crt_stdio_output@@IEAA_NAEA_W@Z 000000014002c36c f i libucrt:output.obj
 0001:0002b4b4       ??$extract_argument_from_va_list@_W_W@?$positional_parameter_base@_WV?$stream_output_adapter@_W@__crt_stdio_output@@@__crt_stdio_output@@IEAA_NAEA_W@Z 000000014002c4b4 f i libucrt:output.obj
 0001:0002b600       ??$extract_argument_from_va_list@_W_W@?$positional_parameter_base@_WV?$string_output_adapter@_W@__crt_stdio_output@@@__crt_stdio_output@@IEAA_NAEA_W@Z 000000014002c600 f i libucrt:output.obj
 0001:0002b74c       ??$extract_argument_from_va_list@_W_W@?$standard_base@DV?$stream_output_adapter@D@__crt_stdio_output@@@__crt_stdio_output@@IEAA_NAEA_W@Z 000000014002c74c f i libucrt:output.obj
 0001:0002b764       ??$extract_argument_from_va_list@_W_W@?$standard_base@DV?$string_output_adapter@D@__crt_stdio_output@@@__crt_stdio_output@@IEAA_NAEA_W@Z 000000014002c764 f i libucrt:output.obj
 0001:0002b77c       ??$extract_argument_from_va_list@_W_W@?$standard_base@_WV?$stream_output_adapter@_W@__crt_stdio_output@@@__crt_stdio_output@@IEAA_NAEA_W@Z 000000014002c77c f i libucrt:output.obj
 0001:0002b794       ??$extract_argument_from_va_list@_W_W@?$standard_base@_WV?$string_output_adapter@_W@__crt_stdio_output@@@__crt_stdio_output@@IEAA_NAEA_W@Z 000000014002c794 f i libucrt:output.obj
 0001:0002b7ac       ??$get_parameter_type@D@?$positional_parameter_base@DV?$stream_output_adapter@D@__crt_stdio_output@@@__crt_stdio_output@@CA?AW4parameter_type@01@PEAD@Z 000000014002c7ac f i libucrt:output.obj
 0001:0002b7b4       ??$get_parameter_type@D@?$positional_parameter_base@DV?$string_output_adapter@D@__crt_stdio_output@@@__crt_stdio_output@@CA?AW4parameter_type@01@PEAD@Z 000000014002c7b4 f i libucrt:output.obj
 0001:0002b7bc       ??$get_parameter_type@D@?$positional_parameter_base@_WV?$stream_output_adapter@_W@__crt_stdio_output@@@__crt_stdio_output@@CA?AW4parameter_type@01@PEAD@Z 000000014002c7bc f i libucrt:output.obj
 0001:0002b7c4       ??$get_parameter_type@D@?$positional_parameter_base@_WV?$string_output_adapter@_W@__crt_stdio_output@@@__crt_stdio_output@@CA?AW4parameter_type@01@PEAD@Z 000000014002c7c4 f i libucrt:output.obj
 0001:0002b7cc       ??$get_parameter_type@Uansi_string@?1??type_case_Z@?$output_processor@DV?$stream_output_adapter@D@__crt_stdio_output@@V?$positional_parameter_base@DV?$stream_output_adapter@D@__crt_stdio_output@@@2@@__crt_stdio_output@@AEAA_NXZ@@?$positional_parameter_base@DV?$stream_output_adapter@D@__crt_stdio_output@@@__crt_stdio_output@@CA?AW4parameter_type@01@PEAUansi_string@?1??type_case_Z@?$output_processor@DV?$stream_output_adapter@D@__crt_stdio_output@@V?$positional_parameter_base@DV?$stream_output_adapter@D@__crt_stdio_output@@@2@@1@AEAA_NXZ@@Z 000000014002c7cc f i libucrt:output.obj
 0001:0002b7d4       ??$get_parameter_type@Uansi_string@?1??type_case_Z@?$output_processor@DV?$string_output_adapter@D@__crt_stdio_output@@V?$positional_parameter_base@DV?$string_output_adapter@D@__crt_stdio_output@@@2@@__crt_stdio_output@@AEAA_NXZ@@?$positional_parameter_base@DV?$string_output_adapter@D@__crt_stdio_output@@@__crt_stdio_output@@CA?AW4parameter_type@01@PEAUansi_string@?1??type_case_Z@?$output_processor@DV?$string_output_adapter@D@__crt_stdio_output@@V?$positional_parameter_base@DV?$string_output_adapter@D@__crt_stdio_output@@@2@@1@AEAA_NXZ@@Z 000000014002c7d4 f i libucrt:output.obj
 0001:0002b7dc       ??$get_parameter_type@Uansi_string@?1??type_case_Z@?$output_processor@_WV?$stream_output_adapter@_W@__crt_stdio_output@@V?$positional_parameter_base@_WV?$stream_output_adapter@_W@__crt_stdio_output@@@2@@__crt_stdio_output@@AEAA_NXZ@@?$positional_parameter_base@_WV?$stream_output_adapter@_W@__crt_stdio_output@@@__crt_stdio_output@@CA?AW4parameter_type@01@PEAUansi_string@?1??type_case_Z@?$output_processor@_WV?$stream_output_adapter@_W@__crt_stdio_output@@V?$positional_parameter_base@_WV?$stream_output_adapter@_W@__crt_stdio_output@@@2@@1@AEAA_NXZ@@Z 000000014002c7dc f i libucrt:output.obj
 0001:0002b7e4       ??$get_parameter_type@Uansi_string@?1??type_case_Z@?$output_processor@_WV?$string_output_adapter@_W@__crt_stdio_output@@V?$positional_parameter_base@_WV?$string_output_adapter@_W@__crt_stdio_output@@@2@@__crt_stdio_output@@AEAA_NXZ@@?$positional_parameter_base@_WV?$string_output_adapter@_W@__crt_stdio_output@@@__crt_stdio_output@@CA?AW4parameter_type@01@PEAUansi_string@?1??type_case_Z@?$output_processor@_WV?$string_output_adapter@_W@__crt_stdio_output@@V?$positional_parameter_base@_WV?$string_output_adapter@_W@__crt_stdio_output@@@2@@1@AEAA_NXZ@@Z 000000014002c7e4 f i libucrt:output.obj
 0001:0002b7ec       ??$get_parameter_type@X@?$positional_parameter_base@DV?$stream_output_adapter@D@__crt_stdio_output@@@__crt_stdio_output@@CA?AW4parameter_type@01@PEAX@Z 000000014002c7ec f i libucrt:output.obj
 0001:0002b7f4       ??$get_parameter_type@X@?$positional_parameter_base@DV?$string_output_adapter@D@__crt_stdio_output@@@__crt_stdio_output@@CA?AW4parameter_type@01@PEAX@Z 000000014002c7f4 f i libucrt:output.obj
 0001:0002b7fc       ??$get_parameter_type@X@?$positional_parameter_base@_WV?$stream_output_adapter@_W@__crt_stdio_output@@@__crt_stdio_output@@CA?AW4parameter_type@01@PEAX@Z 000000014002c7fc f i libucrt:output.obj
 0001:0002b804       ??$get_parameter_type@X@?$positional_parameter_base@_WV?$string_output_adapter@_W@__crt_stdio_output@@@__crt_stdio_output@@CA?AW4parameter_type@01@PEAX@Z 000000014002c804 f i libucrt:output.obj
 0001:0002b80c       ??$is_character_specifier@D@?$positional_parameter_base@DV?$stream_output_adapter@D@__crt_stdio_output@@@__crt_stdio_output@@CA_ND@Z 000000014002c80c f i libucrt:output.obj
 0001:0002b818       ??$is_character_specifier@D@?$positional_parameter_base@DV?$string_output_adapter@D@__crt_stdio_output@@@__crt_stdio_output@@CA_ND@Z 000000014002c818 f i libucrt:output.obj
 0001:0002b824       ??$is_character_specifier@_W@?$positional_parameter_base@_WV?$stream_output_adapter@_W@__crt_stdio_output@@@__crt_stdio_output@@CA_N_W@Z 000000014002c824 f i libucrt:output.obj
 0001:0002b838       ??$is_character_specifier@_W@?$positional_parameter_base@_WV?$string_output_adapter@_W@__crt_stdio_output@@@__crt_stdio_output@@CA_N_W@Z 000000014002c838 f i libucrt:output.obj
 0001:0002b84c       ??$is_integral_specifier@D@?$positional_parameter_base@DV?$stream_output_adapter@D@__crt_stdio_output@@@__crt_stdio_output@@CA_ND@Z 000000014002c84c f i libucrt:output.obj
 0001:0002b878       ??$is_integral_specifier@D@?$positional_parameter_base@DV?$string_output_adapter@D@__crt_stdio_output@@@__crt_stdio_output@@CA_ND@Z 000000014002c878 f i libucrt:output.obj
 0001:0002b8a4       ??$is_integral_specifier@_W@?$positional_parameter_base@_WV?$stream_output_adapter@_W@__crt_stdio_output@@@__crt_stdio_output@@CA_N_W@Z 000000014002c8a4 f i libucrt:output.obj
 0001:0002b8d4       ??$is_integral_specifier@_W@?$positional_parameter_base@_WV?$string_output_adapter@_W@__crt_stdio_output@@@__crt_stdio_output@@CA_N_W@Z 000000014002c8d4 f i libucrt:output.obj
 0001:0002b904       ??$is_pointer_specifier@D@?$positional_parameter_base@DV?$stream_output_adapter@D@__crt_stdio_output@@@__crt_stdio_output@@CA_ND@Z 000000014002c904 f i libucrt:output.obj
 0001:0002b90c       ??$is_pointer_specifier@D@?$positional_parameter_base@DV?$string_output_adapter@D@__crt_stdio_output@@@__crt_stdio_output@@CA_ND@Z 000000014002c90c f i libucrt:output.obj
 0001:0002b914       ??$is_pointer_specifier@_W@?$positional_parameter_base@_WV?$stream_output_adapter@_W@__crt_stdio_output@@@__crt_stdio_output@@CA_N_W@Z 000000014002c914 f i libucrt:output.obj
 0001:0002b920       ??$is_pointer_specifier@_W@?$positional_parameter_base@_WV?$string_output_adapter@_W@__crt_stdio_output@@@__crt_stdio_output@@CA_N_W@Z 000000014002c920 f i libucrt:output.obj
 0001:0002b92c       ??$is_string_specifier@D@?$positional_parameter_base@DV?$stream_output_adapter@D@__crt_stdio_output@@@__crt_stdio_output@@CA_ND@Z 000000014002c92c f i libucrt:output.obj
 0001:0002b938       ??$is_string_specifier@D@?$positional_parameter_base@DV?$string_output_adapter@D@__crt_stdio_output@@@__crt_stdio_output@@CA_ND@Z 000000014002c938 f i libucrt:output.obj
 0001:0002b944       ??$is_string_specifier@_W@?$positional_parameter_base@_WV?$stream_output_adapter@_W@__crt_stdio_output@@@__crt_stdio_output@@CA_N_W@Z 000000014002c944 f i libucrt:output.obj
 0001:0002b958       ??$is_string_specifier@_W@?$positional_parameter_base@_WV?$string_output_adapter@_W@__crt_stdio_output@@@__crt_stdio_output@@CA_N_W@Z 000000014002c958 f i libucrt:output.obj
 0001:0002b96c       ??$is_wide_character_specifier@D@__crt_stdio_output@@YA_N_KDW4length_modifier@0@@Z 000000014002c96c f i libucrt:output.obj
 0001:0002b9a0       ??$is_wide_character_specifier@_W@__crt_stdio_output@@YA_N_K_WW4length_modifier@0@@Z 000000014002c9a0 f i libucrt:output.obj
 0001:0002b9f0       ??$make_c_string_character_source@DPEAPEAD@__crt_strtox@@YA?AV?$c_string_character_source@D@0@QEBDQEAPEAD@Z 000000014002c9f0 f i libucrt:output.obj
 0001:0002ba08       ??$make_c_string_character_source@_WPEAPEA_W@__crt_strtox@@YA?AV?$c_string_character_source@_W@0@QEB_WQEAPEA_W@Z 000000014002ca08 f i libucrt:output.obj
 0001:0002ba20       ??$parse_integer@KV?$c_string_character_source@D@__crt_strtox@@$0A@@__crt_strtox@@YAKAEAV__crt_cached_ptd_host@@V?$c_string_character_source@D@0@H_N@Z 000000014002ca20 f i libucrt:output.obj
 0001:0002bd7c       ??$parse_integer@KV?$c_string_character_source@_W@__crt_strtox@@$0A@@__crt_strtox@@YAKAEAV__crt_cached_ptd_host@@V?$c_string_character_source@_W@0@H_N@Z 000000014002cd7c f i libucrt:output.obj
 0001:0002c6a8       ??$peek_va_arg@C@__crt_stdio_output@@YACPEAD@Z 000000014002d6a8 f i libucrt:output.obj
 0001:0002c6ac       ??$peek_va_arg@E@__crt_stdio_output@@YAEPEAD@Z 000000014002d6ac f i libucrt:output.obj
 0001:0002c6b0       ??$peek_va_arg@F@__crt_stdio_output@@YAFPEAD@Z 000000014002d6b0 f i libucrt:output.obj
 0001:0002c6b4       ??$peek_va_arg@G@__crt_stdio_output@@YAGPEAD@Z 000000014002d6b4 f i libucrt:output.obj
 0001:0002c6b8       ??$peek_va_arg@H@__crt_stdio_output@@YAHPEAD@Z 000000014002d6b8 f i libucrt:output.obj
 0001:0002c6bc       ??$peek_va_arg@I@__crt_stdio_output@@YAIPEAD@Z 000000014002d6bc f i libucrt:output.obj
 0001:0002c6c0       ??$peek_va_arg@PEAD@__crt_stdio_output@@YAPEADPEAD@Z 000000014002d6c0 f i libucrt:output.obj
 0001:0002c6c4       ??$peek_va_arg@PEAUansi_string@?1??type_case_Z@?$output_processor@DV?$stream_output_adapter@D@__crt_stdio_output@@V?$positional_parameter_base@DV?$stream_output_adapter@D@__crt_stdio_output@@@2@@__crt_stdio_output@@AEAA_NXZ@@__crt_stdio_output@@YAPEAUansi_string@?1??type_case_Z@?$output_processor@DV?$stream_output_adapter@D@__crt_stdio_output@@V?$positional_parameter_base@DV?$stream_output_adapter@D@__crt_stdio_output@@@2@@0@AEAA_NXZ@PEAD@Z 000000014002d6c4 f i libucrt:output.obj
 0001:0002c6c8       ??$peek_va_arg@PEAUansi_string@?1??type_case_Z@?$output_processor@DV?$string_output_adapter@D@__crt_stdio_output@@V?$positional_parameter_base@DV?$string_output_adapter@D@__crt_stdio_output@@@2@@__crt_stdio_output@@AEAA_NXZ@@__crt_stdio_output@@YAPEAUansi_string@?1??type_case_Z@?$output_processor@DV?$string_output_adapter@D@__crt_stdio_output@@V?$positional_parameter_base@DV?$string_output_adapter@D@__crt_stdio_output@@@2@@0@AEAA_NXZ@PEAD@Z 000000014002d6c8 f i libucrt:output.obj
 0001:0002c6cc       ??$peek_va_arg@PEAUansi_string@?1??type_case_Z@?$output_processor@_WV?$stream_output_adapter@_W@__crt_stdio_output@@V?$positional_parameter_base@_WV?$stream_output_adapter@_W@__crt_stdio_output@@@2@@__crt_stdio_output@@AEAA_NXZ@@__crt_stdio_output@@YAPEAUansi_string@?1??type_case_Z@?$output_processor@_WV?$stream_output_adapter@_W@__crt_stdio_output@@V?$positional_parameter_base@_WV?$stream_output_adapter@_W@__crt_stdio_output@@@2@@0@AEAA_NXZ@PEAD@Z 000000014002d6cc f i libucrt:output.obj
 0001:0002c6d0       ??$peek_va_arg@PEAUansi_string@?1??type_case_Z@?$output_processor@_WV?$string_output_adapter@_W@__crt_stdio_output@@V?$positional_parameter_base@_WV?$string_output_adapter@_W@__crt_stdio_output@@@2@@__crt_stdio_output@@AEAA_NXZ@@__crt_stdio_output@@YAPEAUansi_string@?1??type_case_Z@?$output_processor@_WV?$string_output_adapter@_W@__crt_stdio_output@@V?$positional_parameter_base@_WV?$string_output_adapter@_W@__crt_stdio_output@@@2@@0@AEAA_NXZ@PEAD@Z 000000014002d6d0 f i libucrt:output.obj
 0001:0002c6d4       ??$peek_va_arg@PEAX@__crt_stdio_output@@YAPEAXPEAD@Z 000000014002d6d4 f i libucrt:output.obj
 0001:0002c6d8       ??$peek_va_arg@U_CRT_DOUBLE@@@__crt_stdio_output@@YA?AU_CRT_DOUBLE@@PEAD@Z 000000014002d6d8 f i libucrt:output.obj
 0001:0002c6dc       ??$peek_va_arg@_J@__crt_stdio_output@@YA_JPEAD@Z 000000014002d6dc f i libucrt:output.obj
 0001:0002c6e0       ??$peek_va_arg@_K@__crt_stdio_output@@YA_KPEAD@Z 000000014002d6e0 f i libucrt:output.obj
 0001:0002c6e4       ??$peek_va_arg@_W@__crt_stdio_output@@YA_WPEAD@Z 000000014002d6e4 f i libucrt:output.obj
 0001:0002c6e8       ??$puttc_nolock_internal@AEBDPEAU_iobuf@@AEAV__crt_cached_ptd_host@@@?$__crt_char_traits@D@@SAHAEBD$$QEAPEAU_iobuf@@AEAV__crt_cached_ptd_host@@@Z 000000014002d6e8 f i libucrt:output.obj
 0001:0002c6f8       ??$puttc_nolock_internal@AEB_WPEAU_iobuf@@AEAV__crt_cached_ptd_host@@@?$__crt_char_traits@_W@@SAGAEB_W$$QEAPEAU_iobuf@@AEAV__crt_cached_ptd_host@@@Z 000000014002d6f8 f i libucrt:output.obj
 0001:0002c708       ??$read_va_arg@C@__crt_stdio_output@@YACAEAPEAD@Z 000000014002d708 f i libucrt:output.obj
 0001:0002c718       ??$read_va_arg@E@__crt_stdio_output@@YAEAEAPEAD@Z 000000014002d718 f i libucrt:output.obj
 0001:0002c728       ??$read_va_arg@F@__crt_stdio_output@@YAFAEAPEAD@Z 000000014002d728 f i libucrt:output.obj
 0001:0002c738       ??$read_va_arg@G@__crt_stdio_output@@YAGAEAPEAD@Z 000000014002d738 f i libucrt:output.obj
 0001:0002c748       ??$read_va_arg@H@__crt_stdio_output@@YAHAEAPEAD@Z 000000014002d748 f i libucrt:output.obj
 0001:0002c758       ??$read_va_arg@I@__crt_stdio_output@@YAIAEAPEAD@Z 000000014002d758 f i libucrt:output.obj
 0001:0002c768       ??$read_va_arg@PEAD@__crt_stdio_output@@YAPEADAEAPEAD@Z 000000014002d768 f i libucrt:output.obj
 0001:0002c778       ??$read_va_arg@PEAUansi_string@?1??type_case_Z@?$output_processor@DV?$stream_output_adapter@D@__crt_stdio_output@@V?$format_validation_base@DV?$stream_output_adapter@D@__crt_stdio_output@@@2@@__crt_stdio_output@@AEAA_NXZ@@__crt_stdio_output@@YAPEAUansi_string@?1??type_case_Z@?$output_processor@DV?$stream_output_adapter@D@__crt_stdio_output@@V?$format_validation_base@DV?$stream_output_adapter@D@__crt_stdio_output@@@2@@0@AEAA_NXZ@AEAPEAD@Z 000000014002d778 f i libucrt:output.obj
 0001:0002c788       ??$read_va_arg@PEAUansi_string@?1??type_case_Z@?$output_processor@DV?$stream_output_adapter@D@__crt_stdio_output@@V?$positional_parameter_base@DV?$stream_output_adapter@D@__crt_stdio_output@@@2@@__crt_stdio_output@@AEAA_NXZ@@__crt_stdio_output@@YAPEAUansi_string@?1??type_case_Z@?$output_processor@DV?$stream_output_adapter@D@__crt_stdio_output@@V?$positional_parameter_base@DV?$stream_output_adapter@D@__crt_stdio_output@@@2@@0@AEAA_NXZ@AEAPEAD@Z 000000014002d788 f i libucrt:output.obj
 0001:0002c798       ??$read_va_arg@PEAUansi_string@?1??type_case_Z@?$output_processor@DV?$stream_output_adapter@D@__crt_stdio_output@@V?$standard_base@DV?$stream_output_adapter@D@__crt_stdio_output@@@2@@__crt_stdio_output@@AEAA_NXZ@@__crt_stdio_output@@YAPEAUansi_string@?1??type_case_Z@?$output_processor@DV?$stream_output_adapter@D@__crt_stdio_output@@V?$standard_base@DV?$stream_output_adapter@D@__crt_stdio_output@@@2@@0@AEAA_NXZ@AEAPEAD@Z 000000014002d798 f i libucrt:output.obj
 0001:0002c7a8       ??$read_va_arg@PEAUansi_string@?1??type_case_Z@?$output_processor@DV?$string_output_adapter@D@__crt_stdio_output@@V?$format_validation_base@DV?$string_output_adapter@D@__crt_stdio_output@@@2@@__crt_stdio_output@@AEAA_NXZ@@__crt_stdio_output@@YAPEAUansi_string@?1??type_case_Z@?$output_processor@DV?$string_output_adapter@D@__crt_stdio_output@@V?$format_validation_base@DV?$string_output_adapter@D@__crt_stdio_output@@@2@@0@AEAA_NXZ@AEAPEAD@Z 000000014002d7a8 f i libucrt:output.obj
 0001:0002c7b8       ??$read_va_arg@PEAUansi_string@?1??type_case_Z@?$output_processor@DV?$string_output_adapter@D@__crt_stdio_output@@V?$positional_parameter_base@DV?$string_output_adapter@D@__crt_stdio_output@@@2@@__crt_stdio_output@@AEAA_NXZ@@__crt_stdio_output@@YAPEAUansi_string@?1??type_case_Z@?$output_processor@DV?$string_output_adapter@D@__crt_stdio_output@@V?$positional_parameter_base@DV?$string_output_adapter@D@__crt_stdio_output@@@2@@0@AEAA_NXZ@AEAPEAD@Z 000000014002d7b8 f i libucrt:output.obj
 0001:0002c7c8       ??$read_va_arg@PEAUansi_string@?1??type_case_Z@?$output_processor@DV?$string_output_adapter@D@__crt_stdio_output@@V?$standard_base@DV?$string_output_adapter@D@__crt_stdio_output@@@2@@__crt_stdio_output@@AEAA_NXZ@@__crt_stdio_output@@YAPEAUansi_string@?1??type_case_Z@?$output_processor@DV?$string_output_adapter@D@__crt_stdio_output@@V?$standard_base@DV?$string_output_adapter@D@__crt_stdio_output@@@2@@0@AEAA_NXZ@AEAPEAD@Z 000000014002d7c8 f i libucrt:output.obj
 0001:0002c7d8       ??$read_va_arg@PEAUansi_string@?1??type_case_Z@?$output_processor@_WV?$stream_output_adapter@_W@__crt_stdio_output@@V?$format_validation_base@_WV?$stream_output_adapter@_W@__crt_stdio_output@@@2@@__crt_stdio_output@@AEAA_NXZ@@__crt_stdio_output@@YAPEAUansi_string@?1??type_case_Z@?$output_processor@_WV?$stream_output_adapter@_W@__crt_stdio_output@@V?$format_validation_base@_WV?$stream_output_adapter@_W@__crt_stdio_output@@@2@@0@AEAA_NXZ@AEAPEAD@Z 000000014002d7d8 f i libucrt:output.obj
 0001:0002c7e8       ??$read_va_arg@PEAUansi_string@?1??type_case_Z@?$output_processor@_WV?$stream_output_adapter@_W@__crt_stdio_output@@V?$positional_parameter_base@_WV?$stream_output_adapter@_W@__crt_stdio_output@@@2@@__crt_stdio_output@@AEAA_NXZ@@__crt_stdio_output@@YAPEAUansi_string@?1??type_case_Z@?$output_processor@_WV?$stream_output_adapter@_W@__crt_stdio_output@@V?$positional_parameter_base@_WV?$stream_output_adapter@_W@__crt_stdio_output@@@2@@0@AEAA_NXZ@AEAPEAD@Z 000000014002d7e8 f i libucrt:output.obj
 0001:0002c7f8       ??$read_va_arg@PEAUansi_string@?1??type_case_Z@?$output_processor@_WV?$stream_output_adapter@_W@__crt_stdio_output@@V?$standard_base@_WV?$stream_output_adapter@_W@__crt_stdio_output@@@2@@__crt_stdio_output@@AEAA_NXZ@@__crt_stdio_output@@YAPEAUansi_string@?1??type_case_Z@?$output_processor@_WV?$stream_output_adapter@_W@__crt_stdio_output@@V?$standard_base@_WV?$stream_output_adapter@_W@__crt_stdio_output@@@2@@0@AEAA_NXZ@AEAPEAD@Z 000000014002d7f8 f i libucrt:output.obj
 0001:0002c808       ??$read_va_arg@PEAUansi_string@?1??type_case_Z@?$output_processor@_WV?$string_output_adapter@_W@__crt_stdio_output@@V?$format_validation_base@_WV?$string_output_adapter@_W@__crt_stdio_output@@@2@@__crt_stdio_output@@AEAA_NXZ@@__crt_stdio_output@@YAPEAUansi_string@?1??type_case_Z@?$output_processor@_WV?$string_output_adapter@_W@__crt_stdio_output@@V?$format_validation_base@_WV?$string_output_adapter@_W@__crt_stdio_output@@@2@@0@AEAA_NXZ@AEAPEAD@Z 000000014002d808 f i libucrt:output.obj
 0001:0002c818       ??$read_va_arg@PEAUansi_string@?1??type_case_Z@?$output_processor@_WV?$string_output_adapter@_W@__crt_stdio_output@@V?$positional_parameter_base@_WV?$string_output_adapter@_W@__crt_stdio_output@@@2@@__crt_stdio_output@@AEAA_NXZ@@__crt_stdio_output@@YAPEAUansi_string@?1??type_case_Z@?$output_processor@_WV?$string_output_adapter@_W@__crt_stdio_output@@V?$positional_parameter_base@_WV?$string_output_adapter@_W@__crt_stdio_output@@@2@@0@AEAA_NXZ@AEAPEAD@Z 000000014002d818 f i libucrt:output.obj
 0001:0002c828       ??$read_va_arg@PEAUansi_string@?1??type_case_Z@?$output_processor@_WV?$string_output_adapter@_W@__crt_stdio_output@@V?$standard_base@_WV?$string_output_adapter@_W@__crt_stdio_output@@@2@@__crt_stdio_output@@AEAA_NXZ@@__crt_stdio_output@@YAPEAUansi_string@?1??type_case_Z@?$output_processor@_WV?$string_output_adapter@_W@__crt_stdio_output@@V?$standard_base@_WV?$string_output_adapter@_W@__crt_stdio_output@@@2@@0@AEAA_NXZ@AEAPEAD@Z 000000014002d828 f i libucrt:output.obj
 0001:0002c838       ??$read_va_arg@PEAX@__crt_stdio_output@@YAPEAXAEAPEAD@Z 000000014002d838 f i libucrt:output.obj
 0001:0002c848       ??$read_va_arg@U_CRT_DOUBLE@@@__crt_stdio_output@@YA?AU_CRT_DOUBLE@@AEAPEAD@Z 000000014002d848 f i libucrt:output.obj
 0001:0002c85c       ??$read_va_arg@_J@__crt_stdio_output@@YA_JAEAPEAD@Z 000000014002d85c f i libucrt:output.obj
 0001:0002c86c       ??$read_va_arg@_K@__crt_stdio_output@@YA_KAEAPEAD@Z 000000014002d86c f i libucrt:output.obj
 0001:0002c87c       ??$read_va_arg@_W@__crt_stdio_output@@YA_WAEAPEAD@Z 000000014002d87c f i libucrt:output.obj
 0001:0002c88c       ??$scratch_count@D@formatting_buffer@__crt_stdio_output@@QEBA_KXZ 000000014002d88c f i libucrt:output.obj
 0001:0002c8b0       ??$scratch_data@D@formatting_buffer@__crt_stdio_output@@QEAAPEADXZ 000000014002d8b0 f i libucrt:output.obj
 0001:0002c8dc       ??$type_case_integer@$07@?$output_processor@DV?$stream_output_adapter@D@__crt_stdio_output@@V?$format_validation_base@DV?$stream_output_adapter@D@__crt_stdio_output@@@2@@__crt_stdio_output@@AEAA_N_N@Z 000000014002d8dc f i libucrt:output.obj
 0001:0002cb3c       ??$type_case_integer@$07@?$output_processor@DV?$stream_output_adapter@D@__crt_stdio_output@@V?$positional_parameter_base@DV?$stream_output_adapter@D@__crt_stdio_output@@@2@@__crt_stdio_output@@AEAA_N_N@Z 000000014002db3c f i libucrt:output.obj
 0001:0002cdf0       ??$type_case_integer@$07@?$output_processor@DV?$stream_output_adapter@D@__crt_stdio_output@@V?$standard_base@DV?$stream_output_adapter@D@__crt_stdio_output@@@2@@__crt_stdio_output@@AEAA_N_N@Z 000000014002ddf0 f i libucrt:output.obj
 0001:0002d050       ??$type_case_integer@$07@?$output_processor@DV?$string_output_adapter@D@__crt_stdio_output@@V?$format_validation_base@DV?$string_output_adapter@D@__crt_stdio_output@@@2@@__crt_stdio_output@@AEAA_N_N@Z 000000014002e050 f i libucrt:output.obj
 0001:0002d2b0       ??$type_case_integer@$07@?$output_processor@DV?$string_output_adapter@D@__crt_stdio_output@@V?$positional_parameter_base@DV?$string_output_adapter@D@__crt_stdio_output@@@2@@__crt_stdio_output@@AEAA_N_N@Z 000000014002e2b0 f i libucrt:output.obj
 0001:0002d564       ??$type_case_integer@$07@?$output_processor@DV?$string_output_adapter@D@__crt_stdio_output@@V?$standard_base@DV?$string_output_adapter@D@__crt_stdio_output@@@2@@__crt_stdio_output@@AEAA_N_N@Z 000000014002e564 f i libucrt:output.obj
 0001:0002d7c4       ??$type_case_integer@$07@?$output_processor@_WV?$stream_output_adapter@_W@__crt_stdio_output@@V?$format_validation_base@_WV?$stream_output_adapter@_W@__crt_stdio_output@@@2@@__crt_stdio_output@@AEAA_N_N@Z 000000014002e7c4 f i libucrt:output.obj
 0001:0002da2c       ??$type_case_integer@$07@?$output_processor@_WV?$stream_output_adapter@_W@__crt_stdio_output@@V?$positional_parameter_base@_WV?$stream_output_adapter@_W@__crt_stdio_output@@@2@@__crt_stdio_output@@AEAA_N_N@Z 000000014002ea2c f i libucrt:output.obj
 0001:0002dce8       ??$type_case_integer@$07@?$output_processor@_WV?$stream_output_adapter@_W@__crt_stdio_output@@V?$standard_base@_WV?$stream_output_adapter@_W@__crt_stdio_output@@@2@@__crt_stdio_output@@AEAA_N_N@Z 000000014002ece8 f i libucrt:output.obj
 0001:0002df50       ??$type_case_integer@$07@?$output_processor@_WV?$string_output_adapter@_W@__crt_stdio_output@@V?$format_validation_base@_WV?$string_output_adapter@_W@__crt_stdio_output@@@2@@__crt_stdio_output@@AEAA_N_N@Z 000000014002ef50 f i libucrt:output.obj
 0001:0002e1b8       ??$type_case_integer@$07@?$output_processor@_WV?$string_output_adapter@_W@__crt_stdio_output@@V?$positional_parameter_base@_WV?$string_output_adapter@_W@__crt_stdio_output@@@2@@__crt_stdio_output@@AEAA_N_N@Z 000000014002f1b8 f i libucrt:output.obj
 0001:0002e474       ??$type_case_integer@$07@?$output_processor@_WV?$string_output_adapter@_W@__crt_stdio_output@@V?$standard_base@_WV?$string_output_adapter@_W@__crt_stdio_output@@@2@@__crt_stdio_output@@AEAA_N_N@Z 000000014002f474 f i libucrt:output.obj
 0001:0002e6dc       ??$type_case_integer@$09@?$output_processor@DV?$stream_output_adapter@D@__crt_stdio_output@@V?$format_validation_base@DV?$stream_output_adapter@D@__crt_stdio_output@@@2@@__crt_stdio_output@@AEAA_N_N@Z 000000014002f6dc f i libucrt:output.obj
 0001:0002e93c       ??$type_case_integer@$09@?$output_processor@DV?$stream_output_adapter@D@__crt_stdio_output@@V?$positional_parameter_base@DV?$stream_output_adapter@D@__crt_stdio_output@@@2@@__crt_stdio_output@@AEAA_N_N@Z 000000014002f93c f i libucrt:output.obj
 0001:0002ebf0       ??$type_case_integer@$09@?$output_processor@DV?$stream_output_adapter@D@__crt_stdio_output@@V?$standard_base@DV?$stream_output_adapter@D@__crt_stdio_output@@@2@@__crt_stdio_output@@AEAA_N_N@Z 000000014002fbf0 f i libucrt:output.obj
 0001:0002ee50       ??$type_case_integer@$09@?$output_processor@DV?$string_output_adapter@D@__crt_stdio_output@@V?$format_validation_base@DV?$string_output_adapter@D@__crt_stdio_output@@@2@@__crt_stdio_output@@AEAA_N_N@Z 000000014002fe50 f i libucrt:output.obj
 0001:0002f0b0       ??$type_case_integer@$09@?$output_processor@DV?$string_output_adapter@D@__crt_stdio_output@@V?$positional_parameter_base@DV?$string_output_adapter@D@__crt_stdio_output@@@2@@__crt_stdio_output@@AEAA_N_N@Z 00000001400300b0 f i libucrt:output.obj
 0001:0002f364       ??$type_case_integer@$09@?$output_processor@DV?$string_output_adapter@D@__crt_stdio_output@@V?$standard_base@DV?$string_output_adapter@D@__crt_stdio_output@@@2@@__crt_stdio_output@@AEAA_N_N@Z 0000000140030364 f i libucrt:output.obj
 0001:0002f5c4       ??$type_case_integer@$09@?$output_processor@_WV?$stream_output_adapter@_W@__crt_stdio_output@@V?$format_validation_base@_WV?$stream_output_adapter@_W@__crt_stdio_output@@@2@@__crt_stdio_output@@AEAA_N_N@Z 00000001400305c4 f i libucrt:output.obj
 0001:0002f82c       ??$type_case_integer@$09@?$output_processor@_WV?$stream_output_adapter@_W@__crt_stdio_output@@V?$positional_parameter_base@_WV?$stream_output_adapter@_W@__crt_stdio_output@@@2@@__crt_stdio_output@@AEAA_N_N@Z 000000014003082c f i libucrt:output.obj
 0001:0002fae8       ??$type_case_integer@$09@?$output_processor@_WV?$stream_output_adapter@_W@__crt_stdio_output@@V?$standard_base@_WV?$stream_output_adapter@_W@__crt_stdio_output@@@2@@__crt_stdio_output@@AEAA_N_N@Z 0000000140030ae8 f i libucrt:output.obj
 0001:0002fd50       ??$type_case_integer@$09@?$output_processor@_WV?$string_output_adapter@_W@__crt_stdio_output@@V?$format_validation_base@_WV?$string_output_adapter@_W@__crt_stdio_output@@@2@@__crt_stdio_output@@AEAA_N_N@Z 0000000140030d50 f i libucrt:output.obj
 0001:0002ffb8       ??$type_case_integer@$09@?$output_processor@_WV?$string_output_adapter@_W@__crt_stdio_output@@V?$positional_parameter_base@_WV?$string_output_adapter@_W@__crt_stdio_output@@@2@@__crt_stdio_output@@AEAA_N_N@Z 0000000140030fb8 f i libucrt:output.obj
 0001:00030274       ??$type_case_integer@$09@?$output_processor@_WV?$string_output_adapter@_W@__crt_stdio_output@@V?$standard_base@_WV?$string_output_adapter@_W@__crt_stdio_output@@@2@@__crt_stdio_output@@AEAA_N_N@Z 0000000140031274 f i libucrt:output.obj
 0001:000304dc       ??$type_case_integer@$0BA@@?$output_processor@DV?$stream_output_adapter@D@__crt_stdio_output@@V?$format_validation_base@DV?$stream_output_adapter@D@__crt_stdio_output@@@2@@__crt_stdio_output@@AEAA_N_N@Z 00000001400314dc f i libucrt:output.obj
 0001:0003073c       ??$type_case_integer@$0BA@@?$output_processor@DV?$stream_output_adapter@D@__crt_stdio_output@@V?$positional_parameter_base@DV?$stream_output_adapter@D@__crt_stdio_output@@@2@@__crt_stdio_output@@AEAA_N_N@Z 000000014003173c f i libucrt:output.obj
 0001:000309f0       ??$type_case_integer@$0BA@@?$output_processor@DV?$stream_output_adapter@D@__crt_stdio_output@@V?$standard_base@DV?$stream_output_adapter@D@__crt_stdio_output@@@2@@__crt_stdio_output@@AEAA_N_N@Z 00000001400319f0 f i libucrt:output.obj
 0001:00030c50       ??$type_case_integer@$0BA@@?$output_processor@DV?$string_output_adapter@D@__crt_stdio_output@@V?$format_validation_base@DV?$string_output_adapter@D@__crt_stdio_output@@@2@@__crt_stdio_output@@AEAA_N_N@Z 0000000140031c50 f i libucrt:output.obj
 0001:00030eb0       ??$type_case_integer@$0BA@@?$output_processor@DV?$string_output_adapter@D@__crt_stdio_output@@V?$positional_parameter_base@DV?$string_output_adapter@D@__crt_stdio_output@@@2@@__crt_stdio_output@@AEAA_N_N@Z 0000000140031eb0 f i libucrt:output.obj
 0001:00031164       ??$type_case_integer@$0BA@@?$output_processor@DV?$string_output_adapter@D@__crt_stdio_output@@V?$standard_base@DV?$string_output_adapter@D@__crt_stdio_output@@@2@@__crt_stdio_output@@AEAA_N_N@Z 0000000140032164 f i libucrt:output.obj
 0001:000313c4       ??$type_case_integer@$0BA@@?$output_processor@_WV?$stream_output_adapter@_W@__crt_stdio_output@@V?$format_validation_base@_WV?$stream_output_adapter@_W@__crt_stdio_output@@@2@@__crt_stdio_output@@AEAA_N_N@Z 00000001400323c4 f i libucrt:output.obj
 0001:0003162c       ??$type_case_integer@$0BA@@?$output_processor@_WV?$stream_output_adapter@_W@__crt_stdio_output@@V?$positional_parameter_base@_WV?$stream_output_adapter@_W@__crt_stdio_output@@@2@@__crt_stdio_output@@AEAA_N_N@Z 000000014003262c f i libucrt:output.obj
 0001:000318e8       ??$type_case_integer@$0BA@@?$output_processor@_WV?$stream_output_adapter@_W@__crt_stdio_output@@V?$standard_base@_WV?$stream_output_adapter@_W@__crt_stdio_output@@@2@@__crt_stdio_output@@AEAA_N_N@Z 00000001400328e8 f i libucrt:output.obj
 0001:00031b50       ??$type_case_integer@$0BA@@?$output_processor@_WV?$string_output_adapter@_W@__crt_stdio_output@@V?$format_validation_base@_WV?$string_output_adapter@_W@__crt_stdio_output@@@2@@__crt_stdio_output@@AEAA_N_N@Z 0000000140032b50 f i libucrt:output.obj
 0001:00031db8       ??$type_case_integer@$0BA@@?$output_processor@_WV?$string_output_adapter@_W@__crt_stdio_output@@V?$positional_parameter_base@_WV?$string_output_adapter@_W@__crt_stdio_output@@@2@@__crt_stdio_output@@AEAA_N_N@Z 0000000140032db8 f i libucrt:output.obj
 0001:00032074       ??$type_case_integer@$0BA@@?$output_processor@_WV?$string_output_adapter@_W@__crt_stdio_output@@V?$standard_base@_WV?$string_output_adapter@_W@__crt_stdio_output@@@2@@__crt_stdio_output@@AEAA_N_N@Z 0000000140033074 f i libucrt:output.obj
 0001:000322dc       ??$type_case_integer_parse_into_buffer@I$07@?$output_processor@DV?$stream_output_adapter@D@__crt_stdio_output@@V?$format_validation_base@DV?$stream_output_adapter@D@__crt_stdio_output@@@2@@__crt_stdio_output@@AEAAXI_N@Z 00000001400332dc f i libucrt:output.obj
 0001:00032374       ??$type_case_integer_parse_into_buffer@I$07@?$output_processor@DV?$stream_output_adapter@D@__crt_stdio_output@@V?$positional_parameter_base@DV?$stream_output_adapter@D@__crt_stdio_output@@@2@@__crt_stdio_output@@AEAAXI_N@Z 0000000140033374 f i libucrt:output.obj
 0001:0003240c       ??$type_case_integer_parse_into_buffer@I$07@?$output_processor@DV?$stream_output_adapter@D@__crt_stdio_output@@V?$standard_base@DV?$stream_output_adapter@D@__crt_stdio_output@@@2@@__crt_stdio_output@@AEAAXI_N@Z 000000014003340c f i libucrt:output.obj
 0001:000324a4       ??$type_case_integer_parse_into_buffer@I$07@?$output_processor@DV?$string_output_adapter@D@__crt_stdio_output@@V?$format_validation_base@DV?$string_output_adapter@D@__crt_stdio_output@@@2@@__crt_stdio_output@@AEAAXI_N@Z 00000001400334a4 f i libucrt:output.obj
 0001:0003253c       ??$type_case_integer_parse_into_buffer@I$07@?$output_processor@DV?$string_output_adapter@D@__crt_stdio_output@@V?$positional_parameter_base@DV?$string_output_adapter@D@__crt_stdio_output@@@2@@__crt_stdio_output@@AEAAXI_N@Z 000000014003353c f i libucrt:output.obj
 0001:000325d4       ??$type_case_integer_parse_into_buffer@I$07@?$output_processor@DV?$string_output_adapter@D@__crt_stdio_output@@V?$standard_base@DV?$string_output_adapter@D@__crt_stdio_output@@@2@@__crt_stdio_output@@AEAAXI_N@Z 00000001400335d4 f i libucrt:output.obj
 0001:0003266c       ??$type_case_integer_parse_into_buffer@I$07@?$output_processor@_WV?$stream_output_adapter@_W@__crt_stdio_output@@V?$format_validation_base@_WV?$stream_output_adapter@_W@__crt_stdio_output@@@2@@__crt_stdio_output@@AEAAXI_N@Z 000000014003366c f i libucrt:output.obj
 0001:00032718       ??$type_case_integer_parse_into_buffer@I$07@?$output_processor@_WV?$stream_output_adapter@_W@__crt_stdio_output@@V?$positional_parameter_base@_WV?$stream_output_adapter@_W@__crt_stdio_output@@@2@@__crt_stdio_output@@AEAAXI_N@Z 0000000140033718 f i libucrt:output.obj
 0001:000327c4       ??$type_case_integer_parse_into_buffer@I$07@?$output_processor@_WV?$stream_output_adapter@_W@__crt_stdio_output@@V?$standard_base@_WV?$stream_output_adapter@_W@__crt_stdio_output@@@2@@__crt_stdio_output@@AEAAXI_N@Z 00000001400337c4 f i libucrt:output.obj
 0001:00032870       ??$type_case_integer_parse_into_buffer@I$07@?$output_processor@_WV?$string_output_adapter@_W@__crt_stdio_output@@V?$format_validation_base@_WV?$string_output_adapter@_W@__crt_stdio_output@@@2@@__crt_stdio_output@@AEAAXI_N@Z 0000000140033870 f i libucrt:output.obj
 0001:0003291c       ??$type_case_integer_parse_into_buffer@I$07@?$output_processor@_WV?$string_output_adapter@_W@__crt_stdio_output@@V?$positional_parameter_base@_WV?$string_output_adapter@_W@__crt_stdio_output@@@2@@__crt_stdio_output@@AEAAXI_N@Z 000000014003391c f i libucrt:output.obj
 0001:000329c8       ??$type_case_integer_parse_into_buffer@I$07@?$output_processor@_WV?$string_output_adapter@_W@__crt_stdio_output@@V?$standard_base@_WV?$string_output_adapter@_W@__crt_stdio_output@@@2@@__crt_stdio_output@@AEAAXI_N@Z 00000001400339c8 f i libucrt:output.obj
 0001:00032a74       ??$type_case_integer_parse_into_buffer@I$09@?$output_processor@DV?$stream_output_adapter@D@__crt_stdio_output@@V?$format_validation_base@DV?$stream_output_adapter@D@__crt_stdio_output@@@2@@__crt_stdio_output@@AEAAXI_N@Z 0000000140033a74 f i libucrt:output.obj
 0001:00032b44       ??$type_case_integer_parse_into_buffer@I$09@?$output_processor@DV?$stream_output_adapter@D@__crt_stdio_output@@V?$positional_parameter_base@DV?$stream_output_adapter@D@__crt_stdio_output@@@2@@__crt_stdio_output@@AEAAXI_N@Z 0000000140033b44 f i libucrt:output.obj
 0001:00032c14       ??$type_case_integer_parse_into_buffer@I$09@?$output_processor@DV?$stream_output_adapter@D@__crt_stdio_output@@V?$standard_base@DV?$stream_output_adapter@D@__crt_stdio_output@@@2@@__crt_stdio_output@@AEAAXI_N@Z 0000000140033c14 f i libucrt:output.obj
 0001:00032ce4       ??$type_case_integer_parse_into_buffer@I$09@?$output_processor@DV?$string_output_adapter@D@__crt_stdio_output@@V?$format_validation_base@DV?$string_output_adapter@D@__crt_stdio_output@@@2@@__crt_stdio_output@@AEAAXI_N@Z 0000000140033ce4 f i libucrt:output.obj
 0001:00032db4       ??$type_case_integer_parse_into_buffer@I$09@?$output_processor@DV?$string_output_adapter@D@__crt_stdio_output@@V?$positional_parameter_base@DV?$string_output_adapter@D@__crt_stdio_output@@@2@@__crt_stdio_output@@AEAAXI_N@Z 0000000140033db4 f i libucrt:output.obj
 0001:00032e84       ??$type_case_integer_parse_into_buffer@I$09@?$output_processor@DV?$string_output_adapter@D@__crt_stdio_output@@V?$standard_base@DV?$string_output_adapter@D@__crt_stdio_output@@@2@@__crt_stdio_output@@AEAAXI_N@Z 0000000140033e84 f i libucrt:output.obj
 0001:00032f54       ??$type_case_integer_parse_into_buffer@I$09@?$output_processor@_WV?$stream_output_adapter@_W@__crt_stdio_output@@V?$format_validation_base@_WV?$stream_output_adapter@_W@__crt_stdio_output@@@2@@__crt_stdio_output@@AEAAXI_N@Z 0000000140033f54 f i libucrt:output.obj
 0001:00033038       ??$type_case_integer_parse_into_buffer@I$09@?$output_processor@_WV?$stream_output_adapter@_W@__crt_stdio_output@@V?$positional_parameter_base@_WV?$stream_output_adapter@_W@__crt_stdio_output@@@2@@__crt_stdio_output@@AEAAXI_N@Z 0000000140034038 f i libucrt:output.obj
 0001:0003311c       ??$type_case_integer_parse_into_buffer@I$09@?$output_processor@_WV?$stream_output_adapter@_W@__crt_stdio_output@@V?$standard_base@_WV?$stream_output_adapter@_W@__crt_stdio_output@@@2@@__crt_stdio_output@@AEAAXI_N@Z 000000014003411c f i libucrt:output.obj
 0001:00033200       ??$type_case_integer_parse_into_buffer@I$09@?$output_processor@_WV?$string_output_adapter@_W@__crt_stdio_output@@V?$format_validation_base@_WV?$string_output_adapter@_W@__crt_stdio_output@@@2@@__crt_stdio_output@@AEAAXI_N@Z 0000000140034200 f i libucrt:output.obj
 0001:000332e4       ??$type_case_integer_parse_into_buffer@I$09@?$output_processor@_WV?$string_output_adapter@_W@__crt_stdio_output@@V?$positional_parameter_base@_WV?$string_output_adapter@_W@__crt_stdio_output@@@2@@__crt_stdio_output@@AEAAXI_N@Z 00000001400342e4 f i libucrt:output.obj
 0001:000333c8       ??$type_case_integer_parse_into_buffer@I$09@?$output_processor@_WV?$string_output_adapter@_W@__crt_stdio_output@@V?$standard_base@_WV?$string_output_adapter@_W@__crt_stdio_output@@@2@@__crt_stdio_output@@AEAAXI_N@Z 00000001400343c8 f i libucrt:output.obj
 0001:000334ac       ??$type_case_integer_parse_into_buffer@I$0BA@@?$output_processor@DV?$stream_output_adapter@D@__crt_stdio_output@@V?$format_validation_base@DV?$stream_output_adapter@D@__crt_stdio_output@@@2@@__crt_stdio_output@@AEAAXI_N@Z 00000001400344ac f i libucrt:output.obj
 0001:0003355c       ??$type_case_integer_parse_into_buffer@I$0BA@@?$output_processor@DV?$stream_output_adapter@D@__crt_stdio_output@@V?$positional_parameter_base@DV?$stream_output_adapter@D@__crt_stdio_output@@@2@@__crt_stdio_output@@AEAAXI_N@Z 000000014003455c f i libucrt:output.obj
 0001:0003360c       ??$type_case_integer_parse_into_buffer@I$0BA@@?$output_processor@DV?$stream_output_adapter@D@__crt_stdio_output@@V?$standard_base@DV?$stream_output_adapter@D@__crt_stdio_output@@@2@@__crt_stdio_output@@AEAAXI_N@Z 000000014003460c f i libucrt:output.obj
 0001:000336bc       ??$type_case_integer_parse_into_buffer@I$0BA@@?$output_processor@DV?$string_output_adapter@D@__crt_stdio_output@@V?$format_validation_base@DV?$string_output_adapter@D@__crt_stdio_output@@@2@@__crt_stdio_output@@AEAAXI_N@Z 00000001400346bc f i libucrt:output.obj
 0001:0003376c       ??$type_case_integer_parse_into_buffer@I$0BA@@?$output_processor@DV?$string_output_adapter@D@__crt_stdio_output@@V?$positional_parameter_base@DV?$string_output_adapter@D@__crt_stdio_output@@@2@@__crt_stdio_output@@AEAAXI_N@Z 000000014003476c f i libucrt:output.obj
 0001:0003381c       ??$type_case_integer_parse_into_buffer@I$0BA@@?$output_processor@DV?$string_output_adapter@D@__crt_stdio_output@@V?$standard_base@DV?$string_output_adapter@D@__crt_stdio_output@@@2@@__crt_stdio_output@@AEAAXI_N@Z 000000014003481c f i libucrt:output.obj
 0001:000338cc       ??$type_case_integer_parse_into_buffer@I$0BA@@?$output_processor@_WV?$stream_output_adapter@_W@__crt_stdio_output@@V?$format_validation_base@_WV?$stream_output_adapter@_W@__crt_stdio_output@@@2@@__crt_stdio_output@@AEAAXI_N@Z 00000001400348cc f i libucrt:output.obj
 0001:0003399c       ??$type_case_integer_parse_into_buffer@I$0BA@@?$output_processor@_WV?$stream_output_adapter@_W@__crt_stdio_output@@V?$positional_parameter_base@_WV?$stream_output_adapter@_W@__crt_stdio_output@@@2@@__crt_stdio_output@@AEAAXI_N@Z 000000014003499c f i libucrt:output.obj
 0001:00033a6c       ??$type_case_integer_parse_into_buffer@I$0BA@@?$output_processor@_WV?$stream_output_adapter@_W@__crt_stdio_output@@V?$standard_base@_WV?$stream_output_adapter@_W@__crt_stdio_output@@@2@@__crt_stdio_output@@AEAAXI_N@Z 0000000140034a6c f i libucrt:output.obj
 0001:00033b3c       ??$type_case_integer_parse_into_buffer@I$0BA@@?$output_processor@_WV?$string_output_adapter@_W@__crt_stdio_output@@V?$format_validation_base@_WV?$string_output_adapter@_W@__crt_stdio_output@@@2@@__crt_stdio_output@@AEAAXI_N@Z 0000000140034b3c f i libucrt:output.obj
 0001:00033c0c       ??$type_case_integer_parse_into_buffer@I$0BA@@?$output_processor@_WV?$string_output_adapter@_W@__crt_stdio_output@@V?$positional_parameter_base@_WV?$string_output_adapter@_W@__crt_stdio_output@@@2@@__crt_stdio_output@@AEAAXI_N@Z 0000000140034c0c f i libucrt:output.obj
 0001:00033cdc       ??$type_case_integer_parse_into_buffer@I$0BA@@?$output_processor@_WV?$string_output_adapter@_W@__crt_stdio_output@@V?$standard_base@_WV?$string_output_adapter@_W@__crt_stdio_output@@@2@@__crt_stdio_output@@AEAAXI_N@Z 0000000140034cdc f i libucrt:output.obj
 0001:00033dac       ??$type_case_integer_parse_into_buffer@_K$07@?$output_processor@DV?$stream_output_adapter@D@__crt_stdio_output@@V?$format_validation_base@DV?$stream_output_adapter@D@__crt_stdio_output@@@2@@__crt_stdio_output@@AEAAX_K_N@Z 0000000140034dac f i libucrt:output.obj
 0001:00033e44       ??$type_case_integer_parse_into_buffer@_K$07@?$output_processor@DV?$stream_output_adapter@D@__crt_stdio_output@@V?$positional_parameter_base@DV?$stream_output_adapter@D@__crt_stdio_output@@@2@@__crt_stdio_output@@AEAAX_K_N@Z 0000000140034e44 f i libucrt:output.obj
 0001:00033edc       ??$type_case_integer_parse_into_buffer@_K$07@?$output_processor@DV?$stream_output_adapter@D@__crt_stdio_output@@V?$standard_base@DV?$stream_output_adapter@D@__crt_stdio_output@@@2@@__crt_stdio_output@@AEAAX_K_N@Z 0000000140034edc f i libucrt:output.obj
 0001:00033f74       ??$type_case_integer_parse_into_buffer@_K$07@?$output_processor@DV?$string_output_adapter@D@__crt_stdio_output@@V?$format_validation_base@DV?$string_output_adapter@D@__crt_stdio_output@@@2@@__crt_stdio_output@@AEAAX_K_N@Z 0000000140034f74 f i libucrt:output.obj
 0001:0003400c       ??$type_case_integer_parse_into_buffer@_K$07@?$output_processor@DV?$string_output_adapter@D@__crt_stdio_output@@V?$positional_parameter_base@DV?$string_output_adapter@D@__crt_stdio_output@@@2@@__crt_stdio_output@@AEAAX_K_N@Z 000000014003500c f i libucrt:output.obj
 0001:000340a4       ??$type_case_integer_parse_into_buffer@_K$07@?$output_processor@DV?$string_output_adapter@D@__crt_stdio_output@@V?$standard_base@DV?$string_output_adapter@D@__crt_stdio_output@@@2@@__crt_stdio_output@@AEAAX_K_N@Z 00000001400350a4 f i libucrt:output.obj
 0001:0003413c       ??$type_case_integer_parse_into_buffer@_K$07@?$output_processor@_WV?$stream_output_adapter@_W@__crt_stdio_output@@V?$format_validation_base@_WV?$stream_output_adapter@_W@__crt_stdio_output@@@2@@__crt_stdio_output@@AEAAX_K_N@Z 000000014003513c f i libucrt:output.obj
 0001:000341e8       ??$type_case_integer_parse_into_buffer@_K$07@?$output_processor@_WV?$stream_output_adapter@_W@__crt_stdio_output@@V?$positional_parameter_base@_WV?$stream_output_adapter@_W@__crt_stdio_output@@@2@@__crt_stdio_output@@AEAAX_K_N@Z 00000001400351e8 f i libucrt:output.obj
 0001:00034294       ??$type_case_integer_parse_into_buffer@_K$07@?$output_processor@_WV?$stream_output_adapter@_W@__crt_stdio_output@@V?$standard_base@_WV?$stream_output_adapter@_W@__crt_stdio_output@@@2@@__crt_stdio_output@@AEAAX_K_N@Z 0000000140035294 f i libucrt:output.obj
 0001:00034340       ??$type_case_integer_parse_into_buffer@_K$07@?$output_processor@_WV?$string_output_adapter@_W@__crt_stdio_output@@V?$format_validation_base@_WV?$string_output_adapter@_W@__crt_stdio_output@@@2@@__crt_stdio_output@@AEAAX_K_N@Z 0000000140035340 f i libucrt:output.obj
 0001:000343ec       ??$type_case_integer_parse_into_buffer@_K$07@?$output_processor@_WV?$string_output_adapter@_W@__crt_stdio_output@@V?$positional_parameter_base@_WV?$string_output_adapter@_W@__crt_stdio_output@@@2@@__crt_stdio_output@@AEAAX_K_N@Z 00000001400353ec f i libucrt:output.obj
 0001:00034498       ??$type_case_integer_parse_into_buffer@_K$07@?$output_processor@_WV?$string_output_adapter@_W@__crt_stdio_output@@V?$standard_base@_WV?$string_output_adapter@_W@__crt_stdio_output@@@2@@__crt_stdio_output@@AEAAX_K_N@Z 0000000140035498 f i libucrt:output.obj
 0001:00034544       ??$type_case_integer_parse_into_buffer@_K$09@?$output_processor@DV?$stream_output_adapter@D@__crt_stdio_output@@V?$format_validation_base@DV?$stream_output_adapter@D@__crt_stdio_output@@@2@@__crt_stdio_output@@AEAAX_K_N@Z 0000000140035544 f i libucrt:output.obj
 0001:0003461c       ??$type_case_integer_parse_into_buffer@_K$09@?$output_processor@DV?$stream_output_adapter@D@__crt_stdio_output@@V?$positional_parameter_base@DV?$stream_output_adapter@D@__crt_stdio_output@@@2@@__crt_stdio_output@@AEAAX_K_N@Z 000000014003561c f i libucrt:output.obj
 0001:000346f4       ??$type_case_integer_parse_into_buffer@_K$09@?$output_processor@DV?$stream_output_adapter@D@__crt_stdio_output@@V?$standard_base@DV?$stream_output_adapter@D@__crt_stdio_output@@@2@@__crt_stdio_output@@AEAAX_K_N@Z 00000001400356f4 f i libucrt:output.obj
 0001:000347cc       ??$type_case_integer_parse_into_buffer@_K$09@?$output_processor@DV?$string_output_adapter@D@__crt_stdio_output@@V?$format_validation_base@DV?$string_output_adapter@D@__crt_stdio_output@@@2@@__crt_stdio_output@@AEAAX_K_N@Z 00000001400357cc f i libucrt:output.obj
 0001:000348a4       ??$type_case_integer_parse_into_buffer@_K$09@?$output_processor@DV?$string_output_adapter@D@__crt_stdio_output@@V?$positional_parameter_base@DV?$string_output_adapter@D@__crt_stdio_output@@@2@@__crt_stdio_output@@AEAAX_K_N@Z 00000001400358a4 f i libucrt:output.obj
 0001:0003497c       ??$type_case_integer_parse_into_buffer@_K$09@?$output_processor@DV?$string_output_adapter@D@__crt_stdio_output@@V?$standard_base@DV?$string_output_adapter@D@__crt_stdio_output@@@2@@__crt_stdio_output@@AEAAX_K_N@Z 000000014003597c f i libucrt:output.obj
 0001:00034a54       ??$type_case_integer_parse_into_buffer@_K$09@?$output_processor@_WV?$stream_output_adapter@_W@__crt_stdio_output@@V?$format_validation_base@_WV?$stream_output_adapter@_W@__crt_stdio_output@@@2@@__crt_stdio_output@@AEAAX_K_N@Z 0000000140035a54 f i libucrt:output.obj
 0001:00034b40       ??$type_case_integer_parse_into_buffer@_K$09@?$output_processor@_WV?$stream_output_adapter@_W@__crt_stdio_output@@V?$positional_parameter_base@_WV?$stream_output_adapter@_W@__crt_stdio_output@@@2@@__crt_stdio_output@@AEAAX_K_N@Z 0000000140035b40 f i libucrt:output.obj
 0001:00034c2c       ??$type_case_integer_parse_into_buffer@_K$09@?$output_processor@_WV?$stream_output_adapter@_W@__crt_stdio_output@@V?$standard_base@_WV?$stream_output_adapter@_W@__crt_stdio_output@@@2@@__crt_stdio_output@@AEAAX_K_N@Z 0000000140035c2c f i libucrt:output.obj
 0001:00034d18       ??$type_case_integer_parse_into_buffer@_K$09@?$output_processor@_WV?$string_output_adapter@_W@__crt_stdio_output@@V?$format_validation_base@_WV?$string_output_adapter@_W@__crt_stdio_output@@@2@@__crt_stdio_output@@AEAAX_K_N@Z 0000000140035d18 f i libucrt:output.obj
 0001:00034e04       ??$type_case_integer_parse_into_buffer@_K$09@?$output_processor@_WV?$string_output_adapter@_W@__crt_stdio_output@@V?$positional_parameter_base@_WV?$string_output_adapter@_W@__crt_stdio_output@@@2@@__crt_stdio_output@@AEAAX_K_N@Z 0000000140035e04 f i libucrt:output.obj
 0001:00034ef0       ??$type_case_integer_parse_into_buffer@_K$09@?$output_processor@_WV?$string_output_adapter@_W@__crt_stdio_output@@V?$standard_base@_WV?$string_output_adapter@_W@__crt_stdio_output@@@2@@__crt_stdio_output@@AEAAX_K_N@Z 0000000140035ef0 f i libucrt:output.obj
 0001:00034fdc       ??$type_case_integer_parse_into_buffer@_K$0BA@@?$output_processor@DV?$stream_output_adapter@D@__crt_stdio_output@@V?$format_validation_base@DV?$stream_output_adapter@D@__crt_stdio_output@@@2@@__crt_stdio_output@@AEAAX_K_N@Z 0000000140035fdc f i libucrt:output.obj
 0001:0003508c       ??$type_case_integer_parse_into_buffer@_K$0BA@@?$output_processor@DV?$stream_output_adapter@D@__crt_stdio_output@@V?$positional_parameter_base@DV?$stream_output_adapter@D@__crt_stdio_output@@@2@@__crt_stdio_output@@AEAAX_K_N@Z 000000014003608c f i libucrt:output.obj
 0001:0003513c       ??$type_case_integer_parse_into_buffer@_K$0BA@@?$output_processor@DV?$stream_output_adapter@D@__crt_stdio_output@@V?$standard_base@DV?$stream_output_adapter@D@__crt_stdio_output@@@2@@__crt_stdio_output@@AEAAX_K_N@Z 000000014003613c f i libucrt:output.obj
 0001:000351ec       ??$type_case_integer_parse_into_buffer@_K$0BA@@?$output_processor@DV?$string_output_adapter@D@__crt_stdio_output@@V?$format_validation_base@DV?$string_output_adapter@D@__crt_stdio_output@@@2@@__crt_stdio_output@@AEAAX_K_N@Z 00000001400361ec f i libucrt:output.obj
 0001:0003529c       ??$type_case_integer_parse_into_buffer@_K$0BA@@?$output_processor@DV?$string_output_adapter@D@__crt_stdio_output@@V?$positional_parameter_base@DV?$string_output_adapter@D@__crt_stdio_output@@@2@@__crt_stdio_output@@AEAAX_K_N@Z 000000014003629c f i libucrt:output.obj
 0001:0003534c       ??$type_case_integer_parse_into_buffer@_K$0BA@@?$output_processor@DV?$string_output_adapter@D@__crt_stdio_output@@V?$standard_base@DV?$string_output_adapter@D@__crt_stdio_output@@@2@@__crt_stdio_output@@AEAAX_K_N@Z 000000014003634c f i libucrt:output.obj
 0001:000353fc       ??$type_case_integer_parse_into_buffer@_K$0BA@@?$output_processor@_WV?$stream_output_adapter@_W@__crt_stdio_output@@V?$format_validation_base@_WV?$stream_output_adapter@_W@__crt_stdio_output@@@2@@__crt_stdio_output@@AEAAX_K_N@Z 00000001400363fc f i libucrt:output.obj
 0001:000354cc       ??$type_case_integer_parse_into_buffer@_K$0BA@@?$output_processor@_WV?$stream_output_adapter@_W@__crt_stdio_output@@V?$positional_parameter_base@_WV?$stream_output_adapter@_W@__crt_stdio_output@@@2@@__crt_stdio_output@@AEAAX_K_N@Z 00000001400364cc f i libucrt:output.obj
 0001:0003559c       ??$type_case_integer_parse_into_buffer@_K$0BA@@?$output_processor@_WV?$stream_output_adapter@_W@__crt_stdio_output@@V?$standard_base@_WV?$stream_output_adapter@_W@__crt_stdio_output@@@2@@__crt_stdio_output@@AEAAX_K_N@Z 000000014003659c f i libucrt:output.obj
 0001:0003566c       ??$type_case_integer_parse_into_buffer@_K$0BA@@?$output_processor@_WV?$string_output_adapter@_W@__crt_stdio_output@@V?$format_validation_base@_WV?$string_output_adapter@_W@__crt_stdio_output@@@2@@__crt_stdio_output@@AEAAX_K_N@Z 000000014003666c f i libucrt:output.obj
 0001:0003573c       ??$type_case_integer_parse_into_buffer@_K$0BA@@?$output_processor@_WV?$string_output_adapter@_W@__crt_stdio_output@@V?$positional_parameter_base@_WV?$string_output_adapter@_W@__crt_stdio_output@@@2@@__crt_stdio_output@@AEAAX_K_N@Z 000000014003673c f i libucrt:output.obj
 0001:0003580c       ??$type_case_integer_parse_into_buffer@_K$0BA@@?$output_processor@_WV?$string_output_adapter@_W@__crt_stdio_output@@V?$standard_base@_WV?$string_output_adapter@_W@__crt_stdio_output@@@2@@__crt_stdio_output@@AEAAX_K_N@Z 000000014003680c f i libucrt:output.obj
 0001:000358dc       ??$write_multiple_characters@V?$stream_output_adapter@D@__crt_stdio_output@@D@__crt_stdio_output@@YAXAEBV?$stream_output_adapter@D@0@DHQEAHAEAV__crt_cached_ptd_host@@@Z 00000001400368dc f i libucrt:output.obj
 0001:00035990       ??$write_multiple_characters@V?$stream_output_adapter@_W@__crt_stdio_output@@D@__crt_stdio_output@@YAXAEBV?$stream_output_adapter@_W@0@DHQEAHAEAV__crt_cached_ptd_host@@@Z 0000000140036990 f i libucrt:output.obj
 0001:00035a4c       ??$write_multiple_characters@V?$string_output_adapter@D@__crt_stdio_output@@D@__crt_stdio_output@@YAXAEBV?$string_output_adapter@D@0@DHQEAHAEAV__crt_cached_ptd_host@@@Z 0000000140036a4c f i libucrt:output.obj
 0001:00035ae0       ??$write_multiple_characters@V?$string_output_adapter@_W@__crt_stdio_output@@D@__crt_stdio_output@@YAXAEBV?$string_output_adapter@_W@0@DHQEAHAEAV__crt_cached_ptd_host@@@Z 0000000140036ae0 f i libucrt:output.obj
 0001:00035d0c       ??0?$common_data@D@__crt_stdio_output@@IEAA@AEAV__crt_cached_ptd_host@@@Z 0000000140036d0c f i libucrt:output.obj
 0001:00035d54       ??0?$common_data@_W@__crt_stdio_output@@IEAA@AEAV__crt_cached_ptd_host@@@Z 0000000140036d54 f i libucrt:output.obj
 0001:00035da0       ??0?$output_adapter_data@DV?$stream_output_adapter@D@__crt_stdio_output@@@__crt_stdio_output@@IEAA@AEBV?$stream_output_adapter@D@1@_KQEBDAEAV__crt_cached_ptd_host@@QEAD@Z 0000000140036da0 f i libucrt:output.obj
 0001:00035e18       ??0?$output_adapter_data@DV?$string_output_adapter@D@__crt_stdio_output@@@__crt_stdio_output@@IEAA@AEBV?$string_output_adapter@D@1@_KQEBDAEAV__crt_cached_ptd_host@@QEAD@Z 0000000140036e18 f i libucrt:output.obj
 0001:00035e90       ??0?$output_adapter_data@_WV?$stream_output_adapter@_W@__crt_stdio_output@@@__crt_stdio_output@@IEAA@AEBV?$stream_output_adapter@_W@1@_KQEB_WAEAV__crt_cached_ptd_host@@QEAD@Z 0000000140036e90 f i libucrt:output.obj
 0001:00035f10       ??0?$output_adapter_data@_WV?$string_output_adapter@_W@__crt_stdio_output@@@__crt_stdio_output@@IEAA@AEBV?$string_output_adapter@_W@1@_KQEB_WAEAV__crt_cached_ptd_host@@QEAD@Z 0000000140036f10 f i libucrt:output.obj
 0001:00035f90       ??0?$output_processor@DV?$stream_output_adapter@D@__crt_stdio_output@@V?$format_validation_base@DV?$stream_output_adapter@D@__crt_stdio_output@@@2@@__crt_stdio_output@@QEAA@AEBV?$stream_output_adapter@D@1@_KQEBDAEAV__crt_cached_ptd_host@@QEAD@Z 0000000140036f90 f i libucrt:output.obj
 0001:00036010       ??0?$output_processor@DV?$stream_output_adapter@D@__crt_stdio_output@@V?$positional_parameter_base@DV?$stream_output_adapter@D@__crt_stdio_output@@@2@@__crt_stdio_output@@QEAA@AEBV?$stream_output_adapter@D@1@_KQEBDAEAV__crt_cached_ptd_host@@QEAD@Z 0000000140037010 f i libucrt:output.obj
 0001:000360b8       ??0?$output_processor@DV?$stream_output_adapter@D@__crt_stdio_output@@V?$standard_base@DV?$stream_output_adapter@D@__crt_stdio_output@@@2@@__crt_stdio_output@@QEAA@AEBV?$stream_output_adapter@D@1@_KQEBDAEAV__crt_cached_ptd_host@@QEAD@Z 00000001400370b8 f i libucrt:output.obj
 0001:00036138       ??0?$output_processor@DV?$string_output_adapter@D@__crt_stdio_output@@V?$format_validation_base@DV?$string_output_adapter@D@__crt_stdio_output@@@2@@__crt_stdio_output@@QEAA@AEBV?$string_output_adapter@D@1@_KQEBDAEAV__crt_cached_ptd_host@@QEAD@Z 0000000140037138 f i libucrt:output.obj
 0001:000361b8       ??0?$output_processor@DV?$string_output_adapter@D@__crt_stdio_output@@V?$positional_parameter_base@DV?$string_output_adapter@D@__crt_stdio_output@@@2@@__crt_stdio_output@@QEAA@AEBV?$string_output_adapter@D@1@_KQEBDAEAV__crt_cached_ptd_host@@QEAD@Z 00000001400371b8 f i libucrt:output.obj
 0001:00036260       ??0?$output_processor@DV?$string_output_adapter@D@__crt_stdio_output@@V?$standard_base@DV?$string_output_adapter@D@__crt_stdio_output@@@2@@__crt_stdio_output@@QEAA@AEBV?$string_output_adapter@D@1@_KQEBDAEAV__crt_cached_ptd_host@@QEAD@Z 0000000140037260 f i libucrt:output.obj
 0001:000362e0       ??0?$output_processor@_WV?$stream_output_adapter@_W@__crt_stdio_output@@V?$format_validation_base@_WV?$stream_output_adapter@_W@__crt_stdio_output@@@2@@__crt_stdio_output@@QEAA@AEBV?$stream_output_adapter@_W@1@_KQEB_WAEAV__crt_cached_ptd_host@@QEAD@Z 00000001400372e0 f i libucrt:output.obj
 0001:00036368       ??0?$output_processor@_WV?$stream_output_adapter@_W@__crt_stdio_output@@V?$positional_parameter_base@_WV?$stream_output_adapter@_W@__crt_stdio_output@@@2@@__crt_stdio_output@@QEAA@AEBV?$stream_output_adapter@_W@1@_KQEB_WAEAV__crt_cached_ptd_host@@QEAD@Z 0000000140037368 f i libucrt:output.obj
 0001:00036414       ??0?$output_processor@_WV?$stream_output_adapter@_W@__crt_stdio_output@@V?$standard_base@_WV?$stream_output_adapter@_W@__crt_stdio_output@@@2@@__crt_stdio_output@@QEAA@AEBV?$stream_output_adapter@_W@1@_KQEB_WAEAV__crt_cached_ptd_host@@QEAD@Z 0000000140037414 f i libucrt:output.obj
 0001:0003649c       ??0?$output_processor@_WV?$string_output_adapter@_W@__crt_stdio_output@@V?$format_validation_base@_WV?$string_output_adapter@_W@__crt_stdio_output@@@2@@__crt_stdio_output@@QEAA@AEBV?$string_output_adapter@_W@1@_KQEB_WAEAV__crt_cached_ptd_host@@QEAD@Z 000000014003749c f i libucrt:output.obj
 0001:00036524       ??0?$output_processor@_WV?$string_output_adapter@_W@__crt_stdio_output@@V?$positional_parameter_base@_WV?$string_output_adapter@_W@__crt_stdio_output@@@2@@__crt_stdio_output@@QEAA@AEBV?$string_output_adapter@_W@1@_KQEB_WAEAV__crt_cached_ptd_host@@QEAD@Z 0000000140037524 f i libucrt:output.obj
 0001:000365d0       ??0?$output_processor@_WV?$string_output_adapter@_W@__crt_stdio_output@@V?$standard_base@_WV?$string_output_adapter@_W@__crt_stdio_output@@@2@@__crt_stdio_output@@QEAA@AEBV?$string_output_adapter@_W@1@_KQEB_WAEAV__crt_cached_ptd_host@@QEAD@Z 00000001400375d0 f i libucrt:output.obj
 0001:00036658       ??0?$stream_output_adapter@D@__crt_stdio_output@@QEAA@QEAU_iobuf@@@Z 0000000140037658 f i libucrt:output.obj
 0001:00036660       ??0?$stream_output_adapter@_W@__crt_stdio_output@@QEAA@QEAU_iobuf@@@Z 0000000140037660 f i libucrt:output.obj
 0001:00036668       ??0?$string_output_adapter@D@__crt_stdio_output@@QEAA@QEAU?$string_output_adapter_context@D@1@@Z 0000000140037668 f i libucrt:output.obj
 0001:00036670       ??0?$string_output_adapter@_W@__crt_stdio_output@@QEAA@QEAU?$string_output_adapter_context@_W@1@@Z 0000000140037670 f i libucrt:output.obj
 0001:00036678       ??0__acrt_stdio_temporary_buffering_guard@@QEAA@QEAU_iobuf@@AEAV__crt_cached_ptd_host@@@Z 0000000140037678 f i libucrt:output.obj
 0001:000366a8       ??0formatting_buffer@__crt_stdio_output@@QEAA@XZ 00000001400376a8 f i libucrt:output.obj
 0001:000366c4       ??0guard@?$cached@H@__crt_cached_ptd_host@@QEAA@AEAU12@@Z 00000001400376c4 f i libucrt:output.obj
 0001:000366dc       ??1?$common_data@D@__crt_stdio_output@@QEAA@XZ 00000001400376dc f i libucrt:output.obj
 0001:00036708       ??1?$common_data@_W@__crt_stdio_output@@QEAA@XZ 0000000140037708 f i libucrt:output.obj
 0001:00036734       ??1?$format_validation_base@DV?$stream_output_adapter@D@__crt_stdio_output@@@__crt_stdio_output@@QEAA@XZ 0000000140037734 f i libucrt:output.obj
 0001:00036760       ??1?$format_validation_base@DV?$string_output_adapter@D@__crt_stdio_output@@@__crt_stdio_output@@QEAA@XZ 0000000140037760 f i libucrt:output.obj
 0001:0003678c       ??1?$format_validation_base@_WV?$stream_output_adapter@_W@__crt_stdio_output@@@__crt_stdio_output@@QEAA@XZ 000000014003778c f i libucrt:output.obj
 0001:000367b8       ??1?$format_validation_base@_WV?$string_output_adapter@_W@__crt_stdio_output@@@__crt_stdio_output@@QEAA@XZ 00000001400377b8 f i libucrt:output.obj
 0001:000367e4       ??1?$output_adapter_data@DV?$stream_output_adapter@D@__crt_stdio_output@@@__crt_stdio_output@@QEAA@XZ 00000001400377e4 f i libucrt:output.obj
 0001:00036810       ??1?$output_adapter_data@DV?$string_output_adapter@D@__crt_stdio_output@@@__crt_stdio_output@@QEAA@XZ 0000000140037810 f i libucrt:output.obj
 0001:0003683c       ??1?$output_adapter_data@_WV?$stream_output_adapter@_W@__crt_stdio_output@@@__crt_stdio_output@@QEAA@XZ 000000014003783c f i libucrt:output.obj
 0001:00036868       ??1?$output_adapter_data@_WV?$string_output_adapter@_W@__crt_stdio_output@@@__crt_stdio_output@@QEAA@XZ 0000000140037868 f i libucrt:output.obj
 0001:00036894       ??1?$output_processor@DV?$stream_output_adapter@D@__crt_stdio_output@@V?$format_validation_base@DV?$stream_output_adapter@D@__crt_stdio_output@@@2@@__crt_stdio_output@@QEAA@XZ 0000000140037894 f i libucrt:output.obj
 0001:000368c0       ??1?$output_processor@DV?$stream_output_adapter@D@__crt_stdio_output@@V?$positional_parameter_base@DV?$stream_output_adapter@D@__crt_stdio_output@@@2@@__crt_stdio_output@@QEAA@XZ 00000001400378c0 f i libucrt:output.obj
 0001:000368ec       ??1?$output_processor@DV?$stream_output_adapter@D@__crt_stdio_output@@V?$standard_base@DV?$stream_output_adapter@D@__crt_stdio_output@@@2@@__crt_stdio_output@@QEAA@XZ 00000001400378ec f i libucrt:output.obj
 0001:00036918       ??1?$output_processor@DV?$string_output_adapter@D@__crt_stdio_output@@V?$format_validation_base@DV?$string_output_adapter@D@__crt_stdio_output@@@2@@__crt_stdio_output@@QEAA@XZ 0000000140037918 f i libucrt:output.obj
 0001:00036944       ??1?$output_processor@DV?$string_output_adapter@D@__crt_stdio_output@@V?$positional_parameter_base@DV?$string_output_adapter@D@__crt_stdio_output@@@2@@__crt_stdio_output@@QEAA@XZ 0000000140037944 f i libucrt:output.obj
 0001:00036970       ??1?$output_processor@DV?$string_output_adapter@D@__crt_stdio_output@@V?$standard_base@DV?$string_output_adapter@D@__crt_stdio_output@@@2@@__crt_stdio_output@@QEAA@XZ 0000000140037970 f i libucrt:output.obj
 0001:0003699c       ??1?$output_processor@_WV?$stream_output_adapter@_W@__crt_stdio_output@@V?$format_validation_base@_WV?$stream_output_adapter@_W@__crt_stdio_output@@@2@@__crt_stdio_output@@QEAA@XZ 000000014003799c f i libucrt:output.obj
 0001:000369c8       ??1?$output_processor@_WV?$stream_output_adapter@_W@__crt_stdio_output@@V?$positional_parameter_base@_WV?$stream_output_adapter@_W@__crt_stdio_output@@@2@@__crt_stdio_output@@QEAA@XZ 00000001400379c8 f i libucrt:output.obj
 0001:000369f4       ??1?$output_processor@_WV?$stream_output_adapter@_W@__crt_stdio_output@@V?$standard_base@_WV?$stream_output_adapter@_W@__crt_stdio_output@@@2@@__crt_stdio_output@@QEAA@XZ 00000001400379f4 f i libucrt:output.obj
 0001:00036a20       ??1?$output_processor@_WV?$string_output_adapter@_W@__crt_stdio_output@@V?$format_validation_base@_WV?$string_output_adapter@_W@__crt_stdio_output@@@2@@__crt_stdio_output@@QEAA@XZ 0000000140037a20 f i libucrt:output.obj
 0001:00036a4c       ??1?$output_processor@_WV?$string_output_adapter@_W@__crt_stdio_output@@V?$positional_parameter_base@_WV?$string_output_adapter@_W@__crt_stdio_output@@@2@@__crt_stdio_output@@QEAA@XZ 0000000140037a4c f i libucrt:output.obj
 0001:00036a78       ??1?$output_processor@_WV?$string_output_adapter@_W@__crt_stdio_output@@V?$standard_base@_WV?$string_output_adapter@_W@__crt_stdio_output@@@2@@__crt_stdio_output@@QEAA@XZ 0000000140037a78 f i libucrt:output.obj
 0001:00036aa4       ??1?$positional_parameter_base@DV?$stream_output_adapter@D@__crt_stdio_output@@@__crt_stdio_output@@QEAA@XZ 0000000140037aa4 f i libucrt:output.obj
 0001:00036ad0       ??1?$positional_parameter_base@DV?$string_output_adapter@D@__crt_stdio_output@@@__crt_stdio_output@@QEAA@XZ 0000000140037ad0 f i libucrt:output.obj
 0001:00036afc       ??1?$positional_parameter_base@_WV?$stream_output_adapter@_W@__crt_stdio_output@@@__crt_stdio_output@@QEAA@XZ 0000000140037afc f i libucrt:output.obj
 0001:00036b28       ??1?$positional_parameter_base@_WV?$string_output_adapter@_W@__crt_stdio_output@@@__crt_stdio_output@@QEAA@XZ 0000000140037b28 f i libucrt:output.obj
 0001:00036b54       ??1?$standard_base@DV?$stream_output_adapter@D@__crt_stdio_output@@@__crt_stdio_output@@QEAA@XZ 0000000140037b54 f i libucrt:output.obj
 0001:00036b80       ??1?$standard_base@DV?$string_output_adapter@D@__crt_stdio_output@@@__crt_stdio_output@@QEAA@XZ 0000000140037b80 f i libucrt:output.obj
 0001:00036bac       ??1?$standard_base@_WV?$stream_output_adapter@_W@__crt_stdio_output@@@__crt_stdio_output@@QEAA@XZ 0000000140037bac f i libucrt:output.obj
 0001:00036bd8       ??1?$standard_base@_WV?$string_output_adapter@_W@__crt_stdio_output@@@__crt_stdio_output@@QEAA@XZ 0000000140037bd8 f i libucrt:output.obj
 0001:00036c04       ??1__acrt_stdio_temporary_buffering_guard@@QEAA@XZ 0000000140037c04 f i libucrt:output.obj
 0001:00036c18       ??1formatting_buffer@__crt_stdio_output@@QEAA@XZ 0000000140037c18 f i libucrt:output.obj
 0001:00036c44       ??1guard@?$cached@H@__crt_cached_ptd_host@@QEAA@XZ 0000000140037c44 f i libucrt:output.obj
 0001:00036c5c       ??4?$__crt_unique_heap_ptr@DU__crt_internal_free_policy@@@@QEAAAEAV0@$$QEAV0@@Z 0000000140037c5c f i libucrt:output.obj
 0001:00036ca0       ??A?$spectre_mitigated_lookup_table@Ustate_transition_pair@__crt_stdio_output@@$0IA@@__crt_stdio_output@@QEBAAEBUstate_transition_pair@1@_K@Z 0000000140037ca0 f i libucrt:output.obj
 0001:000375dc       ?adjust_hexit@?$output_processor@DV?$stream_output_adapter@D@__crt_stdio_output@@V?$format_validation_base@DV?$stream_output_adapter@D@__crt_stdio_output@@@2@@__crt_stdio_output@@CADH_N@Z 00000001400385dc f i libucrt:output.obj
 0001:000375ec       ?adjust_hexit@?$output_processor@DV?$stream_output_adapter@D@__crt_stdio_output@@V?$positional_parameter_base@DV?$stream_output_adapter@D@__crt_stdio_output@@@2@@__crt_stdio_output@@CADH_N@Z 00000001400385ec f i libucrt:output.obj
 0001:000375fc       ?adjust_hexit@?$output_processor@DV?$stream_output_adapter@D@__crt_stdio_output@@V?$standard_base@DV?$stream_output_adapter@D@__crt_stdio_output@@@2@@__crt_stdio_output@@CADH_N@Z 00000001400385fc f i libucrt:output.obj
 0001:0003760c       ?adjust_hexit@?$output_processor@DV?$string_output_adapter@D@__crt_stdio_output@@V?$format_validation_base@DV?$string_output_adapter@D@__crt_stdio_output@@@2@@__crt_stdio_output@@CADH_N@Z 000000014003860c f i libucrt:output.obj
 0001:0003761c       ?adjust_hexit@?$output_processor@DV?$string_output_adapter@D@__crt_stdio_output@@V?$positional_parameter_base@DV?$string_output_adapter@D@__crt_stdio_output@@@2@@__crt_stdio_output@@CADH_N@Z 000000014003861c f i libucrt:output.obj
 0001:0003762c       ?adjust_hexit@?$output_processor@DV?$string_output_adapter@D@__crt_stdio_output@@V?$standard_base@DV?$string_output_adapter@D@__crt_stdio_output@@@2@@__crt_stdio_output@@CADH_N@Z 000000014003862c f i libucrt:output.obj
 0001:0003763c       ?adjust_hexit@?$output_processor@_WV?$stream_output_adapter@_W@__crt_stdio_output@@V?$format_validation_base@_WV?$stream_output_adapter@_W@__crt_stdio_output@@@2@@__crt_stdio_output@@CADH_N@Z 000000014003863c f i libucrt:output.obj
 0001:0003764c       ?adjust_hexit@?$output_processor@_WV?$stream_output_adapter@_W@__crt_stdio_output@@V?$positional_parameter_base@_WV?$stream_output_adapter@_W@__crt_stdio_output@@@2@@__crt_stdio_output@@CADH_N@Z 000000014003864c f i libucrt:output.obj
 0001:0003765c       ?adjust_hexit@?$output_processor@_WV?$stream_output_adapter@_W@__crt_stdio_output@@V?$standard_base@_WV?$stream_output_adapter@_W@__crt_stdio_output@@@2@@__crt_stdio_output@@CADH_N@Z 000000014003865c f i libucrt:output.obj
 0001:0003766c       ?adjust_hexit@?$output_processor@_WV?$string_output_adapter@_W@__crt_stdio_output@@V?$format_validation_base@_WV?$string_output_adapter@_W@__crt_stdio_output@@@2@@__crt_stdio_output@@CADH_N@Z 000000014003866c f i libucrt:output.obj
 0001:0003767c       ?adjust_hexit@?$output_processor@_WV?$string_output_adapter@_W@__crt_stdio_output@@V?$positional_parameter_base@_WV?$string_output_adapter@_W@__crt_stdio_output@@@2@@__crt_stdio_output@@CADH_N@Z 000000014003867c f i libucrt:output.obj
 0001:0003768c       ?adjust_hexit@?$output_processor@_WV?$string_output_adapter@_W@__crt_stdio_output@@V?$standard_base@_WV?$string_output_adapter@_W@__crt_stdio_output@@@2@@__crt_stdio_output@@CADH_N@Z 000000014003868c f i libucrt:output.obj
 0001:0003769c       ?advance_to_next_pass@?$positional_parameter_base@DV?$stream_output_adapter@D@__crt_stdio_output@@@__crt_stdio_output@@IEAA_NXZ 000000014003869c f i libucrt:output.obj
 0001:00037700       ?advance_to_next_pass@?$positional_parameter_base@DV?$string_output_adapter@D@__crt_stdio_output@@@__crt_stdio_output@@IEAA_NXZ 0000000140038700 f i libucrt:output.obj
 0001:00037764       ?advance_to_next_pass@?$positional_parameter_base@_WV?$stream_output_adapter@_W@__crt_stdio_output@@@__crt_stdio_output@@IEAA_NXZ 0000000140038764 f i libucrt:output.obj
 0001:000377c8       ?advance_to_next_pass@?$positional_parameter_base@_WV?$string_output_adapter@_W@__crt_stdio_output@@@__crt_stdio_output@@IEAA_NXZ 00000001400387c8 f i libucrt:output.obj
 0001:0003782c       ?advance_to_next_pass@?$standard_base@DV?$stream_output_adapter@D@__crt_stdio_output@@@__crt_stdio_output@@IEAA_NXZ 000000014003882c f i libucrt:output.obj
 0001:00037844       ?advance_to_next_pass@?$standard_base@DV?$string_output_adapter@D@__crt_stdio_output@@@__crt_stdio_output@@IEAA_NXZ 0000000140038844 f i libucrt:output.obj
 0001:0003785c       ?advance_to_next_pass@?$standard_base@_WV?$stream_output_adapter@_W@__crt_stdio_output@@@__crt_stdio_output@@IEAA_NXZ 000000014003885c f i libucrt:output.obj
 0001:00037874       ?advance_to_next_pass@?$standard_base@_WV?$string_output_adapter@_W@__crt_stdio_output@@@__crt_stdio_output@@IEAA_NXZ 0000000140038874 f i libucrt:output.obj
 0001:0003788c       ?check@?$cached@H@__crt_cached_ptd_host@@QEBA_NH@Z 000000014003888c f i libucrt:output.obj
 0001:000378a0       ?create_guard@?$cached@H@__crt_cached_ptd_host@@QEAA?AVguard@12@XZ 00000001400388a0 f i libucrt:output.obj
 0001:000378b8       ?crop_zeroes@__crt_stdio_output@@YAXPEADQEAU__crt_locale_pointers@@@Z 00000001400388b8 f i libucrt:output.obj
 0001:0003793c       ?disable@guard@?$cached@H@__crt_cached_ptd_host@@QEAAXXZ 000000014003893c f i libucrt:output.obj
 0001:00037944       ?enable@guard@?$cached@H@__crt_cached_ptd_host@@QEAAXXZ 0000000140038944 f i libucrt:output.obj
 0001:0003794c       ?find_next_state@?$output_processor@DV?$stream_output_adapter@D@__crt_stdio_output@@V?$format_validation_base@DV?$stream_output_adapter@D@__crt_stdio_output@@@2@@__crt_stdio_output@@AEBA?AW4state@2@DW432@@Z 000000014003894c f i libucrt:output.obj
 0001:00037990       ?find_next_state@?$output_processor@DV?$stream_output_adapter@D@__crt_stdio_output@@V?$positional_parameter_base@DV?$stream_output_adapter@D@__crt_stdio_output@@@2@@__crt_stdio_output@@AEBA?AW4state@2@DW432@@Z 0000000140038990 f i libucrt:output.obj
 0001:000379d4       ?find_next_state@?$output_processor@DV?$stream_output_adapter@D@__crt_stdio_output@@V?$standard_base@DV?$stream_output_adapter@D@__crt_stdio_output@@@2@@__crt_stdio_output@@AEBA?AW4state@2@DW432@@Z 00000001400389d4 f i libucrt:output.obj
 0001:00037a18       ?find_next_state@?$output_processor@DV?$string_output_adapter@D@__crt_stdio_output@@V?$format_validation_base@DV?$string_output_adapter@D@__crt_stdio_output@@@2@@__crt_stdio_output@@AEBA?AW4state@2@DW432@@Z 0000000140038a18 f i libucrt:output.obj
 0001:00037a5c       ?find_next_state@?$output_processor@DV?$string_output_adapter@D@__crt_stdio_output@@V?$positional_parameter_base@DV?$string_output_adapter@D@__crt_stdio_output@@@2@@__crt_stdio_output@@AEBA?AW4state@2@DW432@@Z 0000000140038a5c f i libucrt:output.obj
 0001:00037aa0       ?find_next_state@?$output_processor@DV?$string_output_adapter@D@__crt_stdio_output@@V?$standard_base@DV?$string_output_adapter@D@__crt_stdio_output@@@2@@__crt_stdio_output@@AEBA?AW4state@2@DW432@@Z 0000000140038aa0 f i libucrt:output.obj
 0001:00037ae4       ?find_next_state@?$output_processor@_WV?$stream_output_adapter@_W@__crt_stdio_output@@V?$format_validation_base@_WV?$stream_output_adapter@_W@__crt_stdio_output@@@2@@__crt_stdio_output@@AEBA?AW4state@2@_WW432@@Z 0000000140038ae4 f i libucrt:output.obj
 0001:00037b34       ?find_next_state@?$output_processor@_WV?$stream_output_adapter@_W@__crt_stdio_output@@V?$positional_parameter_base@_WV?$stream_output_adapter@_W@__crt_stdio_output@@@2@@__crt_stdio_output@@AEBA?AW4state@2@_WW432@@Z 0000000140038b34 f i libucrt:output.obj
 0001:00037b84       ?find_next_state@?$output_processor@_WV?$stream_output_adapter@_W@__crt_stdio_output@@V?$standard_base@_WV?$stream_output_adapter@_W@__crt_stdio_output@@@2@@__crt_stdio_output@@AEBA?AW4state@2@_WW432@@Z 0000000140038b84 f i libucrt:output.obj
 0001:00037bd0       ?find_next_state@?$output_processor@_WV?$string_output_adapter@_W@__crt_stdio_output@@V?$format_validation_base@_WV?$string_output_adapter@_W@__crt_stdio_output@@@2@@__crt_stdio_output@@AEBA?AW4state@2@_WW432@@Z 0000000140038bd0 f i libucrt:output.obj
 0001:00037c20       ?find_next_state@?$output_processor@_WV?$string_output_adapter@_W@__crt_stdio_output@@V?$positional_parameter_base@_WV?$string_output_adapter@_W@__crt_stdio_output@@@2@@__crt_stdio_output@@AEBA?AW4state@2@_WW432@@Z 0000000140038c20 f i libucrt:output.obj
 0001:00037c70       ?find_next_state@?$output_processor@_WV?$string_output_adapter@_W@__crt_stdio_output@@V?$standard_base@_WV?$string_output_adapter@_W@__crt_stdio_output@@@2@@__crt_stdio_output@@AEBA?AW4state@2@_WW432@@Z 0000000140038c70 f i libucrt:output.obj
 0001:00037cbc       ?force_decimal_point@__crt_stdio_output@@YAXPEADQEAU__crt_locale_pointers@@@Z 0000000140038cbc f i libucrt:output.obj
 0001:00037d34       ?get_parameter_type@?$positional_parameter_base@DV?$stream_output_adapter@D@__crt_stdio_output@@@__crt_stdio_output@@CA?AW4parameter_type@12@F@Z 0000000140038d34 f i libucrt:output.obj
 0001:00037d3c       ?get_parameter_type@?$positional_parameter_base@DV?$stream_output_adapter@D@__crt_stdio_output@@@__crt_stdio_output@@CA?AW4parameter_type@12@G@Z 0000000140038d3c f i libucrt:output.obj
 0001:00037d44       ?get_parameter_type@?$positional_parameter_base@DV?$stream_output_adapter@D@__crt_stdio_output@@@__crt_stdio_output@@CA?AW4parameter_type@12@H@Z 0000000140038d44 f i libucrt:output.obj
 0001:00037d4c       ?get_parameter_type@?$positional_parameter_base@DV?$stream_output_adapter@D@__crt_stdio_output@@@__crt_stdio_output@@CA?AW4parameter_type@12@I@Z 0000000140038d4c f i libucrt:output.obj
 0001:00037d54       ?get_parameter_type@?$positional_parameter_base@DV?$stream_output_adapter@D@__crt_stdio_output@@@__crt_stdio_output@@CA?AW4parameter_type@12@U_CRT_DOUBLE@@@Z 0000000140038d54 f i libucrt:output.obj
 0001:00037d5c       ?get_parameter_type@?$positional_parameter_base@DV?$stream_output_adapter@D@__crt_stdio_output@@@__crt_stdio_output@@CA?AW4parameter_type@12@_J@Z 0000000140038d5c f i libucrt:output.obj
 0001:00037d64       ?get_parameter_type@?$positional_parameter_base@DV?$stream_output_adapter@D@__crt_stdio_output@@@__crt_stdio_output@@CA?AW4parameter_type@12@_K@Z 0000000140038d64 f i libucrt:output.obj
 0001:00037d6c       ?get_parameter_type@?$positional_parameter_base@DV?$stream_output_adapter@D@__crt_stdio_output@@@__crt_stdio_output@@CA?AW4parameter_type@12@_W@Z 0000000140038d6c f i libucrt:output.obj
 0001:00037d74       ?get_parameter_type@?$positional_parameter_base@DV?$string_output_adapter@D@__crt_stdio_output@@@__crt_stdio_output@@CA?AW4parameter_type@12@F@Z 0000000140038d74 f i libucrt:output.obj
 0001:00037d7c       ?get_parameter_type@?$positional_parameter_base@DV?$string_output_adapter@D@__crt_stdio_output@@@__crt_stdio_output@@CA?AW4parameter_type@12@G@Z 0000000140038d7c f i libucrt:output.obj
 0001:00037d84       ?get_parameter_type@?$positional_parameter_base@DV?$string_output_adapter@D@__crt_stdio_output@@@__crt_stdio_output@@CA?AW4parameter_type@12@H@Z 0000000140038d84 f i libucrt:output.obj
 0001:00037d8c       ?get_parameter_type@?$positional_parameter_base@DV?$string_output_adapter@D@__crt_stdio_output@@@__crt_stdio_output@@CA?AW4parameter_type@12@I@Z 0000000140038d8c f i libucrt:output.obj
 0001:00037d94       ?get_parameter_type@?$positional_parameter_base@DV?$string_output_adapter@D@__crt_stdio_output@@@__crt_stdio_output@@CA?AW4parameter_type@12@U_CRT_DOUBLE@@@Z 0000000140038d94 f i libucrt:output.obj
 0001:00037d9c       ?get_parameter_type@?$positional_parameter_base@DV?$string_output_adapter@D@__crt_stdio_output@@@__crt_stdio_output@@CA?AW4parameter_type@12@_J@Z 0000000140038d9c f i libucrt:output.obj
 0001:00037da4       ?get_parameter_type@?$positional_parameter_base@DV?$string_output_adapter@D@__crt_stdio_output@@@__crt_stdio_output@@CA?AW4parameter_type@12@_K@Z 0000000140038da4 f i libucrt:output.obj
 0001:00037dac       ?get_parameter_type@?$positional_parameter_base@DV?$string_output_adapter@D@__crt_stdio_output@@@__crt_stdio_output@@CA?AW4parameter_type@12@_W@Z 0000000140038dac f i libucrt:output.obj
 0001:00037db4       ?get_parameter_type@?$positional_parameter_base@_WV?$stream_output_adapter@_W@__crt_stdio_output@@@__crt_stdio_output@@CA?AW4parameter_type@12@F@Z 0000000140038db4 f i libucrt:output.obj
 0001:00037dbc       ?get_parameter_type@?$positional_parameter_base@_WV?$stream_output_adapter@_W@__crt_stdio_output@@@__crt_stdio_output@@CA?AW4parameter_type@12@G@Z 0000000140038dbc f i libucrt:output.obj
 0001:00037dc4       ?get_parameter_type@?$positional_parameter_base@_WV?$stream_output_adapter@_W@__crt_stdio_output@@@__crt_stdio_output@@CA?AW4parameter_type@12@H@Z 0000000140038dc4 f i libucrt:output.obj
 0001:00037dcc       ?get_parameter_type@?$positional_parameter_base@_WV?$stream_output_adapter@_W@__crt_stdio_output@@@__crt_stdio_output@@CA?AW4parameter_type@12@I@Z 0000000140038dcc f i libucrt:output.obj
 0001:00037dd4       ?get_parameter_type@?$positional_parameter_base@_WV?$stream_output_adapter@_W@__crt_stdio_output@@@__crt_stdio_output@@CA?AW4parameter_type@12@U_CRT_DOUBLE@@@Z 0000000140038dd4 f i libucrt:output.obj
 0001:00037ddc       ?get_parameter_type@?$positional_parameter_base@_WV?$stream_output_adapter@_W@__crt_stdio_output@@@__crt_stdio_output@@CA?AW4parameter_type@12@_J@Z 0000000140038ddc f i libucrt:output.obj
 0001:00037de4       ?get_parameter_type@?$positional_parameter_base@_WV?$stream_output_adapter@_W@__crt_stdio_output@@@__crt_stdio_output@@CA?AW4parameter_type@12@_K@Z 0000000140038de4 f i libucrt:output.obj
 0001:00037dec       ?get_parameter_type@?$positional_parameter_base@_WV?$stream_output_adapter@_W@__crt_stdio_output@@@__crt_stdio_output@@CA?AW4parameter_type@12@_W@Z 0000000140038dec f i libucrt:output.obj
 0001:00037df4       ?get_parameter_type@?$positional_parameter_base@_WV?$string_output_adapter@_W@__crt_stdio_output@@@__crt_stdio_output@@CA?AW4parameter_type@12@F@Z 0000000140038df4 f i libucrt:output.obj
 0001:00037dfc       ?get_parameter_type@?$positional_parameter_base@_WV?$string_output_adapter@_W@__crt_stdio_output@@@__crt_stdio_output@@CA?AW4parameter_type@12@G@Z 0000000140038dfc f i libucrt:output.obj
 0001:00037e04       ?get_parameter_type@?$positional_parameter_base@_WV?$string_output_adapter@_W@__crt_stdio_output@@@__crt_stdio_output@@CA?AW4parameter_type@12@H@Z 0000000140038e04 f i libucrt:output.obj
 0001:00037e0c       ?get_parameter_type@?$positional_parameter_base@_WV?$string_output_adapter@_W@__crt_stdio_output@@@__crt_stdio_output@@CA?AW4parameter_type@12@I@Z 0000000140038e0c f i libucrt:output.obj
 0001:00037e14       ?get_parameter_type@?$positional_parameter_base@_WV?$string_output_adapter@_W@__crt_stdio_output@@@__crt_stdio_output@@CA?AW4parameter_type@12@U_CRT_DOUBLE@@@Z 0000000140038e14 f i libucrt:output.obj
 0001:00037e1c       ?get_parameter_type@?$positional_parameter_base@_WV?$string_output_adapter@_W@__crt_stdio_output@@@__crt_stdio_output@@CA?AW4parameter_type@12@_J@Z 0000000140038e1c f i libucrt:output.obj
 0001:00037e24       ?get_parameter_type@?$positional_parameter_base@_WV?$string_output_adapter@_W@__crt_stdio_output@@@__crt_stdio_output@@CA?AW4parameter_type@12@_K@Z 0000000140038e24 f i libucrt:output.obj
 0001:00037e2c       ?get_parameter_type@?$positional_parameter_base@_WV?$string_output_adapter@_W@__crt_stdio_output@@@__crt_stdio_output@@CA?AW4parameter_type@12@_W@Z 0000000140038e2c f i libucrt:output.obj
 0001:00037e34       ?has_flag@?$output_processor@DV?$stream_output_adapter@D@__crt_stdio_output@@V?$format_validation_base@DV?$stream_output_adapter@D@__crt_stdio_output@@@2@@__crt_stdio_output@@AEBA_NI@Z 0000000140038e34 f i libucrt:output.obj
 0001:00037e3c       ?has_flag@?$output_processor@DV?$stream_output_adapter@D@__crt_stdio_output@@V?$positional_parameter_base@DV?$stream_output_adapter@D@__crt_stdio_output@@@2@@__crt_stdio_output@@AEBA_NI@Z 0000000140038e3c f i libucrt:output.obj
 0001:00037e44       ?has_flag@?$output_processor@DV?$stream_output_adapter@D@__crt_stdio_output@@V?$standard_base@DV?$stream_output_adapter@D@__crt_stdio_output@@@2@@__crt_stdio_output@@AEBA_NI@Z 0000000140038e44 f i libucrt:output.obj
 0001:00037e4c       ?has_flag@?$output_processor@DV?$string_output_adapter@D@__crt_stdio_output@@V?$format_validation_base@DV?$string_output_adapter@D@__crt_stdio_output@@@2@@__crt_stdio_output@@AEBA_NI@Z 0000000140038e4c f i libucrt:output.obj
 0001:00037e54       ?has_flag@?$output_processor@DV?$string_output_adapter@D@__crt_stdio_output@@V?$positional_parameter_base@DV?$string_output_adapter@D@__crt_stdio_output@@@2@@__crt_stdio_output@@AEBA_NI@Z 0000000140038e54 f i libucrt:output.obj
 0001:00037e5c       ?has_flag@?$output_processor@DV?$string_output_adapter@D@__crt_stdio_output@@V?$standard_base@DV?$string_output_adapter@D@__crt_stdio_output@@@2@@__crt_stdio_output@@AEBA_NI@Z 0000000140038e5c f i libucrt:output.obj
 0001:00037e64       ?has_flag@?$output_processor@_WV?$stream_output_adapter@_W@__crt_stdio_output@@V?$format_validation_base@_WV?$stream_output_adapter@_W@__crt_stdio_output@@@2@@__crt_stdio_output@@AEBA_NI@Z 0000000140038e64 f i libucrt:output.obj
 0001:00037e6c       ?has_flag@?$output_processor@_WV?$stream_output_adapter@_W@__crt_stdio_output@@V?$positional_parameter_base@_WV?$stream_output_adapter@_W@__crt_stdio_output@@@2@@__crt_stdio_output@@AEBA_NI@Z 0000000140038e6c f i libucrt:output.obj
 0001:00037e74       ?has_flag@?$output_processor@_WV?$stream_output_adapter@_W@__crt_stdio_output@@V?$standard_base@_WV?$stream_output_adapter@_W@__crt_stdio_output@@@2@@__crt_stdio_output@@AEBA_NI@Z 0000000140038e74 f i libucrt:output.obj
 0001:00037e7c       ?has_flag@?$output_processor@_WV?$string_output_adapter@_W@__crt_stdio_output@@V?$format_validation_base@_WV?$string_output_adapter@_W@__crt_stdio_output@@@2@@__crt_stdio_output@@AEBA_NI@Z 0000000140038e7c f i libucrt:output.obj
 0001:00037e84       ?has_flag@?$output_processor@_WV?$string_output_adapter@_W@__crt_stdio_output@@V?$positional_parameter_base@_WV?$string_output_adapter@_W@__crt_stdio_output@@@2@@__crt_stdio_output@@AEBA_NI@Z 0000000140038e84 f i libucrt:output.obj
 0001:00037e8c       ?has_flag@?$output_processor@_WV?$string_output_adapter@_W@__crt_stdio_output@@V?$standard_base@_WV?$string_output_adapter@_W@__crt_stdio_output@@@2@@__crt_stdio_output@@AEBA_NI@Z 0000000140038e8c f i libucrt:output.obj
 0001:00037e94       ?is_positional_parameter_reappearance_consistent@?$positional_parameter_base@DV?$stream_output_adapter@D@__crt_stdio_output@@@__crt_stdio_output@@AEAA_NAEBUparameter_data@12@W4parameter_type@12@DW4length_modifier@2@@Z 0000000140038e94 f i libucrt:output.obj
 0001:00038158       ?is_positional_parameter_reappearance_consistent@?$positional_parameter_base@DV?$string_output_adapter@D@__crt_stdio_output@@@__crt_stdio_output@@AEAA_NAEBUparameter_data@12@W4parameter_type@12@DW4length_modifier@2@@Z 0000000140039158 f i libucrt:output.obj
 0001:0003841c       ?is_positional_parameter_reappearance_consistent@?$positional_parameter_base@_WV?$stream_output_adapter@_W@__crt_stdio_output@@@__crt_stdio_output@@AEAA_NAEBUparameter_data@12@W4parameter_type@12@_WW4length_modifier@2@@Z 000000014003941c f i libucrt:output.obj
 0001:000386a0       ?is_positional_parameter_reappearance_consistent@?$positional_parameter_base@_WV?$string_output_adapter@_W@__crt_stdio_output@@@__crt_stdio_output@@AEAA_NAEBUparameter_data@12@W4parameter_type@12@_WW4length_modifier@2@@Z 00000001400396a0 f i libucrt:output.obj
 0001:00038924       ?is_string_backed@__crt_stdio_stream@@QEBA_NXZ 0000000140039924 f i libucrt:output.obj
 0001:00038934       ?narrow_null_string@?$output_processor@DV?$stream_output_adapter@D@__crt_stdio_output@@V?$format_validation_base@DV?$stream_output_adapter@D@__crt_stdio_output@@@2@@__crt_stdio_output@@CAPEADXZ 0000000140039934 f i libucrt:output.obj
 0001:00038940       ?narrow_null_string@?$output_processor@DV?$stream_output_adapter@D@__crt_stdio_output@@V?$positional_parameter_base@DV?$stream_output_adapter@D@__crt_stdio_output@@@2@@__crt_stdio_output@@CAPEADXZ 0000000140039940 f i libucrt:output.obj
 0001:0003894c       ?narrow_null_string@?$output_processor@DV?$stream_output_adapter@D@__crt_stdio_output@@V?$standard_base@DV?$stream_output_adapter@D@__crt_stdio_output@@@2@@__crt_stdio_output@@CAPEADXZ 000000014003994c f i libucrt:output.obj
 0001:00038958       ?narrow_null_string@?$output_processor@DV?$string_output_adapter@D@__crt_stdio_output@@V?$format_validation_base@DV?$string_output_adapter@D@__crt_stdio_output@@@2@@__crt_stdio_output@@CAPEADXZ 0000000140039958 f i libucrt:output.obj
 0001:00038964       ?narrow_null_string@?$output_processor@DV?$string_output_adapter@D@__crt_stdio_output@@V?$positional_parameter_base@DV?$string_output_adapter@D@__crt_stdio_output@@@2@@__crt_stdio_output@@CAPEADXZ 0000000140039964 f i libucrt:output.obj
 0001:00038970       ?narrow_null_string@?$output_processor@DV?$string_output_adapter@D@__crt_stdio_output@@V?$standard_base@DV?$string_output_adapter@D@__crt_stdio_output@@@2@@__crt_stdio_output@@CAPEADXZ 0000000140039970 f i libucrt:output.obj
 0001:0003897c       ?narrow_null_string@?$output_processor@_WV?$stream_output_adapter@_W@__crt_stdio_output@@V?$format_validation_base@_WV?$stream_output_adapter@_W@__crt_stdio_output@@@2@@__crt_stdio_output@@CAPEADXZ 000000014003997c f i libucrt:output.obj
 0001:00038988       ?narrow_null_string@?$output_processor@_WV?$stream_output_adapter@_W@__crt_stdio_output@@V?$positional_parameter_base@_WV?$stream_output_adapter@_W@__crt_stdio_output@@@2@@__crt_stdio_output@@CAPEADXZ 0000000140039988 f i libucrt:output.obj
 0001:00038994       ?narrow_null_string@?$output_processor@_WV?$stream_output_adapter@_W@__crt_stdio_output@@V?$standard_base@_WV?$stream_output_adapter@_W@__crt_stdio_output@@@2@@__crt_stdio_output@@CAPEADXZ 0000000140039994 f i libucrt:output.obj
 0001:000389a0       ?narrow_null_string@?$output_processor@_WV?$string_output_adapter@_W@__crt_stdio_output@@V?$format_validation_base@_WV?$string_output_adapter@_W@__crt_stdio_output@@@2@@__crt_stdio_output@@CAPEADXZ 00000001400399a0 f i libucrt:output.obj
 0001:000389ac       ?narrow_null_string@?$output_processor@_WV?$string_output_adapter@_W@__crt_stdio_output@@V?$positional_parameter_base@_WV?$string_output_adapter@_W@__crt_stdio_output@@@2@@__crt_stdio_output@@CAPEADXZ 00000001400399ac f i libucrt:output.obj
 0001:000389b8       ?narrow_null_string@?$output_processor@_WV?$string_output_adapter@_W@__crt_stdio_output@@V?$standard_base@_WV?$string_output_adapter@_W@__crt_stdio_output@@@2@@__crt_stdio_output@@CAPEADXZ 00000001400399b8 f i libucrt:output.obj
 0001:000389c4       ?parse_int_from_format_string@?$output_processor@DV?$stream_output_adapter@D@__crt_stdio_output@@V?$format_validation_base@DV?$stream_output_adapter@D@__crt_stdio_output@@@2@@__crt_stdio_output@@AEAA_NQEAH@Z 00000001400399c4 f i libucrt:output.obj
 0001:00038a74       ?parse_int_from_format_string@?$output_processor@DV?$stream_output_adapter@D@__crt_stdio_output@@V?$positional_parameter_base@DV?$stream_output_adapter@D@__crt_stdio_output@@@2@@__crt_stdio_output@@AEAA_NQEAH@Z 0000000140039a74 f i libucrt:output.obj
 0001:00038b24       ?parse_int_from_format_string@?$output_processor@DV?$stream_output_adapter@D@__crt_stdio_output@@V?$standard_base@DV?$stream_output_adapter@D@__crt_stdio_output@@@2@@__crt_stdio_output@@AEAA_NQEAH@Z 0000000140039b24 f i libucrt:output.obj
 0001:00038bd4       ?parse_int_from_format_string@?$output_processor@DV?$string_output_adapter@D@__crt_stdio_output@@V?$format_validation_base@DV?$string_output_adapter@D@__crt_stdio_output@@@2@@__crt_stdio_output@@AEAA_NQEAH@Z 0000000140039bd4 f i libucrt:output.obj
 0001:00038c84       ?parse_int_from_format_string@?$output_processor@DV?$string_output_adapter@D@__crt_stdio_output@@V?$positional_parameter_base@DV?$string_output_adapter@D@__crt_stdio_output@@@2@@__crt_stdio_output@@AEAA_NQEAH@Z 0000000140039c84 f i libucrt:output.obj
 0001:00038d34       ?parse_int_from_format_string@?$output_processor@DV?$string_output_adapter@D@__crt_stdio_output@@V?$standard_base@DV?$string_output_adapter@D@__crt_stdio_output@@@2@@__crt_stdio_output@@AEAA_NQEAH@Z 0000000140039d34 f i libucrt:output.obj
 0001:00038de4       ?parse_int_from_format_string@?$output_processor@_WV?$stream_output_adapter@_W@__crt_stdio_output@@V?$format_validation_base@_WV?$stream_output_adapter@_W@__crt_stdio_output@@@2@@__crt_stdio_output@@AEAA_NQEAH@Z 0000000140039de4 f i libucrt:output.obj
 0001:00038e98       ?parse_int_from_format_string@?$output_processor@_WV?$stream_output_adapter@_W@__crt_stdio_output@@V?$positional_parameter_base@_WV?$stream_output_adapter@_W@__crt_stdio_output@@@2@@__crt_stdio_output@@AEAA_NQEAH@Z 0000000140039e98 f i libucrt:output.obj
 0001:00038f4c       ?parse_int_from_format_string@?$output_processor@_WV?$stream_output_adapter@_W@__crt_stdio_output@@V?$standard_base@_WV?$stream_output_adapter@_W@__crt_stdio_output@@@2@@__crt_stdio_output@@AEAA_NQEAH@Z 0000000140039f4c f i libucrt:output.obj
 0001:00039000       ?parse_int_from_format_string@?$output_processor@_WV?$string_output_adapter@_W@__crt_stdio_output@@V?$format_validation_base@_WV?$string_output_adapter@_W@__crt_stdio_output@@@2@@__crt_stdio_output@@AEAA_NQEAH@Z 000000014003a000 f i libucrt:output.obj
 0001:000390b4       ?parse_int_from_format_string@?$output_processor@_WV?$string_output_adapter@_W@__crt_stdio_output@@V?$positional_parameter_base@_WV?$string_output_adapter@_W@__crt_stdio_output@@@2@@__crt_stdio_output@@AEAA_NQEAH@Z 000000014003a0b4 f i libucrt:output.obj
 0001:00039168       ?parse_int_from_format_string@?$output_processor@_WV?$string_output_adapter@_W@__crt_stdio_output@@V?$standard_base@_WV?$string_output_adapter@_W@__crt_stdio_output@@@2@@__crt_stdio_output@@AEAA_NQEAH@Z 000000014003a168 f i libucrt:output.obj
 0001:0003921c       ?process@?$output_processor@DV?$stream_output_adapter@D@__crt_stdio_output@@V?$format_validation_base@DV?$stream_output_adapter@D@__crt_stdio_output@@@2@@__crt_stdio_output@@QEAAHXZ 000000014003a21c f i libucrt:output.obj
 0001:00039694       ?process@?$output_processor@DV?$stream_output_adapter@D@__crt_stdio_output@@V?$positional_parameter_base@DV?$stream_output_adapter@D@__crt_stdio_output@@@2@@__crt_stdio_output@@QEAAHXZ 000000014003a694 f i libucrt:output.obj
 0001:00039bc4       ?process@?$output_processor@DV?$stream_output_adapter@D@__crt_stdio_output@@V?$standard_base@DV?$stream_output_adapter@D@__crt_stdio_output@@@2@@__crt_stdio_output@@QEAAHXZ 000000014003abc4 f i libucrt:output.obj
 0001:0003a034       ?process@?$output_processor@DV?$string_output_adapter@D@__crt_stdio_output@@V?$format_validation_base@DV?$string_output_adapter@D@__crt_stdio_output@@@2@@__crt_stdio_output@@QEAAHXZ 000000014003b034 f i libucrt:output.obj
 0001:0003a4a8       ?process@?$output_processor@DV?$string_output_adapter@D@__crt_stdio_output@@V?$positional_parameter_base@DV?$string_output_adapter@D@__crt_stdio_output@@@2@@__crt_stdio_output@@QEAAHXZ 000000014003b4a8 f i libucrt:output.obj
 0001:0003a9b8       ?process@?$output_processor@DV?$string_output_adapter@D@__crt_stdio_output@@V?$standard_base@DV?$string_output_adapter@D@__crt_stdio_output@@@2@@__crt_stdio_output@@QEAAHXZ 000000014003b9b8 f i libucrt:output.obj
 0001:0003ae1c       ?process@?$output_processor@_WV?$stream_output_adapter@_W@__crt_stdio_output@@V?$format_validation_base@_WV?$stream_output_adapter@_W@__crt_stdio_output@@@2@@__crt_stdio_output@@QEAAHXZ 000000014003be1c f i libucrt:output.obj
 0001:0003b1b8       ?process@?$output_processor@_WV?$stream_output_adapter@_W@__crt_stdio_output@@V?$positional_parameter_base@_WV?$stream_output_adapter@_W@__crt_stdio_output@@@2@@__crt_stdio_output@@QEAAHXZ 000000014003c1b8 f i libucrt:output.obj
 0001:0003b614       ?process@?$output_processor@_WV?$stream_output_adapter@_W@__crt_stdio_output@@V?$standard_base@_WV?$stream_output_adapter@_W@__crt_stdio_output@@@2@@__crt_stdio_output@@QEAAHXZ 000000014003c614 f i libucrt:output.obj
 0001:0003b980       ?process@?$output_processor@_WV?$string_output_adapter@_W@__crt_stdio_output@@V?$format_validation_base@_WV?$string_output_adapter@_W@__crt_stdio_output@@@2@@__crt_stdio_output@@QEAAHXZ 000000014003c980 f i libucrt:output.obj
 0001:0003bd14       ?process@?$output_processor@_WV?$string_output_adapter@_W@__crt_stdio_output@@V?$positional_parameter_base@_WV?$string_output_adapter@_W@__crt_stdio_output@@@2@@__crt_stdio_output@@QEAAHXZ 000000014003cd14 f i libucrt:output.obj
 0001:0003c170       ?process@?$output_processor@_WV?$string_output_adapter@_W@__crt_stdio_output@@V?$standard_base@_WV?$string_output_adapter@_W@__crt_stdio_output@@@2@@__crt_stdio_output@@QEAAHXZ 000000014003d170 f i libucrt:output.obj
 0001:0003c4e4       ?public_stream@__crt_stdio_stream@@QEBAPEAU_iobuf@@XZ 000000014003d4e4 f i libucrt:output.obj
 0001:0003c4e8       ?set_flag@?$output_processor@DV?$stream_output_adapter@D@__crt_stdio_output@@V?$format_validation_base@DV?$stream_output_adapter@D@__crt_stdio_output@@@2@@__crt_stdio_output@@AEAAXI@Z 000000014003d4e8 f i libucrt:output.obj
 0001:0003c4ec       ?set_flag@?$output_processor@DV?$stream_output_adapter@D@__crt_stdio_output@@V?$positional_parameter_base@DV?$stream_output_adapter@D@__crt_stdio_output@@@2@@__crt_stdio_output@@AEAAXI@Z 000000014003d4ec f i libucrt:output.obj
 0001:0003c4f0       ?set_flag@?$output_processor@DV?$stream_output_adapter@D@__crt_stdio_output@@V?$standard_base@DV?$stream_output_adapter@D@__crt_stdio_output@@@2@@__crt_stdio_output@@AEAAXI@Z 000000014003d4f0 f i libucrt:output.obj
 0001:0003c4f4       ?set_flag@?$output_processor@DV?$string_output_adapter@D@__crt_stdio_output@@V?$format_validation_base@DV?$string_output_adapter@D@__crt_stdio_output@@@2@@__crt_stdio_output@@AEAAXI@Z 000000014003d4f4 f i libucrt:output.obj
 0001:0003c4f8       ?set_flag@?$output_processor@DV?$string_output_adapter@D@__crt_stdio_output@@V?$positional_parameter_base@DV?$string_output_adapter@D@__crt_stdio_output@@@2@@__crt_stdio_output@@AEAAXI@Z 000000014003d4f8 f i libucrt:output.obj
 0001:0003c4fc       ?set_flag@?$output_processor@DV?$string_output_adapter@D@__crt_stdio_output@@V?$standard_base@DV?$string_output_adapter@D@__crt_stdio_output@@@2@@__crt_stdio_output@@AEAAXI@Z 000000014003d4fc f i libucrt:output.obj
 0001:0003c500       ?set_flag@?$output_processor@_WV?$stream_output_adapter@_W@__crt_stdio_output@@V?$format_validation_base@_WV?$stream_output_adapter@_W@__crt_stdio_output@@@2@@__crt_stdio_output@@AEAAXI@Z 000000014003d500 f i libucrt:output.obj
 0001:0003c504       ?set_flag@?$output_processor@_WV?$stream_output_adapter@_W@__crt_stdio_output@@V?$positional_parameter_base@_WV?$stream_output_adapter@_W@__crt_stdio_output@@@2@@__crt_stdio_output@@AEAAXI@Z 000000014003d504 f i libucrt:output.obj
 0001:0003c508       ?set_flag@?$output_processor@_WV?$stream_output_adapter@_W@__crt_stdio_output@@V?$standard_base@_WV?$stream_output_adapter@_W@__crt_stdio_output@@@2@@__crt_stdio_output@@AEAAXI@Z 000000014003d508 f i libucrt:output.obj
 0001:0003c50c       ?set_flag@?$output_processor@_WV?$string_output_adapter@_W@__crt_stdio_output@@V?$format_validation_base@_WV?$string_output_adapter@_W@__crt_stdio_output@@@2@@__crt_stdio_output@@AEAAXI@Z 000000014003d50c f i libucrt:output.obj
 0001:0003c510       ?set_flag@?$output_processor@_WV?$string_output_adapter@_W@__crt_stdio_output@@V?$positional_parameter_base@_WV?$string_output_adapter@_W@__crt_stdio_output@@@2@@__crt_stdio_output@@AEAAXI@Z 000000014003d510 f i libucrt:output.obj
 0001:0003c514       ?set_flag@?$output_processor@_WV?$string_output_adapter@_W@__crt_stdio_output@@V?$standard_base@_WV?$string_output_adapter@_W@__crt_stdio_output@@@2@@__crt_stdio_output@@AEAAXI@Z 000000014003d514 f i libucrt:output.obj
 0001:0003c518       ?should_format@?$positional_parameter_base@DV?$stream_output_adapter@D@__crt_stdio_output@@@__crt_stdio_output@@IEAA_NXZ 000000014003d518 f i libucrt:output.obj
 0001:0003c538       ?should_format@?$positional_parameter_base@DV?$string_output_adapter@D@__crt_stdio_output@@@__crt_stdio_output@@IEAA_NXZ 000000014003d538 f i libucrt:output.obj
 0001:0003c558       ?should_format@?$positional_parameter_base@_WV?$stream_output_adapter@_W@__crt_stdio_output@@@__crt_stdio_output@@IEAA_NXZ 000000014003d558 f i libucrt:output.obj
 0001:0003c578       ?should_format@?$positional_parameter_base@_WV?$string_output_adapter@_W@__crt_stdio_output@@@__crt_stdio_output@@IEAA_NXZ 000000014003d578 f i libucrt:output.obj
 0001:0003c598       ?should_format@?$standard_base@DV?$stream_output_adapter@D@__crt_stdio_output@@@__crt_stdio_output@@IEAA_NXZ 000000014003d598 f i libucrt:output.obj
 0001:0003c59c       ?should_format@?$standard_base@DV?$string_output_adapter@D@__crt_stdio_output@@@__crt_stdio_output@@IEAA_NXZ 000000014003d59c f i libucrt:output.obj
 0001:0003c5a0       ?should_format@?$standard_base@_WV?$stream_output_adapter@_W@__crt_stdio_output@@@__crt_stdio_output@@IEAA_NXZ 000000014003d5a0 f i libucrt:output.obj
 0001:0003c5a4       ?should_format@?$standard_base@_WV?$string_output_adapter@_W@__crt_stdio_output@@@__crt_stdio_output@@IEAA_NXZ 000000014003d5a4 f i libucrt:output.obj
 0001:0003c5a8       ?should_skip_normal_state_processing@?$positional_parameter_base@DV?$stream_output_adapter@D@__crt_stdio_output@@@__crt_stdio_output@@IEAA_NXZ 000000014003d5a8 f i libucrt:output.obj
 0001:0003c5dc       ?should_skip_normal_state_processing@?$positional_parameter_base@DV?$string_output_adapter@D@__crt_stdio_output@@@__crt_stdio_output@@IEAA_NXZ 000000014003d5dc f i libucrt:output.obj
 0001:0003c610       ?should_skip_normal_state_processing@?$positional_parameter_base@_WV?$stream_output_adapter@_W@__crt_stdio_output@@@__crt_stdio_output@@IEAA_NXZ 000000014003d610 f i libucrt:output.obj
 0001:0003c644       ?should_skip_normal_state_processing@?$positional_parameter_base@_WV?$string_output_adapter@_W@__crt_stdio_output@@@__crt_stdio_output@@IEAA_NXZ 000000014003d644 f i libucrt:output.obj
 0001:0003c678       ?should_skip_normal_state_processing@?$standard_base@DV?$stream_output_adapter@D@__crt_stdio_output@@@__crt_stdio_output@@IEAA_NXZ 000000014003d678 f i libucrt:output.obj
 0001:0003c67c       ?should_skip_normal_state_processing@?$standard_base@DV?$string_output_adapter@D@__crt_stdio_output@@@__crt_stdio_output@@IEAA_NXZ 000000014003d67c f i libucrt:output.obj
 0001:0003c680       ?should_skip_normal_state_processing@?$standard_base@_WV?$stream_output_adapter@_W@__crt_stdio_output@@@__crt_stdio_output@@IEAA_NXZ 000000014003d680 f i libucrt:output.obj
 0001:0003c684       ?should_skip_normal_state_processing@?$standard_base@_WV?$string_output_adapter@_W@__crt_stdio_output@@@__crt_stdio_output@@IEAA_NXZ 000000014003d684 f i libucrt:output.obj
 0001:0003c688       ?should_skip_type_state_output@?$positional_parameter_base@DV?$stream_output_adapter@D@__crt_stdio_output@@@__crt_stdio_output@@IEBA_NXZ 000000014003d688 f i libucrt:output.obj
 0001:0003c6a8       ?should_skip_type_state_output@?$positional_parameter_base@DV?$string_output_adapter@D@__crt_stdio_output@@@__crt_stdio_output@@IEBA_NXZ 000000014003d6a8 f i libucrt:output.obj
 0001:0003c6c8       ?should_skip_type_state_output@?$positional_parameter_base@_WV?$stream_output_adapter@_W@__crt_stdio_output@@@__crt_stdio_output@@IEBA_NXZ 000000014003d6c8 f i libucrt:output.obj
 0001:0003c6e8       ?should_skip_type_state_output@?$positional_parameter_base@_WV?$string_output_adapter@_W@__crt_stdio_output@@@__crt_stdio_output@@IEBA_NXZ 000000014003d6e8 f i libucrt:output.obj
 0001:0003c708       ?should_skip_type_state_output@?$standard_base@DV?$stream_output_adapter@D@__crt_stdio_output@@@__crt_stdio_output@@IEBA_NXZ 000000014003d708 f i libucrt:output.obj
 0001:0003c70c       ?should_skip_type_state_output@?$standard_base@DV?$string_output_adapter@D@__crt_stdio_output@@@__crt_stdio_output@@IEBA_NXZ 000000014003d70c f i libucrt:output.obj
 0001:0003c710       ?should_skip_type_state_output@?$standard_base@_WV?$stream_output_adapter@_W@__crt_stdio_output@@@__crt_stdio_output@@IEBA_NXZ 000000014003d710 f i libucrt:output.obj
 0001:0003c714       ?should_skip_type_state_output@?$standard_base@_WV?$string_output_adapter@_W@__crt_stdio_output@@@__crt_stdio_output@@IEBA_NXZ 000000014003d714 f i libucrt:output.obj
 0001:0003c718       ?state_case_dot@?$output_processor@DV?$stream_output_adapter@D@__crt_stdio_output@@V?$format_validation_base@DV?$stream_output_adapter@D@__crt_stdio_output@@@2@@__crt_stdio_output@@AEAA_NXZ 000000014003d718 f i libucrt:output.obj
 0001:0003c720       ?state_case_dot@?$output_processor@DV?$stream_output_adapter@D@__crt_stdio_output@@V?$positional_parameter_base@DV?$stream_output_adapter@D@__crt_stdio_output@@@2@@__crt_stdio_output@@AEAA_NXZ 000000014003d720 f i libucrt:output.obj
 0001:0003c728       ?state_case_dot@?$output_processor@DV?$stream_output_adapter@D@__crt_stdio_output@@V?$standard_base@DV?$stream_output_adapter@D@__crt_stdio_output@@@2@@__crt_stdio_output@@AEAA_NXZ 000000014003d728 f i libucrt:output.obj
 0001:0003c730       ?state_case_dot@?$output_processor@DV?$string_output_adapter@D@__crt_stdio_output@@V?$format_validation_base@DV?$string_output_adapter@D@__crt_stdio_output@@@2@@__crt_stdio_output@@AEAA_NXZ 000000014003d730 f i libucrt:output.obj
 0001:0003c738       ?state_case_dot@?$output_processor@DV?$string_output_adapter@D@__crt_stdio_output@@V?$positional_parameter_base@DV?$string_output_adapter@D@__crt_stdio_output@@@2@@__crt_stdio_output@@AEAA_NXZ 000000014003d738 f i libucrt:output.obj
 0001:0003c740       ?state_case_dot@?$output_processor@DV?$string_output_adapter@D@__crt_stdio_output@@V?$standard_base@DV?$string_output_adapter@D@__crt_stdio_output@@@2@@__crt_stdio_output@@AEAA_NXZ 000000014003d740 f i libucrt:output.obj
 0001:0003c748       ?state_case_dot@?$output_processor@_WV?$stream_output_adapter@_W@__crt_stdio_output@@V?$format_validation_base@_WV?$stream_output_adapter@_W@__crt_stdio_output@@@2@@__crt_stdio_output@@AEAA_NXZ 000000014003d748 f i libucrt:output.obj
 0001:0003c750       ?state_case_dot@?$output_processor@_WV?$stream_output_adapter@_W@__crt_stdio_output@@V?$positional_parameter_base@_WV?$stream_output_adapter@_W@__crt_stdio_output@@@2@@__crt_stdio_output@@AEAA_NXZ 000000014003d750 f i libucrt:output.obj
 0001:0003c758       ?state_case_dot@?$output_processor@_WV?$stream_output_adapter@_W@__crt_stdio_output@@V?$standard_base@_WV?$stream_output_adapter@_W@__crt_stdio_output@@@2@@__crt_stdio_output@@AEAA_NXZ 000000014003d758 f i libucrt:output.obj
 0001:0003c760       ?state_case_dot@?$output_processor@_WV?$string_output_adapter@_W@__crt_stdio_output@@V?$format_validation_base@_WV?$string_output_adapter@_W@__crt_stdio_output@@@2@@__crt_stdio_output@@AEAA_NXZ 000000014003d760 f i libucrt:output.obj
 0001:0003c768       ?state_case_dot@?$output_processor@_WV?$string_output_adapter@_W@__crt_stdio_output@@V?$positional_parameter_base@_WV?$string_output_adapter@_W@__crt_stdio_output@@@2@@__crt_stdio_output@@AEAA_NXZ 000000014003d768 f i libucrt:output.obj
 0001:0003c770       ?state_case_dot@?$output_processor@_WV?$string_output_adapter@_W@__crt_stdio_output@@V?$standard_base@_WV?$string_output_adapter@_W@__crt_stdio_output@@@2@@__crt_stdio_output@@AEAA_NXZ 000000014003d770 f i libucrt:output.obj
 0001:0003c778       ?state_case_flag@?$output_processor@DV?$stream_output_adapter@D@__crt_stdio_output@@V?$format_validation_base@DV?$stream_output_adapter@D@__crt_stdio_output@@@2@@__crt_stdio_output@@AEAA_NXZ 000000014003d778 f i libucrt:output.obj
 0001:0003c7bc       ?state_case_flag@?$output_processor@DV?$stream_output_adapter@D@__crt_stdio_output@@V?$positional_parameter_base@DV?$stream_output_adapter@D@__crt_stdio_output@@@2@@__crt_stdio_output@@AEAA_NXZ 000000014003d7bc f i libucrt:output.obj
 0001:0003c800       ?state_case_flag@?$output_processor@DV?$stream_output_adapter@D@__crt_stdio_output@@V?$standard_base@DV?$stream_output_adapter@D@__crt_stdio_output@@@2@@__crt_stdio_output@@AEAA_NXZ 000000014003d800 f i libucrt:output.obj
 0001:0003c844       ?state_case_flag@?$output_processor@DV?$string_output_adapter@D@__crt_stdio_output@@V?$format_validation_base@DV?$string_output_adapter@D@__crt_stdio_output@@@2@@__crt_stdio_output@@AEAA_NXZ 000000014003d844 f i libucrt:output.obj
 0001:0003c888       ?state_case_flag@?$output_processor@DV?$string_output_adapter@D@__crt_stdio_output@@V?$positional_parameter_base@DV?$string_output_adapter@D@__crt_stdio_output@@@2@@__crt_stdio_output@@AEAA_NXZ 000000014003d888 f i libucrt:output.obj
 0001:0003c8cc       ?state_case_flag@?$output_processor@DV?$string_output_adapter@D@__crt_stdio_output@@V?$standard_base@DV?$string_output_adapter@D@__crt_stdio_output@@@2@@__crt_stdio_output@@AEAA_NXZ 000000014003d8cc f i libucrt:output.obj
 0001:0003c910       ?state_case_flag@?$output_processor@_WV?$stream_output_adapter@_W@__crt_stdio_output@@V?$format_validation_base@_WV?$stream_output_adapter@_W@__crt_stdio_output@@@2@@__crt_stdio_output@@AEAA_NXZ 000000014003d910 f i libucrt:output.obj
 0001:0003c968       ?state_case_flag@?$output_processor@_WV?$stream_output_adapter@_W@__crt_stdio_output@@V?$positional_parameter_base@_WV?$stream_output_adapter@_W@__crt_stdio_output@@@2@@__crt_stdio_output@@AEAA_NXZ 000000014003d968 f i libucrt:output.obj
 0001:0003c9c0       ?state_case_flag@?$output_processor@_WV?$stream_output_adapter@_W@__crt_stdio_output@@V?$standard_base@_WV?$stream_output_adapter@_W@__crt_stdio_output@@@2@@__crt_stdio_output@@AEAA_NXZ 000000014003d9c0 f i libucrt:output.obj
 0001:0003ca18       ?state_case_flag@?$output_processor@_WV?$string_output_adapter@_W@__crt_stdio_output@@V?$format_validation_base@_WV?$string_output_adapter@_W@__crt_stdio_output@@@2@@__crt_stdio_output@@AEAA_NXZ 000000014003da18 f i libucrt:output.obj
 0001:0003ca70       ?state_case_flag@?$output_processor@_WV?$string_output_adapter@_W@__crt_stdio_output@@V?$positional_parameter_base@_WV?$string_output_adapter@_W@__crt_stdio_output@@@2@@__crt_stdio_output@@AEAA_NXZ 000000014003da70 f i libucrt:output.obj
 0001:0003cac8       ?state_case_flag@?$output_processor@_WV?$string_output_adapter@_W@__crt_stdio_output@@V?$standard_base@_WV?$string_output_adapter@_W@__crt_stdio_output@@@2@@__crt_stdio_output@@AEAA_NXZ 000000014003dac8 f i libucrt:output.obj
 0001:0003cb20       ?state_case_normal@?$output_processor@DV?$stream_output_adapter@D@__crt_stdio_output@@V?$format_validation_base@DV?$stream_output_adapter@D@__crt_stdio_output@@@2@@__crt_stdio_output@@AEAA_NXZ 000000014003db20 f i libucrt:output.obj
 0001:0003ccc8       ?state_case_normal@?$output_processor@DV?$stream_output_adapter@D@__crt_stdio_output@@V?$positional_parameter_base@DV?$stream_output_adapter@D@__crt_stdio_output@@@2@@__crt_stdio_output@@AEAA_NXZ 000000014003dcc8 f i libucrt:output.obj
 0001:0003cea4       ?state_case_normal@?$output_processor@DV?$stream_output_adapter@D@__crt_stdio_output@@V?$standard_base@DV?$stream_output_adapter@D@__crt_stdio_output@@@2@@__crt_stdio_output@@AEAA_NXZ 000000014003dea4 f i libucrt:output.obj
 0001:0003d04c       ?state_case_normal@?$output_processor@DV?$string_output_adapter@D@__crt_stdio_output@@V?$format_validation_base@DV?$string_output_adapter@D@__crt_stdio_output@@@2@@__crt_stdio_output@@AEAA_NXZ 000000014003e04c f i libucrt:output.obj
 0001:0003d1ec       ?state_case_normal@?$output_processor@DV?$string_output_adapter@D@__crt_stdio_output@@V?$positional_parameter_base@DV?$string_output_adapter@D@__crt_stdio_output@@@2@@__crt_stdio_output@@AEAA_NXZ 000000014003e1ec f i libucrt:output.obj
 0001:0003d3c0       ?state_case_normal@?$output_processor@DV?$string_output_adapter@D@__crt_stdio_output@@V?$standard_base@DV?$string_output_adapter@D@__crt_stdio_output@@@2@@__crt_stdio_output@@AEAA_NXZ 000000014003e3c0 f i libucrt:output.obj
 0001:0003d560       ?state_case_normal@?$output_processor@_WV?$stream_output_adapter@_W@__crt_stdio_output@@V?$format_validation_base@_WV?$stream_output_adapter@_W@__crt_stdio_output@@@2@@__crt_stdio_output@@AEAA_NXZ 000000014003e560 f i libucrt:output.obj
 0001:0003d5d4       ?state_case_normal@?$output_processor@_WV?$stream_output_adapter@_W@__crt_stdio_output@@V?$positional_parameter_base@_WV?$stream_output_adapter@_W@__crt_stdio_output@@@2@@__crt_stdio_output@@AEAA_NXZ 000000014003e5d4 f i libucrt:output.obj
 0001:0003d674       ?state_case_normal@?$output_processor@_WV?$stream_output_adapter@_W@__crt_stdio_output@@V?$standard_base@_WV?$stream_output_adapter@_W@__crt_stdio_output@@@2@@__crt_stdio_output@@AEAA_NXZ 000000014003e674 f i libucrt:output.obj
 0001:0003d6e8       ?state_case_normal@?$output_processor@_WV?$string_output_adapter@_W@__crt_stdio_output@@V?$format_validation_base@_WV?$string_output_adapter@_W@__crt_stdio_output@@@2@@__crt_stdio_output@@AEAA_NXZ 000000014003e6e8 f i libucrt:output.obj
 0001:0003d754       ?state_case_normal@?$output_processor@_WV?$string_output_adapter@_W@__crt_stdio_output@@V?$positional_parameter_base@_WV?$string_output_adapter@_W@__crt_stdio_output@@@2@@__crt_stdio_output@@AEAA_NXZ 000000014003e754 f i libucrt:output.obj
 0001:0003d7ec       ?state_case_normal@?$output_processor@_WV?$string_output_adapter@_W@__crt_stdio_output@@V?$standard_base@_WV?$string_output_adapter@_W@__crt_stdio_output@@@2@@__crt_stdio_output@@AEAA_NXZ 000000014003e7ec f i libucrt:output.obj
 0001:0003d858       ?state_case_normal_common@?$output_processor@DV?$stream_output_adapter@D@__crt_stdio_output@@V?$format_validation_base@DV?$stream_output_adapter@D@__crt_stdio_output@@@2@@__crt_stdio_output@@AEAA_NXZ 000000014003e858 f i libucrt:output.obj
 0001:0003d9c8       ?state_case_normal_common@?$output_processor@DV?$stream_output_adapter@D@__crt_stdio_output@@V?$positional_parameter_base@DV?$stream_output_adapter@D@__crt_stdio_output@@@2@@__crt_stdio_output@@AEAA_NXZ 000000014003e9c8 f i libucrt:output.obj
 0001:0003db38       ?state_case_normal_common@?$output_processor@DV?$stream_output_adapter@D@__crt_stdio_output@@V?$standard_base@DV?$stream_output_adapter@D@__crt_stdio_output@@@2@@__crt_stdio_output@@AEAA_NXZ 000000014003eb38 f i libucrt:output.obj
 0001:0003dca8       ?state_case_normal_common@?$output_processor@DV?$string_output_adapter@D@__crt_stdio_output@@V?$format_validation_base@DV?$string_output_adapter@D@__crt_stdio_output@@@2@@__crt_stdio_output@@AEAA_NXZ 000000014003eca8 f i libucrt:output.obj
 0001:0003de14       ?state_case_normal_common@?$output_processor@DV?$string_output_adapter@D@__crt_stdio_output@@V?$positional_parameter_base@DV?$string_output_adapter@D@__crt_stdio_output@@@2@@__crt_stdio_output@@AEAA_NXZ 000000014003ee14 f i libucrt:output.obj
 0001:0003df80       ?state_case_normal_common@?$output_processor@DV?$string_output_adapter@D@__crt_stdio_output@@V?$standard_base@DV?$string_output_adapter@D@__crt_stdio_output@@@2@@__crt_stdio_output@@AEAA_NXZ 000000014003ef80 f i libucrt:output.obj
 0001:0003e0ec       ?state_case_normal_common@?$output_processor@_WV?$stream_output_adapter@_W@__crt_stdio_output@@V?$format_validation_base@_WV?$stream_output_adapter@_W@__crt_stdio_output@@@2@@__crt_stdio_output@@AEAA_NXZ 000000014003f0ec f i libucrt:output.obj
 0001:0003e160       ?state_case_normal_common@?$output_processor@_WV?$stream_output_adapter@_W@__crt_stdio_output@@V?$positional_parameter_base@_WV?$stream_output_adapter@_W@__crt_stdio_output@@@2@@__crt_stdio_output@@AEAA_NXZ 000000014003f160 f i libucrt:output.obj
 0001:0003e1d4       ?state_case_normal_common@?$output_processor@_WV?$stream_output_adapter@_W@__crt_stdio_output@@V?$standard_base@_WV?$stream_output_adapter@_W@__crt_stdio_output@@@2@@__crt_stdio_output@@AEAA_NXZ 000000014003f1d4 f i libucrt:output.obj
 0001:0003e248       ?state_case_normal_common@?$output_processor@_WV?$string_output_adapter@_W@__crt_stdio_output@@V?$format_validation_base@_WV?$string_output_adapter@_W@__crt_stdio_output@@@2@@__crt_stdio_output@@AEAA_NXZ 000000014003f248 f i libucrt:output.obj
 0001:0003e2b4       ?state_case_normal_common@?$output_processor@_WV?$string_output_adapter@_W@__crt_stdio_output@@V?$positional_parameter_base@_WV?$string_output_adapter@_W@__crt_stdio_output@@@2@@__crt_stdio_output@@AEAA_NXZ 000000014003f2b4 f i libucrt:output.obj
 0001:0003e320       ?state_case_normal_common@?$output_processor@_WV?$string_output_adapter@_W@__crt_stdio_output@@V?$standard_base@_WV?$string_output_adapter@_W@__crt_stdio_output@@@2@@__crt_stdio_output@@AEAA_NXZ 000000014003f320 f i libucrt:output.obj
 0001:0003e38c       ?state_case_normal_tchar@?$output_processor@DV?$stream_output_adapter@D@__crt_stdio_output@@V?$format_validation_base@DV?$stream_output_adapter@D@__crt_stdio_output@@@2@@__crt_stdio_output@@AEAA_ND@Z 000000014003f38c f i libucrt:output.obj
 0001:0003e4a0       ?state_case_normal_tchar@?$output_processor@DV?$stream_output_adapter@D@__crt_stdio_output@@V?$positional_parameter_base@DV?$stream_output_adapter@D@__crt_stdio_output@@@2@@__crt_stdio_output@@AEAA_ND@Z 000000014003f4a0 f i libucrt:output.obj
 0001:0003e5b4       ?state_case_normal_tchar@?$output_processor@DV?$stream_output_adapter@D@__crt_stdio_output@@V?$standard_base@DV?$stream_output_adapter@D@__crt_stdio_output@@@2@@__crt_stdio_output@@AEAA_ND@Z 000000014003f5b4 f i libucrt:output.obj
 0001:0003e6c8       ?state_case_normal_tchar@?$output_processor@DV?$string_output_adapter@D@__crt_stdio_output@@V?$format_validation_base@DV?$string_output_adapter@D@__crt_stdio_output@@@2@@__crt_stdio_output@@AEAA_ND@Z 000000014003f6c8 f i libucrt:output.obj
 0001:0003e7dc       ?state_case_normal_tchar@?$output_processor@DV?$string_output_adapter@D@__crt_stdio_output@@V?$positional_parameter_base@DV?$string_output_adapter@D@__crt_stdio_output@@@2@@__crt_stdio_output@@AEAA_ND@Z 000000014003f7dc f i libucrt:output.obj
 0001:0003e8f0       ?state_case_normal_tchar@?$output_processor@DV?$string_output_adapter@D@__crt_stdio_output@@V?$standard_base@DV?$string_output_adapter@D@__crt_stdio_output@@@2@@__crt_stdio_output@@AEAA_ND@Z 000000014003f8f0 f i libucrt:output.obj
 0001:0003ea04       ?state_case_normal_tchar@?$output_processor@_WV?$stream_output_adapter@_W@__crt_stdio_output@@V?$format_validation_base@_WV?$stream_output_adapter@_W@__crt_stdio_output@@@2@@__crt_stdio_output@@AEAA_N_W@Z 000000014003fa04 f i libucrt:output.obj
 0001:0003ea0c       ?state_case_normal_tchar@?$output_processor@_WV?$stream_output_adapter@_W@__crt_stdio_output@@V?$positional_parameter_base@_WV?$stream_output_adapter@_W@__crt_stdio_output@@@2@@__crt_stdio_output@@AEAA_N_W@Z 000000014003fa0c f i libucrt:output.obj
 0001:0003ea14       ?state_case_normal_tchar@?$output_processor@_WV?$stream_output_adapter@_W@__crt_stdio_output@@V?$standard_base@_WV?$stream_output_adapter@_W@__crt_stdio_output@@@2@@__crt_stdio_output@@AEAA_N_W@Z 000000014003fa14 f i libucrt:output.obj
 0001:0003ea1c       ?state_case_normal_tchar@?$output_processor@_WV?$string_output_adapter@_W@__crt_stdio_output@@V?$format_validation_base@_WV?$string_output_adapter@_W@__crt_stdio_output@@@2@@__crt_stdio_output@@AEAA_N_W@Z 000000014003fa1c f i libucrt:output.obj
 0001:0003ea24       ?state_case_normal_tchar@?$output_processor@_WV?$string_output_adapter@_W@__crt_stdio_output@@V?$positional_parameter_base@_WV?$string_output_adapter@_W@__crt_stdio_output@@@2@@__crt_stdio_output@@AEAA_N_W@Z 000000014003fa24 f i libucrt:output.obj
 0001:0003ea2c       ?state_case_normal_tchar@?$output_processor@_WV?$string_output_adapter@_W@__crt_stdio_output@@V?$standard_base@_WV?$string_output_adapter@_W@__crt_stdio_output@@@2@@__crt_stdio_output@@AEAA_N_W@Z 000000014003fa2c f i libucrt:output.obj
 0001:0003ea34       ?state_case_percent@?$output_processor@DV?$stream_output_adapter@D@__crt_stdio_output@@V?$format_validation_base@DV?$stream_output_adapter@D@__crt_stdio_output@@@2@@__crt_stdio_output@@AEAA_NXZ 000000014003fa34 f i libucrt:output.obj
 0001:0003ea50       ?state_case_percent@?$output_processor@DV?$stream_output_adapter@D@__crt_stdio_output@@V?$positional_parameter_base@DV?$stream_output_adapter@D@__crt_stdio_output@@@2@@__crt_stdio_output@@AEAA_NXZ 000000014003fa50 f i libucrt:output.obj
 0001:0003ea6c       ?state_case_percent@?$output_processor@DV?$stream_output_adapter@D@__crt_stdio_output@@V?$standard_base@DV?$stream_output_adapter@D@__crt_stdio_output@@@2@@__crt_stdio_output@@AEAA_NXZ 000000014003fa6c f i libucrt:output.obj
 0001:0003ea88       ?state_case_percent@?$output_processor@DV?$string_output_adapter@D@__crt_stdio_output@@V?$format_validation_base@DV?$string_output_adapter@D@__crt_stdio_output@@@2@@__crt_stdio_output@@AEAA_NXZ 000000014003fa88 f i libucrt:output.obj
 0001:0003eaa4       ?state_case_percent@?$output_processor@DV?$string_output_adapter@D@__crt_stdio_output@@V?$positional_parameter_base@DV?$string_output_adapter@D@__crt_stdio_output@@@2@@__crt_stdio_output@@AEAA_NXZ 000000014003faa4 f i libucrt:output.obj
 0001:0003eac0       ?state_case_percent@?$output_processor@DV?$string_output_adapter@D@__crt_stdio_output@@V?$standard_base@DV?$string_output_adapter@D@__crt_stdio_output@@@2@@__crt_stdio_output@@AEAA_NXZ 000000014003fac0 f i libucrt:output.obj
 0001:0003eadc       ?state_case_percent@?$output_processor@_WV?$stream_output_adapter@_W@__crt_stdio_output@@V?$format_validation_base@_WV?$stream_output_adapter@_W@__crt_stdio_output@@@2@@__crt_stdio_output@@AEAA_NXZ 000000014003fadc f i libucrt:output.obj
 0001:0003eaf8       ?state_case_percent@?$output_processor@_WV?$stream_output_adapter@_W@__crt_stdio_output@@V?$positional_parameter_base@_WV?$stream_output_adapter@_W@__crt_stdio_output@@@2@@__crt_stdio_output@@AEAA_NXZ 000000014003faf8 f i libucrt:output.obj
 0001:0003eb14       ?state_case_percent@?$output_processor@_WV?$stream_output_adapter@_W@__crt_stdio_output@@V?$standard_base@_WV?$stream_output_adapter@_W@__crt_stdio_output@@@2@@__crt_stdio_output@@AEAA_NXZ 000000014003fb14 f i libucrt:output.obj
 0001:0003eb30       ?state_case_percent@?$output_processor@_WV?$string_output_adapter@_W@__crt_stdio_output@@V?$format_validation_base@_WV?$string_output_adapter@_W@__crt_stdio_output@@@2@@__crt_stdio_output@@AEAA_NXZ 000000014003fb30 f i libucrt:output.obj
 0001:0003eb4c       ?state_case_percent@?$output_processor@_WV?$string_output_adapter@_W@__crt_stdio_output@@V?$positional_parameter_base@_WV?$string_output_adapter@_W@__crt_stdio_output@@@2@@__crt_stdio_output@@AEAA_NXZ 000000014003fb4c f i libucrt:output.obj
 0001:0003eb68       ?state_case_percent@?$output_processor@_WV?$string_output_adapter@_W@__crt_stdio_output@@V?$standard_base@_WV?$string_output_adapter@_W@__crt_stdio_output@@@2@@__crt_stdio_output@@AEAA_NXZ 000000014003fb68 f i libucrt:output.obj
 0001:0003eb84       ?state_case_precision@?$output_processor@DV?$stream_output_adapter@D@__crt_stdio_output@@V?$format_validation_base@DV?$stream_output_adapter@D@__crt_stdio_output@@@2@@__crt_stdio_output@@AEAA_NXZ 000000014003fb84 f i libucrt:output.obj
 0001:0003ebb4       ?state_case_precision@?$output_processor@DV?$stream_output_adapter@D@__crt_stdio_output@@V?$positional_parameter_base@DV?$stream_output_adapter@D@__crt_stdio_output@@@2@@__crt_stdio_output@@AEAA_NXZ 000000014003fbb4 f i libucrt:output.obj
 0001:0003ec10       ?state_case_precision@?$output_processor@DV?$stream_output_adapter@D@__crt_stdio_output@@V?$standard_base@DV?$stream_output_adapter@D@__crt_stdio_output@@@2@@__crt_stdio_output@@AEAA_NXZ 000000014003fc10 f i libucrt:output.obj
 0001:0003ec40       ?state_case_precision@?$output_processor@DV?$string_output_adapter@D@__crt_stdio_output@@V?$format_validation_base@DV?$string_output_adapter@D@__crt_stdio_output@@@2@@__crt_stdio_output@@AEAA_NXZ 000000014003fc40 f i libucrt:output.obj
 0001:0003ec70       ?state_case_precision@?$output_processor@DV?$string_output_adapter@D@__crt_stdio_output@@V?$positional_parameter_base@DV?$string_output_adapter@D@__crt_stdio_output@@@2@@__crt_stdio_output@@AEAA_NXZ 000000014003fc70 f i libucrt:output.obj
 0001:0003eccc       ?state_case_precision@?$output_processor@DV?$string_output_adapter@D@__crt_stdio_output@@V?$standard_base@DV?$string_output_adapter@D@__crt_stdio_output@@@2@@__crt_stdio_output@@AEAA_NXZ 000000014003fccc f i libucrt:output.obj
 0001:0003ecfc       ?state_case_precision@?$output_processor@_WV?$stream_output_adapter@_W@__crt_stdio_output@@V?$format_validation_base@_WV?$stream_output_adapter@_W@__crt_stdio_output@@@2@@__crt_stdio_output@@AEAA_NXZ 000000014003fcfc f i libucrt:output.obj
 0001:0003ed30       ?state_case_precision@?$output_processor@_WV?$stream_output_adapter@_W@__crt_stdio_output@@V?$positional_parameter_base@_WV?$stream_output_adapter@_W@__crt_stdio_output@@@2@@__crt_stdio_output@@AEAA_NXZ 000000014003fd30 f i libucrt:output.obj
 0001:0003ed90       ?state_case_precision@?$output_processor@_WV?$stream_output_adapter@_W@__crt_stdio_output@@V?$standard_base@_WV?$stream_output_adapter@_W@__crt_stdio_output@@@2@@__crt_stdio_output@@AEAA_NXZ 000000014003fd90 f i libucrt:output.obj
 0001:0003edc4       ?state_case_precision@?$output_processor@_WV?$string_output_adapter@_W@__crt_stdio_output@@V?$format_validation_base@_WV?$string_output_adapter@_W@__crt_stdio_output@@@2@@__crt_stdio_output@@AEAA_NXZ 000000014003fdc4 f i libucrt:output.obj
 0001:0003edf8       ?state_case_precision@?$output_processor@_WV?$string_output_adapter@_W@__crt_stdio_output@@V?$positional_parameter_base@_WV?$string_output_adapter@_W@__crt_stdio_output@@@2@@__crt_stdio_output@@AEAA_NXZ 000000014003fdf8 f i libucrt:output.obj
 0001:0003ee58       ?state_case_precision@?$output_processor@_WV?$string_output_adapter@_W@__crt_stdio_output@@V?$standard_base@_WV?$string_output_adapter@_W@__crt_stdio_output@@@2@@__crt_stdio_output@@AEAA_NXZ 000000014003fe58 f i libucrt:output.obj
 0001:0003ee8c       ?state_case_size@?$output_processor@DV?$stream_output_adapter@D@__crt_stdio_output@@V?$format_validation_base@DV?$stream_output_adapter@D@__crt_stdio_output@@@2@@__crt_stdio_output@@AEAA_NXZ 000000014003fe8c f i libucrt:output.obj
 0001:0003f074       ?state_case_size@?$output_processor@DV?$stream_output_adapter@D@__crt_stdio_output@@V?$positional_parameter_base@DV?$stream_output_adapter@D@__crt_stdio_output@@@2@@__crt_stdio_output@@AEAA_NXZ 0000000140040074 f i libucrt:output.obj
 0001:0003f25c       ?state_case_size@?$output_processor@DV?$stream_output_adapter@D@__crt_stdio_output@@V?$standard_base@DV?$stream_output_adapter@D@__crt_stdio_output@@@2@@__crt_stdio_output@@AEAA_NXZ 000000014004025c f i libucrt:output.obj
 0001:0003f444       ?state_case_size@?$output_processor@DV?$string_output_adapter@D@__crt_stdio_output@@V?$format_validation_base@DV?$string_output_adapter@D@__crt_stdio_output@@@2@@__crt_stdio_output@@AEAA_NXZ 0000000140040444 f i libucrt:output.obj
 0001:0003f62c       ?state_case_size@?$output_processor@DV?$string_output_adapter@D@__crt_stdio_output@@V?$positional_parameter_base@DV?$string_output_adapter@D@__crt_stdio_output@@@2@@__crt_stdio_output@@AEAA_NXZ 000000014004062c f i libucrt:output.obj
 0001:0003f814       ?state_case_size@?$output_processor@DV?$string_output_adapter@D@__crt_stdio_output@@V?$standard_base@DV?$string_output_adapter@D@__crt_stdio_output@@@2@@__crt_stdio_output@@AEAA_NXZ 0000000140040814 f i libucrt:output.obj
 0001:0003f9fc       ?state_case_size@?$output_processor@_WV?$stream_output_adapter@_W@__crt_stdio_output@@V?$format_validation_base@_WV?$stream_output_adapter@_W@__crt_stdio_output@@@2@@__crt_stdio_output@@AEAA_NXZ 00000001400409fc f i libucrt:output.obj
 0001:0003fc10       ?state_case_size@?$output_processor@_WV?$stream_output_adapter@_W@__crt_stdio_output@@V?$positional_parameter_base@_WV?$stream_output_adapter@_W@__crt_stdio_output@@@2@@__crt_stdio_output@@AEAA_NXZ 0000000140040c10 f i libucrt:output.obj
 0001:0003fe24       ?state_case_size@?$output_processor@_WV?$stream_output_adapter@_W@__crt_stdio_output@@V?$standard_base@_WV?$stream_output_adapter@_W@__crt_stdio_output@@@2@@__crt_stdio_output@@AEAA_NXZ 0000000140040e24 f i libucrt:output.obj
 0001:00040038       ?state_case_size@?$output_processor@_WV?$string_output_adapter@_W@__crt_stdio_output@@V?$format_validation_base@_WV?$string_output_adapter@_W@__crt_stdio_output@@@2@@__crt_stdio_output@@AEAA_NXZ 0000000140041038 f i libucrt:output.obj
 0001:0004024c       ?state_case_size@?$output_processor@_WV?$string_output_adapter@_W@__crt_stdio_output@@V?$positional_parameter_base@_WV?$string_output_adapter@_W@__crt_stdio_output@@@2@@__crt_stdio_output@@AEAA_NXZ 000000014004124c f i libucrt:output.obj
 0001:00040460       ?state_case_size@?$output_processor@_WV?$string_output_adapter@_W@__crt_stdio_output@@V?$standard_base@_WV?$string_output_adapter@_W@__crt_stdio_output@@@2@@__crt_stdio_output@@AEAA_NXZ 0000000140041460 f i libucrt:output.obj
 0001:00040674       ?state_case_type@?$output_processor@DV?$stream_output_adapter@D@__crt_stdio_output@@V?$format_validation_base@DV?$stream_output_adapter@D@__crt_stdio_output@@@2@@__crt_stdio_output@@AEAA_NXZ 0000000140041674 f i libucrt:output.obj
 0001:00040bb4       ?state_case_type@?$output_processor@DV?$stream_output_adapter@D@__crt_stdio_output@@V?$positional_parameter_base@DV?$stream_output_adapter@D@__crt_stdio_output@@@2@@__crt_stdio_output@@AEAA_NXZ 0000000140041bb4 f i libucrt:output.obj
 0001:00041110       ?state_case_type@?$output_processor@DV?$stream_output_adapter@D@__crt_stdio_output@@V?$standard_base@DV?$stream_output_adapter@D@__crt_stdio_output@@@2@@__crt_stdio_output@@AEAA_NXZ 0000000140042110 f i libucrt:output.obj
 0001:00041650       ?state_case_type@?$output_processor@DV?$string_output_adapter@D@__crt_stdio_output@@V?$format_validation_base@DV?$string_output_adapter@D@__crt_stdio_output@@@2@@__crt_stdio_output@@AEAA_NXZ 0000000140042650 f i libucrt:output.obj
 0001:00041b10       ?state_case_type@?$output_processor@DV?$string_output_adapter@D@__crt_stdio_output@@V?$positional_parameter_base@DV?$string_output_adapter@D@__crt_stdio_output@@@2@@__crt_stdio_output@@AEAA_NXZ 0000000140042b10 f i libucrt:output.obj
 0001:00041fec       ?state_case_type@?$output_processor@DV?$string_output_adapter@D@__crt_stdio_output@@V?$standard_base@DV?$string_output_adapter@D@__crt_stdio_output@@@2@@__crt_stdio_output@@AEAA_NXZ 0000000140042fec f i libucrt:output.obj
 0001:000424ac       ?state_case_type@?$output_processor@_WV?$stream_output_adapter@_W@__crt_stdio_output@@V?$format_validation_base@_WV?$stream_output_adapter@_W@__crt_stdio_output@@@2@@__crt_stdio_output@@AEAA_NXZ 00000001400434ac f i libucrt:output.obj
 0001:00042ab0       ?state_case_type@?$output_processor@_WV?$stream_output_adapter@_W@__crt_stdio_output@@V?$positional_parameter_base@_WV?$stream_output_adapter@_W@__crt_stdio_output@@@2@@__crt_stdio_output@@AEAA_NXZ 0000000140043ab0 f i libucrt:output.obj
 0001:000430d0       ?state_case_type@?$output_processor@_WV?$stream_output_adapter@_W@__crt_stdio_output@@V?$standard_base@_WV?$stream_output_adapter@_W@__crt_stdio_output@@@2@@__crt_stdio_output@@AEAA_NXZ 00000001400440d0 f i libucrt:output.obj
 0001:000436d4       ?state_case_type@?$output_processor@_WV?$string_output_adapter@_W@__crt_stdio_output@@V?$format_validation_base@_WV?$string_output_adapter@_W@__crt_stdio_output@@@2@@__crt_stdio_output@@AEAA_NXZ 00000001400446d4 f i libucrt:output.obj
 0001:00043c48       ?state_case_type@?$output_processor@_WV?$string_output_adapter@_W@__crt_stdio_output@@V?$positional_parameter_base@_WV?$string_output_adapter@_W@__crt_stdio_output@@@2@@__crt_stdio_output@@AEAA_NXZ 0000000140044c48 f i libucrt:output.obj
 0001:000441d8       ?state_case_type@?$output_processor@_WV?$string_output_adapter@_W@__crt_stdio_output@@V?$standard_base@_WV?$string_output_adapter@_W@__crt_stdio_output@@@2@@__crt_stdio_output@@AEAA_NXZ 00000001400451d8 f i libucrt:output.obj
 0001:0004474c       ?state_case_width@?$output_processor@DV?$stream_output_adapter@D@__crt_stdio_output@@V?$format_validation_base@DV?$stream_output_adapter@D@__crt_stdio_output@@@2@@__crt_stdio_output@@AEAA_NXZ 000000014004574c f i libucrt:output.obj
 0001:0004478c       ?state_case_width@?$output_processor@DV?$stream_output_adapter@D@__crt_stdio_output@@V?$positional_parameter_base@DV?$stream_output_adapter@D@__crt_stdio_output@@@2@@__crt_stdio_output@@AEAA_NXZ 000000014004578c f i libucrt:output.obj
 0001:000447f0       ?state_case_width@?$output_processor@DV?$stream_output_adapter@D@__crt_stdio_output@@V?$standard_base@DV?$stream_output_adapter@D@__crt_stdio_output@@@2@@__crt_stdio_output@@AEAA_NXZ 00000001400457f0 f i libucrt:output.obj
 0001:00044830       ?state_case_width@?$output_processor@DV?$string_output_adapter@D@__crt_stdio_output@@V?$format_validation_base@DV?$string_output_adapter@D@__crt_stdio_output@@@2@@__crt_stdio_output@@AEAA_NXZ 0000000140045830 f i libucrt:output.obj
 0001:00044870       ?state_case_width@?$output_processor@DV?$string_output_adapter@D@__crt_stdio_output@@V?$positional_parameter_base@DV?$string_output_adapter@D@__crt_stdio_output@@@2@@__crt_stdio_output@@AEAA_NXZ 0000000140045870 f i libucrt:output.obj
 0001:000448d4       ?state_case_width@?$output_processor@DV?$string_output_adapter@D@__crt_stdio_output@@V?$standard_base@DV?$string_output_adapter@D@__crt_stdio_output@@@2@@__crt_stdio_output@@AEAA_NXZ 00000001400458d4 f i libucrt:output.obj
 0001:00044914       ?state_case_width@?$output_processor@_WV?$stream_output_adapter@_W@__crt_stdio_output@@V?$format_validation_base@_WV?$stream_output_adapter@_W@__crt_stdio_output@@@2@@__crt_stdio_output@@AEAA_NXZ 0000000140045914 f i libucrt:output.obj
 0001:00044954       ?state_case_width@?$output_processor@_WV?$stream_output_adapter@_W@__crt_stdio_output@@V?$positional_parameter_base@_WV?$stream_output_adapter@_W@__crt_stdio_output@@@2@@__crt_stdio_output@@AEAA_NXZ 0000000140045954 f i libucrt:output.obj
 0001:000449bc       ?state_case_width@?$output_processor@_WV?$stream_output_adapter@_W@__crt_stdio_output@@V?$standard_base@_WV?$stream_output_adapter@_W@__crt_stdio_output@@@2@@__crt_stdio_output@@AEAA_NXZ 00000001400459bc f i libucrt:output.obj
 0001:000449fc       ?state_case_width@?$output_processor@_WV?$string_output_adapter@_W@__crt_stdio_output@@V?$format_validation_base@_WV?$string_output_adapter@_W@__crt_stdio_output@@@2@@__crt_stdio_output@@AEAA_NXZ 00000001400459fc f i libucrt:output.obj
 0001:00044a3c       ?state_case_width@?$output_processor@_WV?$string_output_adapter@_W@__crt_stdio_output@@V?$positional_parameter_base@_WV?$string_output_adapter@_W@__crt_stdio_output@@@2@@__crt_stdio_output@@AEAA_NXZ 0000000140045a3c f i libucrt:output.obj
 0001:00044aa4       ?state_case_width@?$output_processor@_WV?$string_output_adapter@_W@__crt_stdio_output@@V?$standard_base@_WV?$string_output_adapter@_W@__crt_stdio_output@@@2@@__crt_stdio_output@@AEAA_NXZ 0000000140045aa4 f i libucrt:output.obj
 0001:00044ae4       ?state_count@?$format_validation_base@DV?$stream_output_adapter@D@__crt_stdio_output@@@__crt_stdio_output@@KAIXZ 0000000140045ae4 f i libucrt:output.obj
 0001:00044aec       ?state_count@?$format_validation_base@DV?$string_output_adapter@D@__crt_stdio_output@@@__crt_stdio_output@@KAIXZ 0000000140045aec f i libucrt:output.obj
 0001:00044af4       ?state_count@?$format_validation_base@_WV?$stream_output_adapter@_W@__crt_stdio_output@@@__crt_stdio_output@@KAIXZ 0000000140045af4 f i libucrt:output.obj
 0001:00044afc       ?state_count@?$format_validation_base@_WV?$string_output_adapter@_W@__crt_stdio_output@@@__crt_stdio_output@@KAIXZ 0000000140045afc f i libucrt:output.obj
 0001:00044b04       ?state_count@?$standard_base@DV?$stream_output_adapter@D@__crt_stdio_output@@@__crt_stdio_output@@KAIXZ 0000000140045b04 f i libucrt:output.obj
 0001:00044b0c       ?state_count@?$standard_base@DV?$string_output_adapter@D@__crt_stdio_output@@@__crt_stdio_output@@KAIXZ 0000000140045b0c f i libucrt:output.obj
 0001:00044b14       ?state_count@?$standard_base@_WV?$stream_output_adapter@_W@__crt_stdio_output@@@__crt_stdio_output@@KAIXZ 0000000140045b14 f i libucrt:output.obj
 0001:00044b1c       ?state_count@?$standard_base@_WV?$string_output_adapter@_W@__crt_stdio_output@@@__crt_stdio_output@@KAIXZ 0000000140045b1c f i libucrt:output.obj
 0001:00044b24       ?state_transition_table@?$format_validation_base@DV?$stream_output_adapter@D@__crt_stdio_output@@@__crt_stdio_output@@KAAEBV?$spectre_mitigated_lookup_table@Ustate_transition_pair@__crt_stdio_output@@$0IA@@2@XZ 0000000140045b24 f i libucrt:output.obj
 0001:00044b30       ?state_transition_table@?$format_validation_base@DV?$string_output_adapter@D@__crt_stdio_output@@@__crt_stdio_output@@KAAEBV?$spectre_mitigated_lookup_table@Ustate_transition_pair@__crt_stdio_output@@$0IA@@2@XZ 0000000140045b30 f i libucrt:output.obj
 0001:00044b3c       ?state_transition_table@?$format_validation_base@_WV?$stream_output_adapter@_W@__crt_stdio_output@@@__crt_stdio_output@@KAAEBV?$spectre_mitigated_lookup_table@Ustate_transition_pair@__crt_stdio_output@@$0IA@@2@XZ 0000000140045b3c f i libucrt:output.obj
 0001:00044b48       ?state_transition_table@?$format_validation_base@_WV?$string_output_adapter@_W@__crt_stdio_output@@@__crt_stdio_output@@KAAEBV?$spectre_mitigated_lookup_table@Ustate_transition_pair@__crt_stdio_output@@$0IA@@2@XZ 0000000140045b48 f i libucrt:output.obj
 0001:00044b54       ?state_transition_table@?$standard_base@DV?$stream_output_adapter@D@__crt_stdio_output@@@__crt_stdio_output@@KAAEBV?$spectre_mitigated_lookup_table@Ustate_transition_pair@__crt_stdio_output@@$0IA@@2@XZ 0000000140045b54 f i libucrt:output.obj
 0001:00044b60       ?state_transition_table@?$standard_base@DV?$string_output_adapter@D@__crt_stdio_output@@@__crt_stdio_output@@KAAEBV?$spectre_mitigated_lookup_table@Ustate_transition_pair@__crt_stdio_output@@$0IA@@2@XZ 0000000140045b60 f i libucrt:output.obj
 0001:00044b6c       ?state_transition_table@?$standard_base@_WV?$stream_output_adapter@_W@__crt_stdio_output@@@__crt_stdio_output@@KAAEBV?$spectre_mitigated_lookup_table@Ustate_transition_pair@__crt_stdio_output@@$0IA@@2@XZ 0000000140045b6c f i libucrt:output.obj
 0001:00044b78       ?state_transition_table@?$standard_base@_WV?$string_output_adapter@_W@__crt_stdio_output@@@__crt_stdio_output@@KAAEBV?$spectre_mitigated_lookup_table@Ustate_transition_pair@__crt_stdio_output@@$0IA@@2@XZ 0000000140045b78 f i libucrt:output.obj
 0001:00044b84       ?tchar_string@?$common_data@D@__crt_stdio_output@@IEAAAEAPEADD@Z 0000000140045b84 f i libucrt:output.obj
 0001:00044b8c       ?tchar_string@?$common_data@D@__crt_stdio_output@@IEAAAEAPEADXZ 0000000140045b8c f i libucrt:output.obj
 0001:00044b94       ?tchar_string@?$common_data@_W@__crt_stdio_output@@IEAAAEAPEA_WXZ 0000000140045b94 f i libucrt:output.obj
 0001:00044b9c       ?tchar_string@?$common_data@_W@__crt_stdio_output@@IEAAAEAPEA_W_W@Z 0000000140045b9c f i libucrt:output.obj
 0001:00044ba4       ?to_integer_size@__crt_stdio_output@@YA_KW4length_modifier@1@@Z 0000000140045ba4 f i libucrt:output.obj
 0001:00044bfc       ?type_case_X@?$output_processor@DV?$stream_output_adapter@D@__crt_stdio_output@@V?$format_validation_base@DV?$stream_output_adapter@D@__crt_stdio_output@@@2@@__crt_stdio_output@@AEAA_NXZ 0000000140045bfc f i libucrt:output.obj
 0001:00044c04       ?type_case_X@?$output_processor@DV?$stream_output_adapter@D@__crt_stdio_output@@V?$positional_parameter_base@DV?$stream_output_adapter@D@__crt_stdio_output@@@2@@__crt_stdio_output@@AEAA_NXZ 0000000140045c04 f i libucrt:output.obj
 0001:00044c0c       ?type_case_X@?$output_processor@DV?$stream_output_adapter@D@__crt_stdio_output@@V?$standard_base@DV?$stream_output_adapter@D@__crt_stdio_output@@@2@@__crt_stdio_output@@AEAA_NXZ 0000000140045c0c f i libucrt:output.obj
 0001:00044c14       ?type_case_X@?$output_processor@DV?$string_output_adapter@D@__crt_stdio_output@@V?$format_validation_base@DV?$string_output_adapter@D@__crt_stdio_output@@@2@@__crt_stdio_output@@AEAA_NXZ 0000000140045c14 f i libucrt:output.obj
 0001:00044c1c       ?type_case_X@?$output_processor@DV?$string_output_adapter@D@__crt_stdio_output@@V?$positional_parameter_base@DV?$string_output_adapter@D@__crt_stdio_output@@@2@@__crt_stdio_output@@AEAA_NXZ 0000000140045c1c f i libucrt:output.obj
 0001:00044c24       ?type_case_X@?$output_processor@DV?$string_output_adapter@D@__crt_stdio_output@@V?$standard_base@DV?$string_output_adapter@D@__crt_stdio_output@@@2@@__crt_stdio_output@@AEAA_NXZ 0000000140045c24 f i libucrt:output.obj
 0001:00044c2c       ?type_case_X@?$output_processor@_WV?$stream_output_adapter@_W@__crt_stdio_output@@V?$format_validation_base@_WV?$stream_output_adapter@_W@__crt_stdio_output@@@2@@__crt_stdio_output@@AEAA_NXZ 0000000140045c2c f i libucrt:output.obj
 0001:00044c34       ?type_case_X@?$output_processor@_WV?$stream_output_adapter@_W@__crt_stdio_output@@V?$positional_parameter_base@_WV?$stream_output_adapter@_W@__crt_stdio_output@@@2@@__crt_stdio_output@@AEAA_NXZ 0000000140045c34 f i libucrt:output.obj
 0001:00044c3c       ?type_case_X@?$output_processor@_WV?$stream_output_adapter@_W@__crt_stdio_output@@V?$standard_base@_WV?$stream_output_adapter@_W@__crt_stdio_output@@@2@@__crt_stdio_output@@AEAA_NXZ 0000000140045c3c f i libucrt:output.obj
 0001:00044c44       ?type_case_X@?$output_processor@_WV?$string_output_adapter@_W@__crt_stdio_output@@V?$format_validation_base@_WV?$string_output_adapter@_W@__crt_stdio_output@@@2@@__crt_stdio_output@@AEAA_NXZ 0000000140045c44 f i libucrt:output.obj
 0001:00044c4c       ?type_case_X@?$output_processor@_WV?$string_output_adapter@_W@__crt_stdio_output@@V?$positional_parameter_base@_WV?$string_output_adapter@_W@__crt_stdio_output@@@2@@__crt_stdio_output@@AEAA_NXZ 0000000140045c4c f i libucrt:output.obj
 0001:00044c54       ?type_case_X@?$output_processor@_WV?$string_output_adapter@_W@__crt_stdio_output@@V?$standard_base@_WV?$string_output_adapter@_W@__crt_stdio_output@@@2@@__crt_stdio_output@@AEAA_NXZ 0000000140045c54 f i libucrt:output.obj
 0001:00044c5c       ?type_case_Z@?$output_processor@DV?$stream_output_adapter@D@__crt_stdio_output@@V?$format_validation_base@DV?$stream_output_adapter@D@__crt_stdio_output@@@2@@__crt_stdio_output@@AEAA_NXZ 0000000140045c5c f i libucrt:output.obj
 0001:00044cf4       ?type_case_Z@?$output_processor@DV?$stream_output_adapter@D@__crt_stdio_output@@V?$positional_parameter_base@DV?$stream_output_adapter@D@__crt_stdio_output@@@2@@__crt_stdio_output@@AEAA_NXZ 0000000140045cf4 f i libucrt:output.obj
 0001:00044dc4       ?type_case_Z@?$output_processor@DV?$stream_output_adapter@D@__crt_stdio_output@@V?$standard_base@DV?$stream_output_adapter@D@__crt_stdio_output@@@2@@__crt_stdio_output@@AEAA_NXZ 0000000140045dc4 f i libucrt:output.obj
 0001:00044e5c       ?type_case_Z@?$output_processor@DV?$string_output_adapter@D@__crt_stdio_output@@V?$format_validation_base@DV?$string_output_adapter@D@__crt_stdio_output@@@2@@__crt_stdio_output@@AEAA_NXZ 0000000140045e5c f i libucrt:output.obj
 0001:00044ef4       ?type_case_Z@?$output_processor@DV?$string_output_adapter@D@__crt_stdio_output@@V?$positional_parameter_base@DV?$string_output_adapter@D@__crt_stdio_output@@@2@@__crt_stdio_output@@AEAA_NXZ 0000000140045ef4 f i libucrt:output.obj
 0001:00044fc4       ?type_case_Z@?$output_processor@DV?$string_output_adapter@D@__crt_stdio_output@@V?$standard_base@DV?$string_output_adapter@D@__crt_stdio_output@@@2@@__crt_stdio_output@@AEAA_NXZ 0000000140045fc4 f i libucrt:output.obj
 0001:0004505c       ?type_case_Z@?$output_processor@_WV?$stream_output_adapter@_W@__crt_stdio_output@@V?$format_validation_base@_WV?$stream_output_adapter@_W@__crt_stdio_output@@@2@@__crt_stdio_output@@AEAA_NXZ 000000014004605c f i libucrt:output.obj
 0001:000450f4       ?type_case_Z@?$output_processor@_WV?$stream_output_adapter@_W@__crt_stdio_output@@V?$positional_parameter_base@_WV?$stream_output_adapter@_W@__crt_stdio_output@@@2@@__crt_stdio_output@@AEAA_NXZ 00000001400460f4 f i libucrt:output.obj
 0001:000451b0       ?type_case_Z@?$output_processor@_WV?$stream_output_adapter@_W@__crt_stdio_output@@V?$standard_base@_WV?$stream_output_adapter@_W@__crt_stdio_output@@@2@@__crt_stdio_output@@AEAA_NXZ 00000001400461b0 f i libucrt:output.obj
 0001:00045248       ?type_case_Z@?$output_processor@_WV?$string_output_adapter@_W@__crt_stdio_output@@V?$format_validation_base@_WV?$string_output_adapter@_W@__crt_stdio_output@@@2@@__crt_stdio_output@@AEAA_NXZ 0000000140046248 f i libucrt:output.obj
 0001:000452e0       ?type_case_Z@?$output_processor@_WV?$string_output_adapter@_W@__crt_stdio_output@@V?$positional_parameter_base@_WV?$string_output_adapter@_W@__crt_stdio_output@@@2@@__crt_stdio_output@@AEAA_NXZ 00000001400462e0 f i libucrt:output.obj
 0001:0004539c       ?type_case_Z@?$output_processor@_WV?$string_output_adapter@_W@__crt_stdio_output@@V?$standard_base@_WV?$string_output_adapter@_W@__crt_stdio_output@@@2@@__crt_stdio_output@@AEAA_NXZ 000000014004639c f i libucrt:output.obj
 0001:00045434       ?type_case_a@?$output_processor@DV?$stream_output_adapter@D@__crt_stdio_output@@V?$format_validation_base@DV?$stream_output_adapter@D@__crt_stdio_output@@@2@@__crt_stdio_output@@AEAA_NXZ 0000000140046434 f i libucrt:output.obj
 0001:00045710       ?type_case_a@?$output_processor@DV?$stream_output_adapter@D@__crt_stdio_output@@V?$positional_parameter_base@DV?$stream_output_adapter@D@__crt_stdio_output@@@2@@__crt_stdio_output@@AEAA_NXZ 0000000140046710 f i libucrt:output.obj
 0001:00045a2c       ?type_case_a@?$output_processor@DV?$stream_output_adapter@D@__crt_stdio_output@@V?$standard_base@DV?$stream_output_adapter@D@__crt_stdio_output@@@2@@__crt_stdio_output@@AEAA_NXZ 0000000140046a2c f i libucrt:output.obj
 0001:00045d08       ?type_case_a@?$output_processor@DV?$string_output_adapter@D@__crt_stdio_output@@V?$format_validation_base@DV?$string_output_adapter@D@__crt_stdio_output@@@2@@__crt_stdio_output@@AEAA_NXZ 0000000140046d08 f i libucrt:output.obj
 0001:00045fe4       ?type_case_a@?$output_processor@DV?$string_output_adapter@D@__crt_stdio_output@@V?$positional_parameter_base@DV?$string_output_adapter@D@__crt_stdio_output@@@2@@__crt_stdio_output@@AEAA_NXZ 0000000140046fe4 f i libucrt:output.obj
 0001:00046300       ?type_case_a@?$output_processor@DV?$string_output_adapter@D@__crt_stdio_output@@V?$standard_base@DV?$string_output_adapter@D@__crt_stdio_output@@@2@@__crt_stdio_output@@AEAA_NXZ 0000000140047300 f i libucrt:output.obj
 0001:000465dc       ?type_case_a@?$output_processor@_WV?$stream_output_adapter@_W@__crt_stdio_output@@V?$format_validation_base@_WV?$stream_output_adapter@_W@__crt_stdio_output@@@2@@__crt_stdio_output@@AEAA_NXZ 00000001400475dc f i libucrt:output.obj
 0001:000468d4       ?type_case_a@?$output_processor@_WV?$stream_output_adapter@_W@__crt_stdio_output@@V?$positional_parameter_base@_WV?$stream_output_adapter@_W@__crt_stdio_output@@@2@@__crt_stdio_output@@AEAA_NXZ 00000001400478d4 f i libucrt:output.obj
 0001:00046c0c       ?type_case_a@?$output_processor@_WV?$stream_output_adapter@_W@__crt_stdio_output@@V?$standard_base@_WV?$stream_output_adapter@_W@__crt_stdio_output@@@2@@__crt_stdio_output@@AEAA_NXZ 0000000140047c0c f i libucrt:output.obj
 0001:00046f04       ?type_case_a@?$output_processor@_WV?$string_output_adapter@_W@__crt_stdio_output@@V?$format_validation_base@_WV?$string_output_adapter@_W@__crt_stdio_output@@@2@@__crt_stdio_output@@AEAA_NXZ 0000000140047f04 f i libucrt:output.obj
 0001:000471fc       ?type_case_a@?$output_processor@_WV?$string_output_adapter@_W@__crt_stdio_output@@V?$positional_parameter_base@_WV?$string_output_adapter@_W@__crt_stdio_output@@@2@@__crt_stdio_output@@AEAA_NXZ 00000001400481fc f i libucrt:output.obj
 0001:00047534       ?type_case_a@?$output_processor@_WV?$string_output_adapter@_W@__crt_stdio_output@@V?$standard_base@_WV?$string_output_adapter@_W@__crt_stdio_output@@@2@@__crt_stdio_output@@AEAA_NXZ 0000000140048534 f i libucrt:output.obj
 0001:0004782c       ?type_case_c@?$output_processor@DV?$stream_output_adapter@D@__crt_stdio_output@@V?$format_validation_base@DV?$stream_output_adapter@D@__crt_stdio_output@@@2@@__crt_stdio_output@@AEAA_NXZ 000000014004882c f i libucrt:output.obj
 0001:00047834       ?type_case_c@?$output_processor@DV?$stream_output_adapter@D@__crt_stdio_output@@V?$positional_parameter_base@DV?$stream_output_adapter@D@__crt_stdio_output@@@2@@__crt_stdio_output@@AEAA_NXZ 0000000140048834 f i libucrt:output.obj
 0001:0004783c       ?type_case_c@?$output_processor@DV?$stream_output_adapter@D@__crt_stdio_output@@V?$standard_base@DV?$stream_output_adapter@D@__crt_stdio_output@@@2@@__crt_stdio_output@@AEAA_NXZ 000000014004883c f i libucrt:output.obj
 0001:00047844       ?type_case_c@?$output_processor@DV?$string_output_adapter@D@__crt_stdio_output@@V?$format_validation_base@DV?$string_output_adapter@D@__crt_stdio_output@@@2@@__crt_stdio_output@@AEAA_NXZ 0000000140048844 f i libucrt:output.obj
 0001:0004784c       ?type_case_c@?$output_processor@DV?$string_output_adapter@D@__crt_stdio_output@@V?$positional_parameter_base@DV?$string_output_adapter@D@__crt_stdio_output@@@2@@__crt_stdio_output@@AEAA_NXZ 000000014004884c f i libucrt:output.obj
 0001:00047854       ?type_case_c@?$output_processor@DV?$string_output_adapter@D@__crt_stdio_output@@V?$standard_base@DV?$string_output_adapter@D@__crt_stdio_output@@@2@@__crt_stdio_output@@AEAA_NXZ 0000000140048854 f i libucrt:output.obj
 0001:0004785c       ?type_case_c@?$output_processor@_WV?$stream_output_adapter@_W@__crt_stdio_output@@V?$format_validation_base@_WV?$stream_output_adapter@_W@__crt_stdio_output@@@2@@__crt_stdio_output@@AEAA_NXZ 000000014004885c f i libucrt:output.obj
 0001:00047864       ?type_case_c@?$output_processor@_WV?$stream_output_adapter@_W@__crt_stdio_output@@V?$positional_parameter_base@_WV?$stream_output_adapter@_W@__crt_stdio_output@@@2@@__crt_stdio_output@@AEAA_NXZ 0000000140048864 f i libucrt:output.obj
 0001:0004786c       ?type_case_c@?$output_processor@_WV?$stream_output_adapter@_W@__crt_stdio_output@@V?$standard_base@_WV?$stream_output_adapter@_W@__crt_stdio_output@@@2@@__crt_stdio_output@@AEAA_NXZ 000000014004886c f i libucrt:output.obj
 0001:00047874       ?type_case_c@?$output_processor@_WV?$string_output_adapter@_W@__crt_stdio_output@@V?$format_validation_base@_WV?$string_output_adapter@_W@__crt_stdio_output@@@2@@__crt_stdio_output@@AEAA_NXZ 0000000140048874 f i libucrt:output.obj
 0001:0004787c       ?type_case_c@?$output_processor@_WV?$string_output_adapter@_W@__crt_stdio_output@@V?$positional_parameter_base@_WV?$string_output_adapter@_W@__crt_stdio_output@@@2@@__crt_stdio_output@@AEAA_NXZ 000000014004887c f i libucrt:output.obj
 0001:00047884       ?type_case_c@?$output_processor@_WV?$string_output_adapter@_W@__crt_stdio_output@@V?$standard_base@_WV?$string_output_adapter@_W@__crt_stdio_output@@@2@@__crt_stdio_output@@AEAA_NXZ 0000000140048884 f i libucrt:output.obj
 0001:0004788c       ?type_case_c_tchar@?$output_processor@DV?$stream_output_adapter@D@__crt_stdio_output@@V?$format_validation_base@DV?$stream_output_adapter@D@__crt_stdio_output@@@2@@__crt_stdio_output@@AEAA_ND@Z 000000014004888c f i libucrt:output.obj
 0001:00047980       ?type_case_c_tchar@?$output_processor@DV?$stream_output_adapter@D@__crt_stdio_output@@V?$positional_parameter_base@DV?$stream_output_adapter@D@__crt_stdio_output@@@2@@__crt_stdio_output@@AEAA_ND@Z 0000000140048980 f i libucrt:output.obj
 0001:00047acc       ?type_case_c_tchar@?$output_processor@DV?$stream_output_adapter@D@__crt_stdio_output@@V?$standard_base@DV?$stream_output_adapter@D@__crt_stdio_output@@@2@@__crt_stdio_output@@AEAA_ND@Z 0000000140048acc f i libucrt:output.obj
 0001:00047bc0       ?type_case_c_tchar@?$output_processor@DV?$string_output_adapter@D@__crt_stdio_output@@V?$format_validation_base@DV?$string_output_adapter@D@__crt_stdio_output@@@2@@__crt_stdio_output@@AEAA_ND@Z 0000000140048bc0 f i libucrt:output.obj
 0001:00047cb4       ?type_case_c_tchar@?$output_processor@DV?$string_output_adapter@D@__crt_stdio_output@@V?$positional_parameter_base@DV?$string_output_adapter@D@__crt_stdio_output@@@2@@__crt_stdio_output@@AEAA_ND@Z 0000000140048cb4 f i libucrt:output.obj
 0001:00047e00       ?type_case_c_tchar@?$output_processor@DV?$string_output_adapter@D@__crt_stdio_output@@V?$standard_base@DV?$string_output_adapter@D@__crt_stdio_output@@@2@@__crt_stdio_output@@AEAA_ND@Z 0000000140048e00 f i libucrt:output.obj
 0001:00047ef4       ?type_case_c_tchar@?$output_processor@_WV?$stream_output_adapter@_W@__crt_stdio_output@@V?$format_validation_base@_WV?$stream_output_adapter@_W@__crt_stdio_output@@@2@@__crt_stdio_output@@AEAA_N_W@Z 0000000140048ef4 f i libucrt:output.obj
 0001:00047fe8       ?type_case_c_tchar@?$output_processor@_WV?$stream_output_adapter@_W@__crt_stdio_output@@V?$positional_parameter_base@_WV?$stream_output_adapter@_W@__crt_stdio_output@@@2@@__crt_stdio_output@@AEAA_N_W@Z 0000000140048fe8 f i libucrt:output.obj
 0001:0004811c       ?type_case_c_tchar@?$output_processor@_WV?$stream_output_adapter@_W@__crt_stdio_output@@V?$standard_base@_WV?$stream_output_adapter@_W@__crt_stdio_output@@@2@@__crt_stdio_output@@AEAA_N_W@Z 000000014004911c f i libucrt:output.obj
 0001:00048210       ?type_case_c_tchar@?$output_processor@_WV?$string_output_adapter@_W@__crt_stdio_output@@V?$format_validation_base@_WV?$string_output_adapter@_W@__crt_stdio_output@@@2@@__crt_stdio_output@@AEAA_N_W@Z 0000000140049210 f i libucrt:output.obj
 0001:00048304       ?type_case_c_tchar@?$output_processor@_WV?$string_output_adapter@_W@__crt_stdio_output@@V?$positional_parameter_base@_WV?$string_output_adapter@_W@__crt_stdio_output@@@2@@__crt_stdio_output@@AEAA_N_W@Z 0000000140049304 f i libucrt:output.obj
 0001:00048438       ?type_case_c_tchar@?$output_processor@_WV?$string_output_adapter@_W@__crt_stdio_output@@V?$standard_base@_WV?$string_output_adapter@_W@__crt_stdio_output@@@2@@__crt_stdio_output@@AEAA_N_W@Z 0000000140049438 f i libucrt:output.obj
 0001:0004852c       ?type_case_d@?$output_processor@DV?$stream_output_adapter@D@__crt_stdio_output@@V?$format_validation_base@DV?$stream_output_adapter@D@__crt_stdio_output@@@2@@__crt_stdio_output@@AEAA_NXZ 000000014004952c f i libucrt:output.obj
 0001:0004853c       ?type_case_d@?$output_processor@DV?$stream_output_adapter@D@__crt_stdio_output@@V?$positional_parameter_base@DV?$stream_output_adapter@D@__crt_stdio_output@@@2@@__crt_stdio_output@@AEAA_NXZ 000000014004953c f i libucrt:output.obj
 0001:0004854c       ?type_case_d@?$output_processor@DV?$stream_output_adapter@D@__crt_stdio_output@@V?$standard_base@DV?$stream_output_adapter@D@__crt_stdio_output@@@2@@__crt_stdio_output@@AEAA_NXZ 000000014004954c f i libucrt:output.obj
 0001:0004855c       ?type_case_d@?$output_processor@DV?$string_output_adapter@D@__crt_stdio_output@@V?$format_validation_base@DV?$string_output_adapter@D@__crt_stdio_output@@@2@@__crt_stdio_output@@AEAA_NXZ 000000014004955c f i libucrt:output.obj
 0001:0004856c       ?type_case_d@?$output_processor@DV?$string_output_adapter@D@__crt_stdio_output@@V?$positional_parameter_base@DV?$string_output_adapter@D@__crt_stdio_output@@@2@@__crt_stdio_output@@AEAA_NXZ 000000014004956c f i libucrt:output.obj
 0001:0004857c       ?type_case_d@?$output_processor@DV?$string_output_adapter@D@__crt_stdio_output@@V?$standard_base@DV?$string_output_adapter@D@__crt_stdio_output@@@2@@__crt_stdio_output@@AEAA_NXZ 000000014004957c f i libucrt:output.obj
 0001:0004858c       ?type_case_d@?$output_processor@_WV?$stream_output_adapter@_W@__crt_stdio_output@@V?$format_validation_base@_WV?$stream_output_adapter@_W@__crt_stdio_output@@@2@@__crt_stdio_output@@AEAA_NXZ 000000014004958c f i libucrt:output.obj
 0001:0004859c       ?type_case_d@?$output_processor@_WV?$stream_output_adapter@_W@__crt_stdio_output@@V?$positional_parameter_base@_WV?$stream_output_adapter@_W@__crt_stdio_output@@@2@@__crt_stdio_output@@AEAA_NXZ 000000014004959c f i libucrt:output.obj
 0001:000485ac       ?type_case_d@?$output_processor@_WV?$stream_output_adapter@_W@__crt_stdio_output@@V?$standard_base@_WV?$stream_output_adapter@_W@__crt_stdio_output@@@2@@__crt_stdio_output@@AEAA_NXZ 00000001400495ac f i libucrt:output.obj
 0001:000485bc       ?type_case_d@?$output_processor@_WV?$string_output_adapter@_W@__crt_stdio_output@@V?$format_validation_base@_WV?$string_output_adapter@_W@__crt_stdio_output@@@2@@__crt_stdio_output@@AEAA_NXZ 00000001400495bc f i libucrt:output.obj
 0001:000485cc       ?type_case_d@?$output_processor@_WV?$string_output_adapter@_W@__crt_stdio_output@@V?$positional_parameter_base@_WV?$string_output_adapter@_W@__crt_stdio_output@@@2@@__crt_stdio_output@@AEAA_NXZ 00000001400495cc f i libucrt:output.obj
 0001:000485dc       ?type_case_d@?$output_processor@_WV?$string_output_adapter@_W@__crt_stdio_output@@V?$standard_base@_WV?$string_output_adapter@_W@__crt_stdio_output@@@2@@__crt_stdio_output@@AEAA_NXZ 00000001400495dc f i libucrt:output.obj
 0001:000485ec       ?type_case_n@?$output_processor@DV?$stream_output_adapter@D@__crt_stdio_output@@V?$format_validation_base@DV?$stream_output_adapter@D@__crt_stdio_output@@@2@@__crt_stdio_output@@AEAA_NXZ 00000001400495ec f i libucrt:output.obj
 0001:000486d0       ?type_case_n@?$output_processor@DV?$stream_output_adapter@D@__crt_stdio_output@@V?$positional_parameter_base@DV?$stream_output_adapter@D@__crt_stdio_output@@@2@@__crt_stdio_output@@AEAA_NXZ 00000001400496d0 f i libucrt:output.obj
 0001:000487ec       ?type_case_n@?$output_processor@DV?$stream_output_adapter@D@__crt_stdio_output@@V?$standard_base@DV?$stream_output_adapter@D@__crt_stdio_output@@@2@@__crt_stdio_output@@AEAA_NXZ 00000001400497ec f i libucrt:output.obj
 0001:000488d0       ?type_case_n@?$output_processor@DV?$string_output_adapter@D@__crt_stdio_output@@V?$format_validation_base@DV?$string_output_adapter@D@__crt_stdio_output@@@2@@__crt_stdio_output@@AEAA_NXZ 00000001400498d0 f i libucrt:output.obj
 0001:000489b4       ?type_case_n@?$output_processor@DV?$string_output_adapter@D@__crt_stdio_output@@V?$positional_parameter_base@DV?$string_output_adapter@D@__crt_stdio_output@@@2@@__crt_stdio_output@@AEAA_NXZ 00000001400499b4 f i libucrt:output.obj
 0001:00048ad0       ?type_case_n@?$output_processor@DV?$string_output_adapter@D@__crt_stdio_output@@V?$standard_base@DV?$string_output_adapter@D@__crt_stdio_output@@@2@@__crt_stdio_output@@AEAA_NXZ 0000000140049ad0 f i libucrt:output.obj
 0001:00048bb4       ?type_case_n@?$output_processor@_WV?$stream_output_adapter@_W@__crt_stdio_output@@V?$format_validation_base@_WV?$stream_output_adapter@_W@__crt_stdio_output@@@2@@__crt_stdio_output@@AEAA_NXZ 0000000140049bb4 f i libucrt:output.obj
 0001:00048c98       ?type_case_n@?$output_processor@_WV?$stream_output_adapter@_W@__crt_stdio_output@@V?$positional_parameter_base@_WV?$stream_output_adapter@_W@__crt_stdio_output@@@2@@__crt_stdio_output@@AEAA_NXZ 0000000140049c98 f i libucrt:output.obj
 0001:00048db4       ?type_case_n@?$output_processor@_WV?$stream_output_adapter@_W@__crt_stdio_output@@V?$standard_base@_WV?$stream_output_adapter@_W@__crt_stdio_output@@@2@@__crt_stdio_output@@AEAA_NXZ 0000000140049db4 f i libucrt:output.obj
 0001:00048e98       ?type_case_n@?$output_processor@_WV?$string_output_adapter@_W@__crt_stdio_output@@V?$format_validation_base@_WV?$string_output_adapter@_W@__crt_stdio_output@@@2@@__crt_stdio_output@@AEAA_NXZ 0000000140049e98 f i libucrt:output.obj
 0001:00048f7c       ?type_case_n@?$output_processor@_WV?$string_output_adapter@_W@__crt_stdio_output@@V?$positional_parameter_base@_WV?$string_output_adapter@_W@__crt_stdio_output@@@2@@__crt_stdio_output@@AEAA_NXZ 0000000140049f7c f i libucrt:output.obj
 0001:00049098       ?type_case_n@?$output_processor@_WV?$string_output_adapter@_W@__crt_stdio_output@@V?$standard_base@_WV?$string_output_adapter@_W@__crt_stdio_output@@@2@@__crt_stdio_output@@AEAA_NXZ 000000014004a098 f i libucrt:output.obj
 0001:0004917c       ?type_case_o@?$output_processor@DV?$stream_output_adapter@D@__crt_stdio_output@@V?$format_validation_base@DV?$stream_output_adapter@D@__crt_stdio_output@@@2@@__crt_stdio_output@@AEAA_NXZ 000000014004a17c f i libucrt:output.obj
 0001:0004919c       ?type_case_o@?$output_processor@DV?$stream_output_adapter@D@__crt_stdio_output@@V?$positional_parameter_base@DV?$stream_output_adapter@D@__crt_stdio_output@@@2@@__crt_stdio_output@@AEAA_NXZ 000000014004a19c f i libucrt:output.obj
 0001:000491bc       ?type_case_o@?$output_processor@DV?$stream_output_adapter@D@__crt_stdio_output@@V?$standard_base@DV?$stream_output_adapter@D@__crt_stdio_output@@@2@@__crt_stdio_output@@AEAA_NXZ 000000014004a1bc f i libucrt:output.obj
 0001:000491dc       ?type_case_o@?$output_processor@DV?$string_output_adapter@D@__crt_stdio_output@@V?$format_validation_base@DV?$string_output_adapter@D@__crt_stdio_output@@@2@@__crt_stdio_output@@AEAA_NXZ 000000014004a1dc f i libucrt:output.obj
 0001:000491fc       ?type_case_o@?$output_processor@DV?$string_output_adapter@D@__crt_stdio_output@@V?$positional_parameter_base@DV?$string_output_adapter@D@__crt_stdio_output@@@2@@__crt_stdio_output@@AEAA_NXZ 000000014004a1fc f i libucrt:output.obj
 0001:0004921c       ?type_case_o@?$output_processor@DV?$string_output_adapter@D@__crt_stdio_output@@V?$standard_base@DV?$string_output_adapter@D@__crt_stdio_output@@@2@@__crt_stdio_output@@AEAA_NXZ 000000014004a21c f i libucrt:output.obj
 0001:0004923c       ?type_case_o@?$output_processor@_WV?$stream_output_adapter@_W@__crt_stdio_output@@V?$format_validation_base@_WV?$stream_output_adapter@_W@__crt_stdio_output@@@2@@__crt_stdio_output@@AEAA_NXZ 000000014004a23c f i libucrt:output.obj
 0001:0004925c       ?type_case_o@?$output_processor@_WV?$stream_output_adapter@_W@__crt_stdio_output@@V?$positional_parameter_base@_WV?$stream_output_adapter@_W@__crt_stdio_output@@@2@@__crt_stdio_output@@AEAA_NXZ 000000014004a25c f i libucrt:output.obj
 0001:0004927c       ?type_case_o@?$output_processor@_WV?$stream_output_adapter@_W@__crt_stdio_output@@V?$standard_base@_WV?$stream_output_adapter@_W@__crt_stdio_output@@@2@@__crt_stdio_output@@AEAA_NXZ 000000014004a27c f i libucrt:output.obj
 0001:0004929c       ?type_case_o@?$output_processor@_WV?$string_output_adapter@_W@__crt_stdio_output@@V?$format_validation_base@_WV?$string_output_adapter@_W@__crt_stdio_output@@@2@@__crt_stdio_output@@AEAA_NXZ 000000014004a29c f i libucrt:output.obj
 0001:000492bc       ?type_case_o@?$output_processor@_WV?$string_output_adapter@_W@__crt_stdio_output@@V?$positional_parameter_base@_WV?$string_output_adapter@_W@__crt_stdio_output@@@2@@__crt_stdio_output@@AEAA_NXZ 000000014004a2bc f i libucrt:output.obj
 0001:000492dc       ?type_case_o@?$output_processor@_WV?$string_output_adapter@_W@__crt_stdio_output@@V?$standard_base@_WV?$string_output_adapter@_W@__crt_stdio_output@@@2@@__crt_stdio_output@@AEAA_NXZ 000000014004a2dc f i libucrt:output.obj
 0001:000492fc       ?type_case_p@?$output_processor@DV?$stream_output_adapter@D@__crt_stdio_output@@V?$format_validation_base@DV?$stream_output_adapter@D@__crt_stdio_output@@@2@@__crt_stdio_output@@AEAA_NXZ 000000014004a2fc f i libucrt:output.obj
 0001:00049318       ?type_case_p@?$output_processor@DV?$stream_output_adapter@D@__crt_stdio_output@@V?$positional_parameter_base@DV?$stream_output_adapter@D@__crt_stdio_output@@@2@@__crt_stdio_output@@AEAA_NXZ 000000014004a318 f i libucrt:output.obj
 0001:00049334       ?type_case_p@?$output_processor@DV?$stream_output_adapter@D@__crt_stdio_output@@V?$standard_base@DV?$stream_output_adapter@D@__crt_stdio_output@@@2@@__crt_stdio_output@@AEAA_NXZ 000000014004a334 f i libucrt:output.obj
 0001:00049350       ?type_case_p@?$output_processor@DV?$string_output_adapter@D@__crt_stdio_output@@V?$format_validation_base@DV?$string_output_adapter@D@__crt_stdio_output@@@2@@__crt_stdio_output@@AEAA_NXZ 000000014004a350 f i libucrt:output.obj
 0001:0004936c       ?type_case_p@?$output_processor@DV?$string_output_adapter@D@__crt_stdio_output@@V?$positional_parameter_base@DV?$string_output_adapter@D@__crt_stdio_output@@@2@@__crt_stdio_output@@AEAA_NXZ 000000014004a36c f i libucrt:output.obj
 0001:00049388       ?type_case_p@?$output_processor@DV?$string_output_adapter@D@__crt_stdio_output@@V?$standard_base@DV?$string_output_adapter@D@__crt_stdio_output@@@2@@__crt_stdio_output@@AEAA_NXZ 000000014004a388 f i libucrt:output.obj
 0001:000493a4       ?type_case_p@?$output_processor@_WV?$stream_output_adapter@_W@__crt_stdio_output@@V?$format_validation_base@_WV?$stream_output_adapter@_W@__crt_stdio_output@@@2@@__crt_stdio_output@@AEAA_NXZ 000000014004a3a4 f i libucrt:output.obj
 0001:000493c0       ?type_case_p@?$output_processor@_WV?$stream_output_adapter@_W@__crt_stdio_output@@V?$positional_parameter_base@_WV?$stream_output_adapter@_W@__crt_stdio_output@@@2@@__crt_stdio_output@@AEAA_NXZ 000000014004a3c0 f i libucrt:output.obj
 0001:000493dc       ?type_case_p@?$output_processor@_WV?$stream_output_adapter@_W@__crt_stdio_output@@V?$standard_base@_WV?$stream_output_adapter@_W@__crt_stdio_output@@@2@@__crt_stdio_output@@AEAA_NXZ 000000014004a3dc f i libucrt:output.obj
 0001:000493f8       ?type_case_p@?$output_processor@_WV?$string_output_adapter@_W@__crt_stdio_output@@V?$format_validation_base@_WV?$string_output_adapter@_W@__crt_stdio_output@@@2@@__crt_stdio_output@@AEAA_NXZ 000000014004a3f8 f i libucrt:output.obj
 0001:00049414       ?type_case_p@?$output_processor@_WV?$string_output_adapter@_W@__crt_stdio_output@@V?$positional_parameter_base@_WV?$string_output_adapter@_W@__crt_stdio_output@@@2@@__crt_stdio_output@@AEAA_NXZ 000000014004a414 f i libucrt:output.obj
 0001:00049430       ?type_case_p@?$output_processor@_WV?$string_output_adapter@_W@__crt_stdio_output@@V?$standard_base@_WV?$string_output_adapter@_W@__crt_stdio_output@@@2@@__crt_stdio_output@@AEAA_NXZ 000000014004a430 f i libucrt:output.obj
 0001:0004944c       ?type_case_s@?$output_processor@DV?$stream_output_adapter@D@__crt_stdio_output@@V?$format_validation_base@DV?$stream_output_adapter@D@__crt_stdio_output@@@2@@__crt_stdio_output@@AEAA_NXZ 000000014004a44c f i libucrt:output.obj
 0001:00049508       ?type_case_s@?$output_processor@DV?$stream_output_adapter@D@__crt_stdio_output@@V?$positional_parameter_base@DV?$stream_output_adapter@D@__crt_stdio_output@@@2@@__crt_stdio_output@@AEAA_NXZ 000000014004a508 f i libucrt:output.obj
 0001:000495ec       ?type_case_s@?$output_processor@DV?$stream_output_adapter@D@__crt_stdio_output@@V?$standard_base@DV?$stream_output_adapter@D@__crt_stdio_output@@@2@@__crt_stdio_output@@AEAA_NXZ 000000014004a5ec f i libucrt:output.obj
 0001:000496a8       ?type_case_s@?$output_processor@DV?$string_output_adapter@D@__crt_stdio_output@@V?$format_validation_base@DV?$string_output_adapter@D@__crt_stdio_output@@@2@@__crt_stdio_output@@AEAA_NXZ 000000014004a6a8 f i libucrt:output.obj
 0001:00049764       ?type_case_s@?$output_processor@DV?$string_output_adapter@D@__crt_stdio_output@@V?$positional_parameter_base@DV?$string_output_adapter@D@__crt_stdio_output@@@2@@__crt_stdio_output@@AEAA_NXZ 000000014004a764 f i libucrt:output.obj
 0001:00049848       ?type_case_s@?$output_processor@DV?$string_output_adapter@D@__crt_stdio_output@@V?$standard_base@DV?$string_output_adapter@D@__crt_stdio_output@@@2@@__crt_stdio_output@@AEAA_NXZ 000000014004a848 f i libucrt:output.obj
 0001:00049904       ?type_case_s@?$output_processor@_WV?$stream_output_adapter@_W@__crt_stdio_output@@V?$format_validation_base@_WV?$stream_output_adapter@_W@__crt_stdio_output@@@2@@__crt_stdio_output@@AEAA_NXZ 000000014004a904 f i libucrt:output.obj
 0001:000499c4       ?type_case_s@?$output_processor@_WV?$stream_output_adapter@_W@__crt_stdio_output@@V?$positional_parameter_base@_WV?$stream_output_adapter@_W@__crt_stdio_output@@@2@@__crt_stdio_output@@AEAA_NXZ 000000014004a9c4 f i libucrt:output.obj
 0001:00049aa8       ?type_case_s@?$output_processor@_WV?$stream_output_adapter@_W@__crt_stdio_output@@V?$standard_base@_WV?$stream_output_adapter@_W@__crt_stdio_output@@@2@@__crt_stdio_output@@AEAA_NXZ 000000014004aaa8 f i libucrt:output.obj
 0001:00049b68       ?type_case_s@?$output_processor@_WV?$string_output_adapter@_W@__crt_stdio_output@@V?$format_validation_base@_WV?$string_output_adapter@_W@__crt_stdio_output@@@2@@__crt_stdio_output@@AEAA_NXZ 000000014004ab68 f i libucrt:output.obj
 0001:00049c28       ?type_case_s@?$output_processor@_WV?$string_output_adapter@_W@__crt_stdio_output@@V?$positional_parameter_base@_WV?$string_output_adapter@_W@__crt_stdio_output@@@2@@__crt_stdio_output@@AEAA_NXZ 000000014004ac28 f i libucrt:output.obj
 0001:00049d0c       ?type_case_s@?$output_processor@_WV?$string_output_adapter@_W@__crt_stdio_output@@V?$standard_base@_WV?$string_output_adapter@_W@__crt_stdio_output@@@2@@__crt_stdio_output@@AEAA_NXZ 000000014004ad0c f i libucrt:output.obj
 0001:00049dcc       ?type_case_s_compute_narrow_string_length@?$output_processor@DV?$stream_output_adapter@D@__crt_stdio_output@@V?$format_validation_base@DV?$stream_output_adapter@D@__crt_stdio_output@@@2@@__crt_stdio_output@@AEAAHHD@Z 000000014004adcc f i libucrt:output.obj
 0001:00049ddc       ?type_case_s_compute_narrow_string_length@?$output_processor@DV?$stream_output_adapter@D@__crt_stdio_output@@V?$positional_parameter_base@DV?$stream_output_adapter@D@__crt_stdio_output@@@2@@__crt_stdio_output@@AEAAHHD@Z 000000014004addc f i libucrt:output.obj
 0001:00049dec       ?type_case_s_compute_narrow_string_length@?$output_processor@DV?$stream_output_adapter@D@__crt_stdio_output@@V?$standard_base@DV?$stream_output_adapter@D@__crt_stdio_output@@@2@@__crt_stdio_output@@AEAAHHD@Z 000000014004adec f i libucrt:output.obj
 0001:00049dfc       ?type_case_s_compute_narrow_string_length@?$output_processor@DV?$string_output_adapter@D@__crt_stdio_output@@V?$format_validation_base@DV?$string_output_adapter@D@__crt_stdio_output@@@2@@__crt_stdio_output@@AEAAHHD@Z 000000014004adfc f i libucrt:output.obj
 0001:00049e0c       ?type_case_s_compute_narrow_string_length@?$output_processor@DV?$string_output_adapter@D@__crt_stdio_output@@V?$positional_parameter_base@DV?$string_output_adapter@D@__crt_stdio_output@@@2@@__crt_stdio_output@@AEAAHHD@Z 000000014004ae0c f i libucrt:output.obj
 0001:00049e1c       ?type_case_s_compute_narrow_string_length@?$output_processor@DV?$string_output_adapter@D@__crt_stdio_output@@V?$standard_base@DV?$string_output_adapter@D@__crt_stdio_output@@@2@@__crt_stdio_output@@AEAAHHD@Z 000000014004ae1c f i libucrt:output.obj
 0001:00049e2c       ?type_case_s_compute_narrow_string_length@?$output_processor@_WV?$stream_output_adapter@_W@__crt_stdio_output@@V?$format_validation_base@_WV?$stream_output_adapter@_W@__crt_stdio_output@@@2@@__crt_stdio_output@@AEAAHH_W@Z 000000014004ae2c f i libucrt:output.obj
 0001:00049ec0       ?type_case_s_compute_narrow_string_length@?$output_processor@_WV?$stream_output_adapter@_W@__crt_stdio_output@@V?$positional_parameter_base@_WV?$stream_output_adapter@_W@__crt_stdio_output@@@2@@__crt_stdio_output@@AEAAHH_W@Z 000000014004aec0 f i libucrt:output.obj
 0001:00049f54       ?type_case_s_compute_narrow_string_length@?$output_processor@_WV?$stream_output_adapter@_W@__crt_stdio_output@@V?$standard_base@_WV?$stream_output_adapter@_W@__crt_stdio_output@@@2@@__crt_stdio_output@@AEAAHH_W@Z 000000014004af54 f i libucrt:output.obj
 0001:00049fe8       ?type_case_s_compute_narrow_string_length@?$output_processor@_WV?$string_output_adapter@_W@__crt_stdio_output@@V?$format_validation_base@_WV?$string_output_adapter@_W@__crt_stdio_output@@@2@@__crt_stdio_output@@AEAAHH_W@Z 000000014004afe8 f i libucrt:output.obj
 0001:0004a07c       ?type_case_s_compute_narrow_string_length@?$output_processor@_WV?$string_output_adapter@_W@__crt_stdio_output@@V?$positional_parameter_base@_WV?$string_output_adapter@_W@__crt_stdio_output@@@2@@__crt_stdio_output@@AEAAHH_W@Z 000000014004b07c f i libucrt:output.obj
 0001:0004a110       ?type_case_s_compute_narrow_string_length@?$output_processor@_WV?$string_output_adapter@_W@__crt_stdio_output@@V?$standard_base@_WV?$string_output_adapter@_W@__crt_stdio_output@@@2@@__crt_stdio_output@@AEAAHH_W@Z 000000014004b110 f i libucrt:output.obj
 0001:0004a1a4       ?type_case_u@?$output_processor@DV?$stream_output_adapter@D@__crt_stdio_output@@V?$format_validation_base@DV?$stream_output_adapter@D@__crt_stdio_output@@@2@@__crt_stdio_output@@AEAA_NXZ 000000014004b1a4 f i libucrt:output.obj
 0001:0004a1ac       ?type_case_u@?$output_processor@DV?$stream_output_adapter@D@__crt_stdio_output@@V?$positional_parameter_base@DV?$stream_output_adapter@D@__crt_stdio_output@@@2@@__crt_stdio_output@@AEAA_NXZ 000000014004b1ac f i libucrt:output.obj
 0001:0004a1b4       ?type_case_u@?$output_processor@DV?$stream_output_adapter@D@__crt_stdio_output@@V?$standard_base@DV?$stream_output_adapter@D@__crt_stdio_output@@@2@@__crt_stdio_output@@AEAA_NXZ 000000014004b1b4 f i libucrt:output.obj
 0001:0004a1bc       ?type_case_u@?$output_processor@DV?$string_output_adapter@D@__crt_stdio_output@@V?$format_validation_base@DV?$string_output_adapter@D@__crt_stdio_output@@@2@@__crt_stdio_output@@AEAA_NXZ 000000014004b1bc f i libucrt:output.obj
 0001:0004a1c4       ?type_case_u@?$output_processor@DV?$string_output_adapter@D@__crt_stdio_output@@V?$positional_parameter_base@DV?$string_output_adapter@D@__crt_stdio_output@@@2@@__crt_stdio_output@@AEAA_NXZ 000000014004b1c4 f i libucrt:output.obj
 0001:0004a1cc       ?type_case_u@?$output_processor@DV?$string_output_adapter@D@__crt_stdio_output@@V?$standard_base@DV?$string_output_adapter@D@__crt_stdio_output@@@2@@__crt_stdio_output@@AEAA_NXZ 000000014004b1cc f i libucrt:output.obj
 0001:0004a1d4       ?type_case_u@?$output_processor@_WV?$stream_output_adapter@_W@__crt_stdio_output@@V?$format_validation_base@_WV?$stream_output_adapter@_W@__crt_stdio_output@@@2@@__crt_stdio_output@@AEAA_NXZ 000000014004b1d4 f i libucrt:output.obj
 0001:0004a1dc       ?type_case_u@?$output_processor@_WV?$stream_output_adapter@_W@__crt_stdio_output@@V?$positional_parameter_base@_WV?$stream_output_adapter@_W@__crt_stdio_output@@@2@@__crt_stdio_output@@AEAA_NXZ 000000014004b1dc f i libucrt:output.obj
 0001:0004a1e4       ?type_case_u@?$output_processor@_WV?$stream_output_adapter@_W@__crt_stdio_output@@V?$standard_base@_WV?$stream_output_adapter@_W@__crt_stdio_output@@@2@@__crt_stdio_output@@AEAA_NXZ 000000014004b1e4 f i libucrt:output.obj
 0001:0004a1ec       ?type_case_u@?$output_processor@_WV?$string_output_adapter@_W@__crt_stdio_output@@V?$format_validation_base@_WV?$string_output_adapter@_W@__crt_stdio_output@@@2@@__crt_stdio_output@@AEAA_NXZ 000000014004b1ec f i libucrt:output.obj
 0001:0004a1f4       ?type_case_u@?$output_processor@_WV?$string_output_adapter@_W@__crt_stdio_output@@V?$positional_parameter_base@_WV?$string_output_adapter@_W@__crt_stdio_output@@@2@@__crt_stdio_output@@AEAA_NXZ 000000014004b1f4 f i libucrt:output.obj
 0001:0004a1fc       ?type_case_u@?$output_processor@_WV?$string_output_adapter@_W@__crt_stdio_output@@V?$standard_base@_WV?$string_output_adapter@_W@__crt_stdio_output@@@2@@__crt_stdio_output@@AEAA_NXZ 000000014004b1fc f i libucrt:output.obj
 0001:0004a204       ?type_case_x@?$output_processor@DV?$stream_output_adapter@D@__crt_stdio_output@@V?$format_validation_base@DV?$stream_output_adapter@D@__crt_stdio_output@@@2@@__crt_stdio_output@@AEAA_NXZ 000000014004b204 f i libucrt:output.obj
 0001:0004a20c       ?type_case_x@?$output_processor@DV?$stream_output_adapter@D@__crt_stdio_output@@V?$positional_parameter_base@DV?$stream_output_adapter@D@__crt_stdio_output@@@2@@__crt_stdio_output@@AEAA_NXZ 000000014004b20c f i libucrt:output.obj
 0001:0004a214       ?type_case_x@?$output_processor@DV?$stream_output_adapter@D@__crt_stdio_output@@V?$standard_base@DV?$stream_output_adapter@D@__crt_stdio_output@@@2@@__crt_stdio_output@@AEAA_NXZ 000000014004b214 f i libucrt:output.obj
 0001:0004a21c       ?type_case_x@?$output_processor@DV?$string_output_adapter@D@__crt_stdio_output@@V?$format_validation_base@DV?$string_output_adapter@D@__crt_stdio_output@@@2@@__crt_stdio_output@@AEAA_NXZ 000000014004b21c f i libucrt:output.obj
 0001:0004a224       ?type_case_x@?$output_processor@DV?$string_output_adapter@D@__crt_stdio_output@@V?$positional_parameter_base@DV?$string_output_adapter@D@__crt_stdio_output@@@2@@__crt_stdio_output@@AEAA_NXZ 000000014004b224 f i libucrt:output.obj
 0001:0004a22c       ?type_case_x@?$output_processor@DV?$string_output_adapter@D@__crt_stdio_output@@V?$standard_base@DV?$string_output_adapter@D@__crt_stdio_output@@@2@@__crt_stdio_output@@AEAA_NXZ 000000014004b22c f i libucrt:output.obj
 0001:0004a234       ?type_case_x@?$output_processor@_WV?$stream_output_adapter@_W@__crt_stdio_output@@V?$format_validation_base@_WV?$stream_output_adapter@_W@__crt_stdio_output@@@2@@__crt_stdio_output@@AEAA_NXZ 000000014004b234 f i libucrt:output.obj
 0001:0004a23c       ?type_case_x@?$output_processor@_WV?$stream_output_adapter@_W@__crt_stdio_output@@V?$positional_parameter_base@_WV?$stream_output_adapter@_W@__crt_stdio_output@@@2@@__crt_stdio_output@@AEAA_NXZ 000000014004b23c f i libucrt:output.obj
 0001:0004a244       ?type_case_x@?$output_processor@_WV?$stream_output_adapter@_W@__crt_stdio_output@@V?$standard_base@_WV?$stream_output_adapter@_W@__crt_stdio_output@@@2@@__crt_stdio_output@@AEAA_NXZ 000000014004b244 f i libucrt:output.obj
 0001:0004a24c       ?type_case_x@?$output_processor@_WV?$string_output_adapter@_W@__crt_stdio_output@@V?$format_validation_base@_WV?$string_output_adapter@_W@__crt_stdio_output@@@2@@__crt_stdio_output@@AEAA_NXZ 000000014004b24c f i libucrt:output.obj
 0001:0004a254       ?type_case_x@?$output_processor@_WV?$string_output_adapter@_W@__crt_stdio_output@@V?$positional_parameter_base@_WV?$string_output_adapter@_W@__crt_stdio_output@@@2@@__crt_stdio_output@@AEAA_NXZ 000000014004b254 f i libucrt:output.obj
 0001:0004a25c       ?type_case_x@?$output_processor@_WV?$string_output_adapter@_W@__crt_stdio_output@@V?$standard_base@_WV?$string_output_adapter@_W@__crt_stdio_output@@@2@@__crt_stdio_output@@AEAA_NXZ 000000014004b25c f i libucrt:output.obj
 0001:0004a264       ?unset_flag@?$output_processor@DV?$stream_output_adapter@D@__crt_stdio_output@@V?$format_validation_base@DV?$stream_output_adapter@D@__crt_stdio_output@@@2@@__crt_stdio_output@@AEAAXI@Z 000000014004b264 f i libucrt:output.obj
 0001:0004a26c       ?unset_flag@?$output_processor@DV?$stream_output_adapter@D@__crt_stdio_output@@V?$positional_parameter_base@DV?$stream_output_adapter@D@__crt_stdio_output@@@2@@__crt_stdio_output@@AEAAXI@Z 000000014004b26c f i libucrt:output.obj
 0001:0004a274       ?unset_flag@?$output_processor@DV?$stream_output_adapter@D@__crt_stdio_output@@V?$standard_base@DV?$stream_output_adapter@D@__crt_stdio_output@@@2@@__crt_stdio_output@@AEAAXI@Z 000000014004b274 f i libucrt:output.obj
 0001:0004a27c       ?unset_flag@?$output_processor@DV?$string_output_adapter@D@__crt_stdio_output@@V?$format_validation_base@DV?$string_output_adapter@D@__crt_stdio_output@@@2@@__crt_stdio_output@@AEAAXI@Z 000000014004b27c f i libucrt:output.obj
 0001:0004a284       ?unset_flag@?$output_processor@DV?$string_output_adapter@D@__crt_stdio_output@@V?$positional_parameter_base@DV?$string_output_adapter@D@__crt_stdio_output@@@2@@__crt_stdio_output@@AEAAXI@Z 000000014004b284 f i libucrt:output.obj
 0001:0004a28c       ?unset_flag@?$output_processor@DV?$string_output_adapter@D@__crt_stdio_output@@V?$standard_base@DV?$string_output_adapter@D@__crt_stdio_output@@@2@@__crt_stdio_output@@AEAAXI@Z 000000014004b28c f i libucrt:output.obj
 0001:0004a294       ?unset_flag@?$output_processor@_WV?$stream_output_adapter@_W@__crt_stdio_output@@V?$format_validation_base@_WV?$stream_output_adapter@_W@__crt_stdio_output@@@2@@__crt_stdio_output@@AEAAXI@Z 000000014004b294 f i libucrt:output.obj
 0001:0004a29c       ?unset_flag@?$output_processor@_WV?$stream_output_adapter@_W@__crt_stdio_output@@V?$positional_parameter_base@_WV?$stream_output_adapter@_W@__crt_stdio_output@@@2@@__crt_stdio_output@@AEAAXI@Z 000000014004b29c f i libucrt:output.obj
 0001:0004a2a4       ?unset_flag@?$output_processor@_WV?$stream_output_adapter@_W@__crt_stdio_output@@V?$standard_base@_WV?$stream_output_adapter@_W@__crt_stdio_output@@@2@@__crt_stdio_output@@AEAAXI@Z 000000014004b2a4 f i libucrt:output.obj
 0001:0004a2ac       ?unset_flag@?$output_processor@_WV?$string_output_adapter@_W@__crt_stdio_output@@V?$format_validation_base@_WV?$string_output_adapter@_W@__crt_stdio_output@@@2@@__crt_stdio_output@@AEAAXI@Z 000000014004b2ac f i libucrt:output.obj
 0001:0004a2b4       ?unset_flag@?$output_processor@_WV?$string_output_adapter@_W@__crt_stdio_output@@V?$positional_parameter_base@_WV?$string_output_adapter@_W@__crt_stdio_output@@@2@@__crt_stdio_output@@AEAAXI@Z 000000014004b2b4 f i libucrt:output.obj
 0001:0004a2bc       ?unset_flag@?$output_processor@_WV?$string_output_adapter@_W@__crt_stdio_output@@V?$standard_base@_WV?$string_output_adapter@_W@__crt_stdio_output@@@2@@__crt_stdio_output@@AEAAXI@Z 000000014004b2bc f i libucrt:output.obj
 0001:0004a2c4       ?update_field_width@?$positional_parameter_base@DV?$stream_output_adapter@D@__crt_stdio_output@@@__crt_stdio_output@@IEAA_NXZ 000000014004b2c4 f i libucrt:output.obj
 0001:0004a490       ?update_field_width@?$positional_parameter_base@DV?$string_output_adapter@D@__crt_stdio_output@@@__crt_stdio_output@@IEAA_NXZ 000000014004b490 f i libucrt:output.obj
 0001:0004a65c       ?update_field_width@?$positional_parameter_base@_WV?$stream_output_adapter@_W@__crt_stdio_output@@@__crt_stdio_output@@IEAA_NXZ 000000014004b65c f i libucrt:output.obj
 0001:0004a82c       ?update_field_width@?$positional_parameter_base@_WV?$string_output_adapter@_W@__crt_stdio_output@@@__crt_stdio_output@@IEAA_NXZ 000000014004b82c f i libucrt:output.obj
 0001:0004a9fc       ?update_field_width@?$standard_base@DV?$stream_output_adapter@D@__crt_stdio_output@@@__crt_stdio_output@@IEAA_NXZ 000000014004b9fc f i libucrt:output.obj
 0001:0004aa14       ?update_field_width@?$standard_base@DV?$string_output_adapter@D@__crt_stdio_output@@@__crt_stdio_output@@IEAA_NXZ 000000014004ba14 f i libucrt:output.obj
 0001:0004aa2c       ?update_field_width@?$standard_base@_WV?$stream_output_adapter@_W@__crt_stdio_output@@@__crt_stdio_output@@IEAA_NXZ 000000014004ba2c f i libucrt:output.obj
 0001:0004aa44       ?update_field_width@?$standard_base@_WV?$string_output_adapter@_W@__crt_stdio_output@@@__crt_stdio_output@@IEAA_NXZ 000000014004ba44 f i libucrt:output.obj
 0001:0004aa5c       ?update_precision@?$positional_parameter_base@DV?$stream_output_adapter@D@__crt_stdio_output@@@__crt_stdio_output@@IEAA_NXZ 000000014004ba5c f i libucrt:output.obj
 0001:0004ac28       ?update_precision@?$positional_parameter_base@DV?$string_output_adapter@D@__crt_stdio_output@@@__crt_stdio_output@@IEAA_NXZ 000000014004bc28 f i libucrt:output.obj
 0001:0004adf4       ?update_precision@?$positional_parameter_base@_WV?$stream_output_adapter@_W@__crt_stdio_output@@@__crt_stdio_output@@IEAA_NXZ 000000014004bdf4 f i libucrt:output.obj
 0001:0004afc4       ?update_precision@?$positional_parameter_base@_WV?$string_output_adapter@_W@__crt_stdio_output@@@__crt_stdio_output@@IEAA_NXZ 000000014004bfc4 f i libucrt:output.obj
 0001:0004b194       ?update_precision@?$standard_base@DV?$stream_output_adapter@D@__crt_stdio_output@@@__crt_stdio_output@@IEAA_NXZ 000000014004c194 f i libucrt:output.obj
 0001:0004b1ac       ?update_precision@?$standard_base@DV?$string_output_adapter@D@__crt_stdio_output@@@__crt_stdio_output@@IEAA_NXZ 000000014004c1ac f i libucrt:output.obj
 0001:0004b1c4       ?update_precision@?$standard_base@_WV?$stream_output_adapter@_W@__crt_stdio_output@@@__crt_stdio_output@@IEAA_NXZ 000000014004c1c4 f i libucrt:output.obj
 0001:0004b1dc       ?update_precision@?$standard_base@_WV?$string_output_adapter@_W@__crt_stdio_output@@@__crt_stdio_output@@IEAA_NXZ 000000014004c1dc f i libucrt:output.obj
 0001:0004b1f4       ?valid@__crt_stdio_stream@@QEBA_NXZ 000000014004c1f4 f i libucrt:output.obj
 0001:0004b200       ?validate@?$stream_output_adapter@D@__crt_stdio_output@@QEBA_NAEAV__crt_cached_ptd_host@@@Z 000000014004c200 f i libucrt:output.obj
 0001:0004b250       ?validate@?$stream_output_adapter@_W@__crt_stdio_output@@QEBA_NAEAV__crt_cached_ptd_host@@@Z 000000014004c250 f i libucrt:output.obj
 0001:0004b298       ?validate@?$string_output_adapter@D@__crt_stdio_output@@QEBA_NAEAV__crt_cached_ptd_host@@@Z 000000014004c298 f i libucrt:output.obj
 0001:0004b2e0       ?validate@?$string_output_adapter@_W@__crt_stdio_output@@QEBA_NAEAV__crt_cached_ptd_host@@@Z 000000014004c2e0 f i libucrt:output.obj
 0001:0004b328       ?validate_and_store_parameter_data@?$positional_parameter_base@DV?$stream_output_adapter@D@__crt_stdio_output@@@__crt_stdio_output@@AEAA_NAEAUparameter_data@12@W4parameter_type@12@DW4length_modifier@2@@Z 000000014004c328 f i libucrt:output.obj
 0001:0004b3a4       ?validate_and_store_parameter_data@?$positional_parameter_base@DV?$string_output_adapter@D@__crt_stdio_output@@@__crt_stdio_output@@AEAA_NAEAUparameter_data@12@W4parameter_type@12@DW4length_modifier@2@@Z 000000014004c3a4 f i libucrt:output.obj
 0001:0004b420       ?validate_and_store_parameter_data@?$positional_parameter_base@_WV?$stream_output_adapter@_W@__crt_stdio_output@@@__crt_stdio_output@@AEAA_NAEAUparameter_data@12@W4parameter_type@12@_WW4length_modifier@2@@Z 000000014004c420 f i libucrt:output.obj
 0001:0004b49c       ?validate_and_store_parameter_data@?$positional_parameter_base@_WV?$string_output_adapter@_W@__crt_stdio_output@@@__crt_stdio_output@@AEAA_NAEAUparameter_data@12@W4parameter_type@12@_WW4length_modifier@2@@Z 000000014004c49c f i libucrt:output.obj
 0001:0004b518       ?validate_and_update_state_at_beginning_of_format_character@?$positional_parameter_base@DV?$stream_output_adapter@D@__crt_stdio_output@@@__crt_stdio_output@@IEAA_NXZ 000000014004c518 f i libucrt:output.obj
 0001:0004b6b0       ?validate_and_update_state_at_beginning_of_format_character@?$positional_parameter_base@DV?$string_output_adapter@D@__crt_stdio_output@@@__crt_stdio_output@@IEAA_NXZ 000000014004c6b0 f i libucrt:output.obj
 0001:0004b848       ?validate_and_update_state_at_beginning_of_format_character@?$positional_parameter_base@_WV?$stream_output_adapter@_W@__crt_stdio_output@@@__crt_stdio_output@@IEAA_NXZ 000000014004c848 f i libucrt:output.obj
 0001:0004b9f8       ?validate_and_update_state_at_beginning_of_format_character@?$positional_parameter_base@_WV?$string_output_adapter@_W@__crt_stdio_output@@@__crt_stdio_output@@IEAA_NXZ 000000014004c9f8 f i libucrt:output.obj
 0001:0004bba8       ?validate_and_update_state_at_beginning_of_format_character@?$standard_base@DV?$stream_output_adapter@D@__crt_stdio_output@@@__crt_stdio_output@@IEAA_NXZ 000000014004cba8 f i libucrt:output.obj
 0001:0004bbac       ?validate_and_update_state_at_beginning_of_format_character@?$standard_base@DV?$string_output_adapter@D@__crt_stdio_output@@@__crt_stdio_output@@IEAA_NXZ 000000014004cbac f i libucrt:output.obj
 0001:0004bbb0       ?validate_and_update_state_at_beginning_of_format_character@?$standard_base@_WV?$stream_output_adapter@_W@__crt_stdio_output@@@__crt_stdio_output@@IEAA_NXZ 000000014004cbb0 f i libucrt:output.obj
 0001:0004bbb4       ?validate_and_update_state_at_beginning_of_format_character@?$standard_base@_WV?$string_output_adapter@_W@__crt_stdio_output@@@__crt_stdio_output@@IEAA_NXZ 000000014004cbb4 f i libucrt:output.obj
 0001:0004bbb8       ?validate_and_update_state_at_end_of_format_string@?$format_validation_base@DV?$stream_output_adapter@D@__crt_stdio_output@@@__crt_stdio_output@@IEAA_NXZ 000000014004cbb8 f i libucrt:output.obj
 0001:0004bc10       ?validate_and_update_state_at_end_of_format_string@?$format_validation_base@DV?$string_output_adapter@D@__crt_stdio_output@@@__crt_stdio_output@@IEAA_NXZ 000000014004cc10 f i libucrt:output.obj
 0001:0004bc68       ?validate_and_update_state_at_end_of_format_string@?$format_validation_base@_WV?$stream_output_adapter@_W@__crt_stdio_output@@@__crt_stdio_output@@IEAA_NXZ 000000014004cc68 f i libucrt:output.obj
 0001:0004bcc0       ?validate_and_update_state_at_end_of_format_string@?$format_validation_base@_WV?$string_output_adapter@_W@__crt_stdio_output@@@__crt_stdio_output@@IEAA_NXZ 000000014004ccc0 f i libucrt:output.obj
 0001:0004bd18       ?validate_and_update_state_at_end_of_format_string@?$positional_parameter_base@DV?$stream_output_adapter@D@__crt_stdio_output@@@__crt_stdio_output@@IEAA_NXZ 000000014004cd18 f i libucrt:output.obj
 0001:0004be04       ?validate_and_update_state_at_end_of_format_string@?$positional_parameter_base@DV?$string_output_adapter@D@__crt_stdio_output@@@__crt_stdio_output@@IEAA_NXZ 000000014004ce04 f i libucrt:output.obj
 0001:0004bef0       ?validate_and_update_state_at_end_of_format_string@?$positional_parameter_base@_WV?$stream_output_adapter@_W@__crt_stdio_output@@@__crt_stdio_output@@IEAA_NXZ 000000014004cef0 f i libucrt:output.obj
 0001:0004bfdc       ?validate_and_update_state_at_end_of_format_string@?$positional_parameter_base@_WV?$string_output_adapter@_W@__crt_stdio_output@@@__crt_stdio_output@@IEAA_NXZ 000000014004cfdc f i libucrt:output.obj
 0001:0004c0c8       ?validate_and_update_state_at_end_of_format_string@?$standard_base@DV?$stream_output_adapter@D@__crt_stdio_output@@@__crt_stdio_output@@IEBA_NXZ 000000014004d0c8 f i libucrt:output.obj
 0001:0004c0cc       ?validate_and_update_state_at_end_of_format_string@?$standard_base@DV?$string_output_adapter@D@__crt_stdio_output@@@__crt_stdio_output@@IEBA_NXZ 000000014004d0cc f i libucrt:output.obj
 0001:0004c0d0       ?validate_and_update_state_at_end_of_format_string@?$standard_base@_WV?$stream_output_adapter@_W@__crt_stdio_output@@@__crt_stdio_output@@IEBA_NXZ 000000014004d0d0 f i libucrt:output.obj
 0001:0004c0d4       ?validate_and_update_state_at_end_of_format_string@?$standard_base@_WV?$string_output_adapter@_W@__crt_stdio_output@@@__crt_stdio_output@@IEBA_NXZ 000000014004d0d4 f i libucrt:output.obj
 0001:0004c0d8       ?validate_state_for_type_case_a@?$positional_parameter_base@DV?$stream_output_adapter@D@__crt_stdio_output@@@__crt_stdio_output@@IEAA_NXZ 000000014004d0d8 f i libucrt:output.obj
 0001:0004c1f4       ?validate_state_for_type_case_a@?$positional_parameter_base@DV?$string_output_adapter@D@__crt_stdio_output@@@__crt_stdio_output@@IEAA_NXZ 000000014004d1f4 f i libucrt:output.obj
 0001:0004c310       ?validate_state_for_type_case_a@?$positional_parameter_base@_WV?$stream_output_adapter@_W@__crt_stdio_output@@@__crt_stdio_output@@IEAA_NXZ 000000014004d310 f i libucrt:output.obj
 0001:0004c430       ?validate_state_for_type_case_a@?$positional_parameter_base@_WV?$string_output_adapter@_W@__crt_stdio_output@@@__crt_stdio_output@@IEAA_NXZ 000000014004d430 f i libucrt:output.obj
 0001:0004c550       ?validate_state_for_type_case_a@?$standard_base@DV?$stream_output_adapter@D@__crt_stdio_output@@@__crt_stdio_output@@IEBA_NXZ 000000014004d550 f i libucrt:output.obj
 0001:0004c554       ?validate_state_for_type_case_a@?$standard_base@DV?$string_output_adapter@D@__crt_stdio_output@@@__crt_stdio_output@@IEBA_NXZ 000000014004d554 f i libucrt:output.obj
 0001:0004c558       ?validate_state_for_type_case_a@?$standard_base@_WV?$stream_output_adapter@_W@__crt_stdio_output@@@__crt_stdio_output@@IEBA_NXZ 000000014004d558 f i libucrt:output.obj
 0001:0004c55c       ?validate_state_for_type_case_a@?$standard_base@_WV?$string_output_adapter@_W@__crt_stdio_output@@@__crt_stdio_output@@IEBA_NXZ 000000014004d55c f i libucrt:output.obj
 0001:0004c560       ?validate_stream_is_ansi_if_required@?$__acrt_stdio_char_traits@D@@SA_NQEAU_iobuf@@@Z 000000014004d560 f i libucrt:output.obj
 0001:0004c620       ?validate_stream_is_ansi_if_required@?$__acrt_stdio_char_traits@_W@@SA_NQEAU_iobuf@@@Z 000000014004d620 f i libucrt:output.obj
 0001:0004c624       ?wide_null_string@?$output_processor@DV?$stream_output_adapter@D@__crt_stdio_output@@V?$format_validation_base@DV?$stream_output_adapter@D@__crt_stdio_output@@@2@@__crt_stdio_output@@CAPEA_WXZ 000000014004d624 f i libucrt:output.obj
 0001:0004c630       ?wide_null_string@?$output_processor@DV?$stream_output_adapter@D@__crt_stdio_output@@V?$positional_parameter_base@DV?$stream_output_adapter@D@__crt_stdio_output@@@2@@__crt_stdio_output@@CAPEA_WXZ 000000014004d630 f i libucrt:output.obj
 0001:0004c63c       ?wide_null_string@?$output_processor@DV?$stream_output_adapter@D@__crt_stdio_output@@V?$standard_base@DV?$stream_output_adapter@D@__crt_stdio_output@@@2@@__crt_stdio_output@@CAPEA_WXZ 000000014004d63c f i libucrt:output.obj
 0001:0004c648       ?wide_null_string@?$output_processor@DV?$string_output_adapter@D@__crt_stdio_output@@V?$format_validation_base@DV?$string_output_adapter@D@__crt_stdio_output@@@2@@__crt_stdio_output@@CAPEA_WXZ 000000014004d648 f i libucrt:output.obj
 0001:0004c654       ?wide_null_string@?$output_processor@DV?$string_output_adapter@D@__crt_stdio_output@@V?$positional_parameter_base@DV?$string_output_adapter@D@__crt_stdio_output@@@2@@__crt_stdio_output@@CAPEA_WXZ 000000014004d654 f i libucrt:output.obj
 0001:0004c660       ?wide_null_string@?$output_processor@DV?$string_output_adapter@D@__crt_stdio_output@@V?$standard_base@DV?$string_output_adapter@D@__crt_stdio_output@@@2@@__crt_stdio_output@@CAPEA_WXZ 000000014004d660 f i libucrt:output.obj
 0001:0004c66c       ?wide_null_string@?$output_processor@_WV?$stream_output_adapter@_W@__crt_stdio_output@@V?$format_validation_base@_WV?$stream_output_adapter@_W@__crt_stdio_output@@@2@@__crt_stdio_output@@CAPEA_WXZ 000000014004d66c f i libucrt:output.obj
 0001:0004c678       ?wide_null_string@?$output_processor@_WV?$stream_output_adapter@_W@__crt_stdio_output@@V?$positional_parameter_base@_WV?$stream_output_adapter@_W@__crt_stdio_output@@@2@@__crt_stdio_output@@CAPEA_WXZ 000000014004d678 f i libucrt:output.obj
 0001:0004c684       ?wide_null_string@?$output_processor@_WV?$stream_output_adapter@_W@__crt_stdio_output@@V?$standard_base@_WV?$stream_output_adapter@_W@__crt_stdio_output@@@2@@__crt_stdio_output@@CAPEA_WXZ 000000014004d684 f i libucrt:output.obj
 0001:0004c690       ?wide_null_string@?$output_processor@_WV?$string_output_adapter@_W@__crt_stdio_output@@V?$format_validation_base@_WV?$string_output_adapter@_W@__crt_stdio_output@@@2@@__crt_stdio_output@@CAPEA_WXZ 000000014004d690 f i libucrt:output.obj
 0001:0004c69c       ?wide_null_string@?$output_processor@_WV?$string_output_adapter@_W@__crt_stdio_output@@V?$positional_parameter_base@_WV?$string_output_adapter@_W@__crt_stdio_output@@@2@@__crt_stdio_output@@CAPEA_WXZ 000000014004d69c f i libucrt:output.obj
 0001:0004c6a8       ?wide_null_string@?$output_processor@_WV?$string_output_adapter@_W@__crt_stdio_output@@V?$standard_base@_WV?$string_output_adapter@_W@__crt_stdio_output@@@2@@__crt_stdio_output@@CAPEA_WXZ 000000014004d6a8 f i libucrt:output.obj
 0001:0004c6b4       ?write_character@?$output_adapter_common@DV?$stream_output_adapter@D@__crt_stdio_output@@@__crt_stdio_output@@QEBAXDQEAHAEAV__crt_cached_ptd_host@@@Z 000000014004d6b4 f i libucrt:output.obj
 0001:0004c714       ?write_character@?$output_adapter_common@_WV?$stream_output_adapter@_W@__crt_stdio_output@@@__crt_stdio_output@@QEBAX_WQEAHAEAV__crt_cached_ptd_host@@@Z 000000014004d714 f i libucrt:output.obj
 0001:0004c778       ?write_character@?$string_output_adapter@D@__crt_stdio_output@@QEBA_NDQEAHAEAV__crt_cached_ptd_host@@@Z 000000014004d778 f i libucrt:output.obj
 0001:0004c7d0       ?write_character@?$string_output_adapter@_W@__crt_stdio_output@@QEBA_N_WQEAHAEAV__crt_cached_ptd_host@@@Z 000000014004d7d0 f i libucrt:output.obj
 0001:0004c82c       ?write_character_without_count_update@?$stream_output_adapter@D@__crt_stdio_output@@QEBA_NDAEAV__crt_cached_ptd_host@@@Z 000000014004d82c f i libucrt:output.obj
 0001:0004c878       ?write_character_without_count_update@?$stream_output_adapter@_W@__crt_stdio_output@@QEBA_N_WAEAV__crt_cached_ptd_host@@@Z 000000014004d878 f i libucrt:output.obj
 0001:0004c8c8       ?write_stored_string_tchar@?$output_processor@DV?$stream_output_adapter@D@__crt_stdio_output@@V?$format_validation_base@DV?$stream_output_adapter@D@__crt_stdio_output@@@2@@__crt_stdio_output@@AEAA_ND@Z 000000014004d8c8 f i libucrt:output.obj
 0001:0004ca38       ?write_stored_string_tchar@?$output_processor@DV?$stream_output_adapter@D@__crt_stdio_output@@V?$positional_parameter_base@DV?$stream_output_adapter@D@__crt_stdio_output@@@2@@__crt_stdio_output@@AEAA_ND@Z 000000014004da38 f i libucrt:output.obj
 0001:0004cba8       ?write_stored_string_tchar@?$output_processor@DV?$stream_output_adapter@D@__crt_stdio_output@@V?$standard_base@DV?$stream_output_adapter@D@__crt_stdio_output@@@2@@__crt_stdio_output@@AEAA_ND@Z 000000014004dba8 f i libucrt:output.obj
 0001:0004cd18       ?write_stored_string_tchar@?$output_processor@DV?$string_output_adapter@D@__crt_stdio_output@@V?$format_validation_base@DV?$string_output_adapter@D@__crt_stdio_output@@@2@@__crt_stdio_output@@AEAA_ND@Z 000000014004dd18 f i libucrt:output.obj
 0001:0004ce28       ?write_stored_string_tchar@?$output_processor@DV?$string_output_adapter@D@__crt_stdio_output@@V?$positional_parameter_base@DV?$string_output_adapter@D@__crt_stdio_output@@@2@@__crt_stdio_output@@AEAA_ND@Z 000000014004de28 f i libucrt:output.obj
 0001:0004cf38       ?write_stored_string_tchar@?$output_processor@DV?$string_output_adapter@D@__crt_stdio_output@@V?$standard_base@DV?$string_output_adapter@D@__crt_stdio_output@@@2@@__crt_stdio_output@@AEAA_ND@Z 000000014004df38 f i libucrt:output.obj
 0001:0004d048       ?write_stored_string_tchar@?$output_processor@_WV?$stream_output_adapter@_W@__crt_stdio_output@@V?$format_validation_base@_WV?$stream_output_adapter@_W@__crt_stdio_output@@@2@@__crt_stdio_output@@AEAA_N_W@Z 000000014004e048 f i libucrt:output.obj
 0001:0004d1cc       ?write_stored_string_tchar@?$output_processor@_WV?$stream_output_adapter@_W@__crt_stdio_output@@V?$positional_parameter_base@_WV?$stream_output_adapter@_W@__crt_stdio_output@@@2@@__crt_stdio_output@@AEAA_N_W@Z 000000014004e1cc f i libucrt:output.obj
 0001:0004d350       ?write_stored_string_tchar@?$output_processor@_WV?$stream_output_adapter@_W@__crt_stdio_output@@V?$standard_base@_WV?$stream_output_adapter@_W@__crt_stdio_output@@@2@@__crt_stdio_output@@AEAA_N_W@Z 000000014004e350 f i libucrt:output.obj
 0001:0004d4d4       ?write_stored_string_tchar@?$output_processor@_WV?$string_output_adapter@_W@__crt_stdio_output@@V?$format_validation_base@_WV?$string_output_adapter@_W@__crt_stdio_output@@@2@@__crt_stdio_output@@AEAA_N_W@Z 000000014004e4d4 f i libucrt:output.obj
 0001:0004d61c       ?write_stored_string_tchar@?$output_processor@_WV?$string_output_adapter@_W@__crt_stdio_output@@V?$positional_parameter_base@_WV?$string_output_adapter@_W@__crt_stdio_output@@@2@@__crt_stdio_output@@AEAA_N_W@Z 000000014004e61c f i libucrt:output.obj
 0001:0004d764       ?write_stored_string_tchar@?$output_processor@_WV?$string_output_adapter@_W@__crt_stdio_output@@V?$standard_base@_WV?$string_output_adapter@_W@__crt_stdio_output@@@2@@__crt_stdio_output@@AEAA_N_W@Z 000000014004e764 f i libucrt:output.obj
 0001:0004d8ac       ?write_string@?$stream_output_adapter@D@__crt_stdio_output@@QEBAXQEBDHQEAHAEAV__crt_cached_ptd_host@@@Z 000000014004e8ac f i libucrt:output.obj
 0001:0004d8dc       ?write_string@?$stream_output_adapter@_W@__crt_stdio_output@@QEBAXQEB_WHQEAHAEAV__crt_cached_ptd_host@@@Z 000000014004e8dc f i libucrt:output.obj
 0001:0004d90c       ?write_string@?$string_output_adapter@D@__crt_stdio_output@@QEBAXQEBDHQEAHAEAV__crt_cached_ptd_host@@@Z 000000014004e90c f i libucrt:output.obj
 0001:0004d9d8       ?write_string@?$string_output_adapter@_W@__crt_stdio_output@@QEBAXQEB_WHQEAHAEAV__crt_cached_ptd_host@@@Z 000000014004e9d8 f i libucrt:output.obj
 0001:0004daa8       ?write_string_impl@?$output_adapter_common@DV?$stream_output_adapter@D@__crt_stdio_output@@@__crt_stdio_output@@IEBAXQEBDHQEAHAEAV__crt_cached_ptd_host@@@Z 000000014004eaa8 f i libucrt:output.obj
 0001:0004dba8       ?write_string_impl@?$output_adapter_common@_WV?$stream_output_adapter@_W@__crt_stdio_output@@@__crt_stdio_output@@IEBAXQEB_WHQEAHAEAV__crt_cached_ptd_host@@@Z 000000014004eba8 f i libucrt:output.obj
 0001:0004dcbc       __acrt_isleadbyte_l_noupdate 000000014004ecbc f i libucrt:output.obj
 0001:0004dce8       __stdio_common_vfprintf    000000014004ece8 f   libucrt:output.obj
 0001:0004de58       __stdio_common_vfprintf_p  000000014004ee58 f   libucrt:output.obj
 0001:0004dfc8       __stdio_common_vfprintf_s  000000014004efc8 f   libucrt:output.obj
 0001:0004e138       __stdio_common_vfwprintf   000000014004f138 f   libucrt:output.obj
 0001:0004e2a8       __stdio_common_vfwprintf_p 000000014004f2a8 f   libucrt:output.obj
 0001:0004e418       __stdio_common_vfwprintf_s 000000014004f418 f   libucrt:output.obj
 0001:0004e588       __stdio_common_vsnprintf_s 000000014004f588 f   libucrt:output.obj
 0001:0004e7d4       __stdio_common_vsnwprintf_s 000000014004f7d4 f   libucrt:output.obj
 0001:0004ea24       __stdio_common_vsprintf    000000014004fa24 f   libucrt:output.obj
 0001:0004ed0c       __stdio_common_vsprintf_p  000000014004fd0c f   libucrt:output.obj
 0001:0004edf0       __stdio_common_vsprintf_s  000000014004fdf0 f   libucrt:output.obj
 0001:0004ef48       __stdio_common_vswprintf   000000014004ff48 f   libucrt:output.obj
 0001:0004f238       __stdio_common_vswprintf_p 0000000140050238 f   libucrt:output.obj
 0001:0004f31c       __stdio_common_vswprintf_s 000000014005031c f   libucrt:output.obj
 0001:0004f474       _ctype_fast_check_internal 0000000140050474 f i libucrt:output.obj
 0001:0004f48c       _isdigit_fast_internal     000000014005048c f i libucrt:output.obj
 0001:0004f4a8       _tolower_fast_internal     00000001400504a8 f i libucrt:output.obj
 0001:0004f4e4       _seh_filter_dll            00000001400504e4 f   libucrt:exception_filter.obj
 0001:0004f4fc       _seh_filter_exe            00000001400504fc f   libucrt:exception_filter.obj
 0001:0004f7ec       __acrt_report_runtime_error 00000001400507ec f   libucrt:report_runtime_error.obj
 0001:0004f9a0       _query_app_type            00000001400509a0 f   libucrt:report_runtime_error.obj
 0001:0004f9a8       _set_app_type              00000001400509a8 f   libucrt:report_runtime_error.obj
 0001:0004f9b0       ??$__crt_fast_decode_pointer@P6AHPEAU_exception@@@Z@@YAP6AHPEAU_exception@@@ZQ6AH0@Z@Z 00000001400509b0 f i libucrt:matherr.obj
 0001:0004f9cc       ??$__crt_fast_encode_pointer@P6AHPEAU_exception@@@Z@@YAP6AHPEAU_exception@@@ZQ6AH0@Z@Z 00000001400509cc f i libucrt:matherr.obj
 0001:0004f9f4       ?__crt_rotate_pointer_value@@YA_K_KH@Z 00000001400509f4 f i libucrt:matherr.obj
 0001:0004fa00       ?get_current_state_index@__crt_state_management@@YA_KXZ 0000000140050a00 f i libucrt:matherr.obj
 0001:0004fa04       ?initialize@?$dual_state_global@P6AHPEAU_exception@@@Z@__crt_state_management@@QEAAXQ6AHPEAU_exception@@@Z@Z 0000000140050a04 f i libucrt:matherr.obj
 0001:0004fa14       ?value@?$dual_state_global@P6AHPEAU_exception@@@Z@__crt_state_management@@QEAAAEAP6AHPEAU_exception@@@ZXZ 0000000140050a14 f i libucrt:matherr.obj
 0001:0004fa18       __acrt_has_user_matherr    0000000140050a18 f   libucrt:matherr.obj
 0001:0004fa3c       __acrt_initialize_user_matherr 0000000140050a3c f   libucrt:matherr.obj
 0001:0004fa48       __acrt_invoke_user_matherr 0000000140050a48 f   libucrt:matherr.obj
 0001:0004fa90       __setusermatherr           0000000140050a90 f   libucrt:matherr.obj
 0001:0004fac0       ??$?RE@__crt_internal_free_policy@@QEBAXQEBE@Z 0000000140050ac0 f i libucrt:argv_parsing.obj
 0001:0004facc       ??$?RPEAD@__crt_internal_free_policy@@QEBAXQEBQEAD@Z 0000000140050acc f i libucrt:argv_parsing.obj
 0001:0004fad8       ??$?RPEA_W@__crt_internal_free_policy@@QEBAXQEBQEA_W@Z 0000000140050ad8 f i libucrt:argv_parsing.obj
 0001:0004fe90       ??$get_module_file_name@$$TAEAY0BAF@DH@?$__crt_char_traits@D@@SAK$$QEA$$TAEAY0BAF@D$$QEAH@Z 0000000140050e90 f i libucrt:argv_parsing.obj
 0001:0004fea0       ??$get_module_file_name@$$TAEAY0BAF@_WH@?$__crt_char_traits@_W@@SAK$$QEA$$TAEAY0BAF@_W$$QEAH@Z 0000000140050ea0 f i libucrt:argv_parsing.obj
 0001:000502ec       ??$set_program_name@PEAD@?$__crt_char_traits@D@@SAX$$QEAPEAD@Z 00000001400512ec f i libucrt:argv_parsing.obj
 0001:000502fc       ??$set_program_name@PEA_W@?$__crt_char_traits@_W@@SAX$$QEAPEA_W@Z 00000001400512fc f i libucrt:argv_parsing.obj
 0001:0005031c       ??0?$__crt_unique_heap_ptr@EU__crt_internal_free_policy@@@@QEAA@QEAE@Z 000000014005131c f i libucrt:argv_parsing.obj
 0001:00050324       ??0?$__crt_unique_heap_ptr@PEADU__crt_internal_free_policy@@@@QEAA@QEAPEAD@Z 0000000140051324 f i libucrt:argv_parsing.obj
 0001:0005032c       ??0?$__crt_unique_heap_ptr@PEA_WU__crt_internal_free_policy@@@@QEAA@QEAPEA_W@Z 000000014005132c f i libucrt:argv_parsing.obj
 0001:00050334       ??1?$__crt_unique_heap_ptr@EU__crt_internal_free_policy@@@@QEAA@XZ 0000000140051334 f i libucrt:argv_parsing.obj
 0001:00050358       ??1?$__crt_unique_heap_ptr@PEADU__crt_internal_free_policy@@@@QEAA@XZ 0000000140051358 f i libucrt:argv_parsing.obj
 0001:0005037c       ??1?$__crt_unique_heap_ptr@PEA_WU__crt_internal_free_policy@@@@QEAA@XZ 000000014005137c f i libucrt:argv_parsing.obj
 0001:000503a0       ??B?$__crt_unique_heap_ptr@EU__crt_internal_free_policy@@@@QEBA_NXZ 00000001400513a0 f i libucrt:argv_parsing.obj
 0001:000503f4       ?detach@?$__crt_unique_heap_ptr@EU__crt_internal_free_policy@@@@QEAAPEAEXZ 00000001400513f4 f i libucrt:argv_parsing.obj
 0001:00050400       ?detach@?$__crt_unique_heap_ptr@PEADU__crt_internal_free_policy@@@@QEAAPEAPEADXZ 0000000140051400 f i libucrt:argv_parsing.obj
 0001:0005040c       ?detach@?$__crt_unique_heap_ptr@PEA_WU__crt_internal_free_policy@@@@QEAAPEAPEA_WXZ 000000014005140c f i libucrt:argv_parsing.obj
 0001:00050434       ?get@?$__crt_unique_heap_ptr@EU__crt_internal_free_policy@@@@QEBAPEAEXZ 0000000140051434 f i libucrt:argv_parsing.obj
 0001:00050438       ?get@?$__crt_unique_heap_ptr@PEADU__crt_internal_free_policy@@@@QEBAPEAPEADXZ 0000000140051438 f i libucrt:argv_parsing.obj
 0001:0005043c       ?get@?$__crt_unique_heap_ptr@PEA_WU__crt_internal_free_policy@@@@QEBAPEAPEA_WXZ 000000014005143c f i libucrt:argv_parsing.obj
 0001:00050440       ?get_address_of@?$__crt_unique_heap_ptr@PEADU__crt_internal_free_policy@@@@QEAAPEAPEAPEADXZ 0000000140051440 f i libucrt:argv_parsing.obj
 0001:00050444       ?get_address_of@?$__crt_unique_heap_ptr@PEA_WU__crt_internal_free_policy@@@@QEAAPEAPEAPEA_WXZ 0000000140051444 f i libucrt:argv_parsing.obj
 0001:00050478       ?is_valid@?$__crt_unique_heap_ptr@EU__crt_internal_free_policy@@@@QEBA_NXZ 0000000140051478 f i libucrt:argv_parsing.obj
 0001:00050484       ?release@?$__crt_unique_heap_ptr@EU__crt_internal_free_policy@@@@QEAAXXZ 0000000140051484 f i libucrt:argv_parsing.obj
 0001:000504a8       ?release@?$__crt_unique_heap_ptr@PEADU__crt_internal_free_policy@@@@QEAAXXZ 00000001400514a8 f i libucrt:argv_parsing.obj
 0001:000504cc       ?release@?$__crt_unique_heap_ptr@PEA_WU__crt_internal_free_policy@@@@QEAAXXZ 00000001400514cc f i libucrt:argv_parsing.obj
 0001:00050510       __acrt_allocate_buffer_for_argv 0000000140051510 f   libucrt:argv_parsing.obj
 0001:00050584       _configure_narrow_argv     0000000140051584 f   libucrt:argv_parsing.obj
 0001:0005076c       _configure_wide_argv       000000014005176c f   libucrt:argv_parsing.obj
 0001:00050950       _set_pgmptr                0000000140051950 f i libucrt:argv_parsing.obj
 0001:0005095c       _set_wpgmptr               000000014005195c f i libucrt:argv_parsing.obj
 0001:00050968       ??$?R_W@__crt_internal_free_policy@@QEBAXQEB_W@Z 0000000140051968 f i libucrt:environment_initialization.obj
 0001:00050fdc       ??$get_environment_from_os@$$V@?$__crt_char_traits@D@@SAPEADXZ 0000000140051fdc f i libucrt:environment_initialization.obj
 0001:00050fe4       ??$get_environment_from_os@$$V@?$__crt_char_traits@_W@@SAPEA_WXZ 0000000140051fe4 f i libucrt:environment_initialization.obj
 0001:000511ec       ??$set_variable_in_environment_nolock@PEADH@?$__crt_char_traits@D@@SAH$$QEAPEAD$$QEAH@Z 00000001400521ec f i libucrt:environment_initialization.obj
 0001:000511f8       ??$set_variable_in_environment_nolock@PEA_WH@?$__crt_char_traits@_W@@SAH$$QEAPEA_W$$QEAH@Z 00000001400521f8 f i libucrt:environment_initialization.obj
 0001:00051204       ??$tcscpy_s@PEADAEB_KAEAPEAD@?$__crt_char_traits@D@@SAH$$QEAPEADAEB_KAEAPEAD@Z 0000000140052204 f i libucrt:environment_initialization.obj
 0001:00051218       ??$tcscpy_s@PEA_WAEB_KAEAPEA_W@?$__crt_char_traits@_W@@SAH$$QEAPEA_WAEB_KAEAPEA_W@Z 0000000140052218 f i libucrt:environment_initialization.obj
 0001:0005122c       ??$tcslen@AEAPEAD@?$__crt_char_traits@D@@SA_KAEAPEAD@Z 000000014005222c f i libucrt:environment_initialization.obj
 0001:00051244       ??$tcslen@AEAPEA_W@?$__crt_char_traits@_W@@SA_KAEAPEA_W@Z 0000000140052244 f i libucrt:environment_initialization.obj
 0001:0005125c       ??$uninitialize@A6AXAEAPEAPEAD@_E@?$dual_state_global@PEAPEAD@__crt_state_management@@QEAAXA6AXAEAPEAPEAD@_E@Z 000000014005225c f i libucrt:environment_initialization.obj
 0001:000512c8       ??$uninitialize@A6AXAEAPEAPEA_W@_E@?$dual_state_global@PEAPEA_W@__crt_state_management@@QEAAXA6AXAEAPEAPEA_W@_E@Z 00000001400522c8 f i libucrt:environment_initialization.obj
 0001:00051374       ??0?$__crt_unique_heap_ptr@_WU__crt_internal_free_policy@@@@QEAA@QEA_W@Z 0000000140052374 f i libucrt:environment_initialization.obj
 0001:0005137c       ??1?$__crt_unique_heap_ptr@_WU__crt_internal_free_policy@@@@QEAA@XZ 000000014005237c f i libucrt:environment_initialization.obj
 0001:000513a0       ??B?$__crt_unique_heap_ptr@PEADU__crt_internal_free_policy@@@@QEBA_NXZ 00000001400523a0 f i libucrt:environment_initialization.obj
 0001:000513ac       ??B?$__crt_unique_heap_ptr@PEA_WU__crt_internal_free_policy@@@@QEBA_NXZ 00000001400523ac f i libucrt:environment_initialization.obj
 0001:000513b8       ??B?$__crt_unique_heap_ptr@_WU__crt_internal_free_policy@@@@QEBA_NXZ 00000001400523b8 f i libucrt:environment_initialization.obj
 0001:000513c4       ?__crt_compute_required_transform_buffer_count@@YA_KIQEBD@Z 00000001400523c4 f i libucrt:environment_initialization.obj
 0001:000513f4       ?__crt_compute_required_transform_buffer_count@@YA_KIQEB_W@Z 00000001400523f4 f i libucrt:environment_initialization.obj
 0001:00051430       ?__crt_transform_string@@YA_KIQEBDQEA_W_K@Z 0000000140052430 f i libucrt:environment_initialization.obj
 0001:0005145c       ?__crt_transform_string@@YA_KIQEB_WQEAD_K@Z 000000014005245c f i libucrt:environment_initialization.obj
 0001:00051498       ?detach@?$__crt_unique_heap_ptr@DU__crt_internal_free_policy@@@@QEAAPEADXZ 0000000140052498 f i libucrt:environment_initialization.obj
 0001:000514a4       ?detach@?$__crt_unique_heap_ptr@_WU__crt_internal_free_policy@@@@QEAAPEA_WXZ 00000001400524a4 f i libucrt:environment_initialization.obj
 0001:000514b0       ?get@?$__crt_unique_heap_ptr@_WU__crt_internal_free_policy@@@@QEBAPEA_WXZ 00000001400524b0 f i libucrt:environment_initialization.obj
 0001:000514fc       ?initialize@?$dual_state_global@PEAPEAD@__crt_state_management@@QEAAXQEAPEAD@Z 00000001400524fc f i libucrt:environment_initialization.obj
 0001:0005150c       ?initialize@?$dual_state_global@PEAPEA_W@__crt_state_management@@QEAAXQEAPEA_W@Z 000000014005250c f i libucrt:environment_initialization.obj
 0001:0005151c       ?is_valid@?$__crt_unique_heap_ptr@PEADU__crt_internal_free_policy@@@@QEBA_NXZ 000000014005251c f i libucrt:environment_initialization.obj
 0001:00051528       ?is_valid@?$__crt_unique_heap_ptr@PEA_WU__crt_internal_free_policy@@@@QEBA_NXZ 0000000140052528 f i libucrt:environment_initialization.obj
 0001:00051534       ?is_valid@?$__crt_unique_heap_ptr@_WU__crt_internal_free_policy@@@@QEBA_NXZ 0000000140052534 f i libucrt:environment_initialization.obj
 0001:0005154c       ?release@?$__crt_unique_heap_ptr@_WU__crt_internal_free_policy@@@@QEAAXXZ 000000014005254c f i libucrt:environment_initialization.obj
 0001:00051570       ?value@?$dual_state_global@PEAPEAD@__crt_state_management@@QEAAAEAPEAPEADXZ 0000000140052570 f i libucrt:environment_initialization.obj
 0001:00051574       ?value@?$dual_state_global@PEAPEA_W@__crt_state_management@@QEAAAEAPEAPEA_WXZ 0000000140052574 f i libucrt:environment_initialization.obj
 0001:00051578       __dcrt_get_or_create_narrow_environment_nolock 0000000140052578 f   libucrt:environment_initialization.obj
 0001:000515c4       __dcrt_get_or_create_wide_environment_nolock 00000001400525c4 f   libucrt:environment_initialization.obj
 0001:00051610       __dcrt_uninitialize_environments_nolock 0000000140052610 f   libucrt:environment_initialization.obj
 0001:00051664       __p__environ               0000000140052664 f   libucrt:environment_initialization.obj
 0001:00051670       __p__wenviron              0000000140052670 f   libucrt:environment_initialization.obj
 0001:0005167c       _get_initial_narrow_environment 000000014005267c f   libucrt:environment_initialization.obj
 0001:000516e0       _get_initial_wide_environment 00000001400526e0 f   libucrt:environment_initialization.obj
 0001:00051744       _initialize_narrow_environment 0000000140052744 f   libucrt:environment_initialization.obj
 0001:0005174c       _initialize_wide_environment 000000014005274c f   libucrt:environment_initialization.obj
 0001:00051754       _initterm                  0000000140052754 f   libucrt:initterm.obj
 0001:000517a8       _initterm_e                00000001400527a8 f   libucrt:initterm.obj
 0001:00051800       ??$?B$$A6AXPEAXK0@Z@__crt_fast_encoded_nullptr_t@@QEBAP6AXPEAXK0@ZXZ 0000000140052800 f i libucrt:exit.obj
 0001:00051890       ??$__crt_fast_decode_pointer@P6AXPEAXK0@Z@@YAP6AXPEAXK0@ZQ6AX0K0@Z@Z 0000000140052890 f i libucrt:exit.obj
 0001:000518ac       ??$__crt_fast_encode_pointer@P6AXPEAXK0@Z@@YAP6AXPEAXK0@ZQ6AX0K0@Z@Z 00000001400528ac f i libucrt:exit.obj
 0001:000518d4       ??$__crt_get_proc_address@P6AXI@Z@@YAP6AXI@ZQEAUHINSTANCE__@@QEBD@Z 00000001400528d4 f i libucrt:exit.obj
 0001:00051908       ??0?$__crt_unique_handle_t@U__crt_hmodule_traits@@@@QEAA@QEAUHINSTANCE__@@@Z 0000000140052908 f i libucrt:exit.obj
 0001:00051910       ??1?$__crt_unique_handle_t@U__crt_hmodule_traits@@@@QEAA@XZ 0000000140052910 f i libucrt:exit.obj
 0001:00051a4c       ?__acrt_select_exit_lock@@YA?AW4__acrt_lock_id@@XZ 0000000140052a4c f i libucrt:exit.obj
 0001:00051a54       ?__crt_fast_encode_pointer@@YA?AU__crt_fast_encoded_nullptr_t@@$$T@Z 0000000140052a54 f i libucrt:exit.obj
 0001:00051a6c       ?close@?$__crt_unique_handle_t@U__crt_hmodule_traits@@@@QEAAXXZ 0000000140052a6c f i libucrt:exit.obj
 0001:00051a98       ?close@__crt_hmodule_traits@@SA_NPEAUHINSTANCE__@@@Z 0000000140052a98 f i libucrt:exit.obj
 0001:00051bec       ?get@?$__crt_unique_handle_t@U__crt_hmodule_traits@@@@QEBAPEAUHINSTANCE__@@XZ 0000000140052bec f i libucrt:exit.obj
 0001:00051bf0       ?get_address_of@?$__crt_unique_handle_t@U__crt_hmodule_traits@@@@QEAAPEAPEAUHINSTANCE__@@XZ 0000000140052bf0 f i libucrt:exit.obj
 0001:00051bf4       ?get_invalid_value@__crt_hmodule_traits@@SAPEAUHINSTANCE__@@XZ 0000000140052bf4 f i libucrt:exit.obj
 0001:00051d28       _Exit                      0000000140052d28 f   libucrt:exit.obj
 0001:00051d38       __acrt_initialize_thread_local_exit_callback 0000000140052d38 f   libucrt:exit.obj
 0001:00051d44       _c_exit                    0000000140052d44 f   libucrt:exit.obj
 0001:00051d58       _cexit                     0000000140052d58 f   libucrt:exit.obj
 0001:00051d68       _exit                      0000000140052d68 f   libucrt:exit.obj
 0001:00051d78       _is_c_termination_complete 0000000140052d78 f   libucrt:exit.obj
 0001:00051d80       _register_thread_local_exe_atexit_callback 0000000140052d80 f   libucrt:exit.obj
 0001:00051dd0       exit                       0000000140052dd0 f   libucrt:exit.obj
 0001:00051ddc       quick_exit                 0000000140052ddc f   libucrt:exit.obj
 0001:00051dec       ??$__crt_interlocked_read@H@@YAHPEDH@Z 0000000140052dec f i libucrt:setmode.obj
 0001:00051df0       ?value@?$dual_state_global@H@__crt_state_management@@QEAAAEAHXZ 0000000140052df0 f i libucrt:setmode.obj
 0001:00051df4       _get_fmode                 0000000140052df4 f   libucrt:setmode.obj
 0001:00051e30       _set_fmode                 0000000140052e30 f   libucrt:setmode.obj
 0001:00051e7c       _setmode                   0000000140052e7c f   libucrt:setmode.obj
 0001:00051fc0       _setmode_nolock            0000000140052fc0 f   libucrt:setmode.obj
 0001:000520d8       __acrt_initialize_command_line 00000001400530d8 f   libucrt:argv_data.obj
 0001:00052108       __acrt_uninitialize_command_line 0000000140053108 f   libucrt:argv_data.obj
 0001:0005210c       __p___argc                 000000014005310c f   libucrt:argv_data.obj
 0001:00052118       __p___argv                 0000000140053118 f   libucrt:argv_data.obj
 0001:00052124       __p___wargv                0000000140053124 f   libucrt:argv_data.obj
 0001:00052130       __p__acmdln                0000000140053130 f   libucrt:argv_data.obj
 0001:0005213c       __p__pgmptr                000000014005313c f   libucrt:argv_data.obj
 0001:00052148       __p__wcmdln                0000000140053148 f   libucrt:argv_data.obj
 0001:00052154       __p__wpgmptr               0000000140053154 f   libucrt:argv_data.obj
 0001:00052160       _get_pgmptr                0000000140053160 f   libucrt:argv_data.obj
 0001:000521a4       _get_wpgmptr               00000001400531a4 f   libucrt:argv_data.obj
 0001:000521ec       ??$?RU__crt_locale_data@@@__crt_internal_free_policy@@QEBAXQEBU__crt_locale_data@@@Z 00000001400531ec f i libucrt:wsetlocale.obj
 0001:000521f8       ??$?RU__crt_locale_pointers@@@__crt_internal_free_policy@@QEBAXQEBU__crt_locale_pointers@@@Z 00000001400531f8 f i libucrt:wsetlocale.obj
 0001:00052204       ??$?RU__crt_multibyte_data@@@__crt_internal_free_policy@@QEBAXQEBU__crt_multibyte_data@@@Z 0000000140053204 f i libucrt:wsetlocale.obj
 0001:00052704       ??0?$__crt_unique_heap_ptr@U__crt_locale_data@@U__crt_internal_free_policy@@@@QEAA@QEAU__crt_locale_data@@@Z 0000000140053704 f i libucrt:wsetlocale.obj
 0001:0005270c       ??0?$__crt_unique_heap_ptr@U__crt_locale_pointers@@U__crt_internal_free_policy@@@@QEAA@QEAU__crt_locale_pointers@@@Z 000000014005370c f i libucrt:wsetlocale.obj
 0001:00052714       ??0?$__crt_unique_heap_ptr@U__crt_multibyte_data@@U__crt_internal_free_policy@@@@QEAA@QEAU__crt_multibyte_data@@@Z 0000000140053714 f i libucrt:wsetlocale.obj
 0001:0005271c       ??0_expandlocale_locale_name_cache@@QEAA@QEA_W_KQEAU__crt_qualified_locale_data@@@Z 000000014005371c f i libucrt:wsetlocale.obj
 0001:0005278c       ??1?$__crt_unique_heap_ptr@U__crt_locale_data@@U__crt_internal_free_policy@@@@QEAA@XZ 000000014005378c f i libucrt:wsetlocale.obj
 0001:000527b0       ??1?$__crt_unique_heap_ptr@U__crt_locale_pointers@@U__crt_internal_free_policy@@@@QEAA@XZ 00000001400537b0 f i libucrt:wsetlocale.obj
 0001:000527d4       ??1?$__crt_unique_heap_ptr@U__crt_multibyte_data@@U__crt_internal_free_policy@@@@QEAA@XZ 00000001400537d4 f i libucrt:wsetlocale.obj
 0001:000527f8       ??1_expandlocale_locale_name_cache@@QEAA@XZ 00000001400537f8 f i libucrt:wsetlocale.obj
 0001:00052854       ??B?$__crt_unique_heap_ptr@U__crt_locale_data@@U__crt_internal_free_policy@@@@QEBA_NXZ 0000000140053854 f i libucrt:wsetlocale.obj
 0001:00052860       ??B?$__crt_unique_heap_ptr@U__crt_locale_pointers@@U__crt_internal_free_policy@@@@QEBA_NXZ 0000000140053860 f i libucrt:wsetlocale.obj
 0001:0005286c       ??B?$__crt_unique_heap_ptr@U__crt_multibyte_data@@U__crt_internal_free_policy@@@@QEBA_NXZ 000000014005386c f i libucrt:wsetlocale.obj
 0001:00052b78       ?commit_locale_name@_expandlocale_locale_name_cache@@QEAAXQEB_W_K@Z 0000000140053b78 f i libucrt:wsetlocale.obj
 0001:00052c0c       ?commit_locale_name_cache_already_updated@_expandlocale_locale_name_cache@@QEAAXQEB_W_K@Z 0000000140053c0c f i libucrt:wsetlocale.obj
 0001:00052c5c       ?detach@?$__crt_unique_heap_ptr@U__crt_locale_data@@U__crt_internal_free_policy@@@@QEAAPEAU__crt_locale_data@@XZ 0000000140053c5c f i libucrt:wsetlocale.obj
 0001:00052c68       ?detach@?$__crt_unique_heap_ptr@U__crt_locale_pointers@@U__crt_internal_free_policy@@@@QEAAPEAU__crt_locale_pointers@@XZ 0000000140053c68 f i libucrt:wsetlocale.obj
 0001:00052c74       ?detach@?$__crt_unique_heap_ptr@U__crt_multibyte_data@@U__crt_internal_free_policy@@@@QEAAPEAU__crt_multibyte_data@@XZ 0000000140053c74 f i libucrt:wsetlocale.obj
 0001:00052c80       ?get@?$__crt_unique_heap_ptr@U__crt_locale_data@@U__crt_internal_free_policy@@@@QEBAPEAU__crt_locale_data@@XZ 0000000140053c80 f i libucrt:wsetlocale.obj
 0001:00052c84       ?get@?$__crt_unique_heap_ptr@U__crt_locale_pointers@@U__crt_internal_free_policy@@@@QEBAPEAU__crt_locale_pointers@@XZ 0000000140053c84 f i libucrt:wsetlocale.obj
 0001:00052c88       ?get@?$__crt_unique_heap_ptr@U__crt_multibyte_data@@U__crt_internal_free_policy@@@@QEBAPEAU__crt_multibyte_data@@XZ 0000000140053c88 f i libucrt:wsetlocale.obj
 0001:00052c8c       ?is_valid@?$__crt_unique_heap_ptr@U__crt_locale_data@@U__crt_internal_free_policy@@@@QEBA_NXZ 0000000140053c8c f i libucrt:wsetlocale.obj
 0001:00052c98       ?is_valid@?$__crt_unique_heap_ptr@U__crt_locale_pointers@@U__crt_internal_free_policy@@@@QEBA_NXZ 0000000140053c98 f i libucrt:wsetlocale.obj
 0001:00052ca4       ?is_valid@?$__crt_unique_heap_ptr@U__crt_multibyte_data@@U__crt_internal_free_policy@@@@QEBA_NXZ 0000000140053ca4 f i libucrt:wsetlocale.obj
 0001:00052cb0       ?release@?$__crt_unique_heap_ptr@U__crt_locale_data@@U__crt_internal_free_policy@@@@QEAAXXZ 0000000140053cb0 f i libucrt:wsetlocale.obj
 0001:00052cd4       ?release@?$__crt_unique_heap_ptr@U__crt_locale_pointers@@U__crt_internal_free_policy@@@@QEAAXXZ 0000000140053cd4 f i libucrt:wsetlocale.obj
 0001:00052cf8       ?release@?$__crt_unique_heap_ptr@U__crt_multibyte_data@@U__crt_internal_free_policy@@@@QEAAXXZ 0000000140053cf8 f i libucrt:wsetlocale.obj
 0001:00052d1c       ?value@?$dual_state_global@PEAU__crt_locale_data@@@__crt_state_management@@QEAAAEAPEAU__crt_locale_data@@XZ 0000000140053d1c f i libucrt:wsetlocale.obj
 0001:00052d20       __acrt_copy_locale_name    0000000140053d20 f   libucrt:wsetlocale.obj
 0001:00052dc4       __acrt_set_locale_changed  0000000140053dc4 f   libucrt:wsetlocale.obj
 0001:00052dd4       __acrt_uninitialize_locale 0000000140053dd4 f   libucrt:wsetlocale.obj
 0001:00052e10       __ascii_tolower            0000000140053e10 f i libucrt:wsetlocale.obj
 0001:00052e24       __ascii_towlower           0000000140053e24 f i libucrt:wsetlocale.obj
 0001:00052e34       __lc_lctowcs               0000000140053e34 f   libucrt:wsetlocale.obj
 0001:00052f00       __lc_wcstolc               0000000140053f00 f   libucrt:wsetlocale.obj
 0001:000530c0       _configthreadlocale        00000001400540c0 f   libucrt:wsetlocale.obj
 0001:00053234       _create_locale             0000000140054234 f   libucrt:wsetlocale.obj
 0001:00053864       _free_locale               0000000140054864 f   libucrt:wsetlocale.obj
 0001:00053930       _get_current_locale        0000000140054930 f   libucrt:wsetlocale.obj
 0001:00053a1c       _wcreate_locale            0000000140054a1c f   libucrt:wsetlocale.obj
 0001:00053bb8       _wcscats                   0000000140054bb8 f   libucrt:wsetlocale.obj
 0001:00053c38       _wsetlocale                0000000140054c38 f   libucrt:wsetlocale.obj
 0001:00054dd4       ?value@?$dual_state_global@J@__crt_state_management@@QEAAAEAJXZ 0000000140055dd4 f i libucrt:new_mode.obj
 0001:00054dd8       _query_new_mode            0000000140055dd8 f   libucrt:new_mode.obj
 0001:00054de0       _set_new_mode              0000000140055de0 f   libucrt:new_mode.obj
 0001:00054e18       __p__commode               0000000140055e18 f   libucrt:ncommode.obj
 0001:00054e24       ??$?B$$A6AXXZ@__crt_fast_encoded_nullptr_t@@QEBAP6AXXZXZ 0000000140055e24 f i libucrt:onexit.obj
 0001:00054e30       ??$?BP6AXXZ@__crt_fast_encoded_nullptr_t@@QEBAPEAP6AXXZXZ 0000000140055e30 f i libucrt:onexit.obj
 0001:00054e3c       ??$?RP6AXXZ@__crt_internal_free_policy@@QEBAXQEBQ6AXXZ@Z 0000000140055e3c f i libucrt:onexit.obj
 0001:00054f4c       ??$__crt_fast_decode_pointer@P6AXXZ@@YAP6AXXZQ6AXXZ@Z 0000000140055f4c f i libucrt:onexit.obj
 0001:00054f68       ??$__crt_fast_decode_pointer@PEAP6AXXZ@@YAPEAP6AXXZQEAP6AXXZ@Z 0000000140055f68 f i libucrt:onexit.obj
 0001:00054f84       ??$__crt_fast_encode_pointer@P6AHXZ@@YAP6AHXZQ6AHXZ@Z 0000000140055f84 f i libucrt:onexit.obj
 0001:00054fac       ??$__crt_fast_encode_pointer@P6AXXZ@@YAP6AXXZQ6AXXZ@Z 0000000140055fac f i libucrt:onexit.obj
 0001:00054fd4       ??$__crt_fast_encode_pointer@PEAP6AXXZ@@YAPEAP6AXXZQEAP6AXXZ@Z 0000000140055fd4 f i libucrt:onexit.obj
 0001:00055044       ??0?$__crt_unique_heap_ptr@P6AXXZU__crt_internal_free_policy@@@@QEAA@QEAP6AXXZ@Z 0000000140056044 f i libucrt:onexit.obj
 0001:0005504c       ??1?$__crt_unique_heap_ptr@P6AXXZU__crt_internal_free_policy@@@@QEAA@XZ 000000014005604c f i libucrt:onexit.obj
 0001:00055070       ??1scoped_global_state_reset@__crt_state_management@@QEAA@XZ 0000000140056070 f i libucrt:onexit.obj
 0001:00055418       ?detach@?$__crt_unique_heap_ptr@P6AXXZU__crt_internal_free_policy@@@@QEAAPEAP6AXXZXZ 0000000140056418 f i libucrt:onexit.obj
 0001:00055424       ?release@?$__crt_unique_heap_ptr@P6AXXZU__crt_internal_free_policy@@@@QEAAXXZ 0000000140056424 f i libucrt:onexit.obj
 0001:00055448       _crt_at_quick_exit         0000000140056448 f   libucrt:onexit.obj
 0001:0005545c       _crt_atexit                000000014005645c f   libucrt:onexit.obj
 0001:00055470       _execute_onexit_table      0000000140056470 f   libucrt:onexit.obj
 0001:000554c4       _initialize_onexit_table   00000001400564c4 f   libucrt:onexit.obj
 0001:000554f4       _register_onexit_function  00000001400564f4 f   libucrt:onexit.obj
 0001:000556d4       ??$?BX@__crt_fast_encoded_nullptr_t@@QEBAPEAXXZ 00000001400566d4 f i libucrt:initialization.obj
 0001:000556e0       ??$__crt_fast_encode_pointer@PEAX@@YAPEAXQEAX@Z 00000001400566e0 f i libucrt:initialization.obj
 0001:000557c8       ?__acrt_stdio_is_initialized@@YA_NXZ 00000001400567c8 f i libucrt:initialization.obj
 0001:000557d8       ?initialize@?$dual_state_global@PEAU__crt_locale_data@@@__crt_state_management@@QEAAXQEAU__crt_locale_data@@@Z 00000001400567d8 f i libucrt:initialization.obj
 0001:000557e8       __acrt_initialize          00000001400567e8 f   libucrt:initialization.obj
 0001:00055800       __acrt_thread_attach       0000000140056800 f   libucrt:initialization.obj
 0001:0005581c       __acrt_thread_detach       000000014005681c f   libucrt:initialization.obj
 0001:00055830       __acrt_uninitialize        0000000140056830 f   libucrt:initialization.obj
 0001:00055874       __acrt_uninitialize_critical 0000000140056874 f   libucrt:initialization.obj
 0001:000558a0       _get_terminate             00000001400568a0 f   libucrt:terminate.obj
 0001:000558cc       set_terminate              00000001400568cc f   libucrt:terminate.obj
 0001:00055904       terminate                  0000000140056904 f   libucrt:terminate.obj
 0001:000559b4       strcpy_s                   00000001400569b4 f   libucrt:strcpy_s.obj
 0001:00055a2c       _set_abort_behavior        0000000140056a2c f   libucrt:abort.obj
 0001:00055a50       abort                      0000000140056a50 f   libucrt:abort.obj
 0001:00055abc       calloc                     0000000140056abc f   libucrt:calloc.obj
 0001:00055ae0       strncmp                    0000000140056ae0 f   libucrt:strncmp.obj
 0001:00055b80       wcsncmp                    0000000140056b80 f   libucrt:wcsncmp.obj
 0001:00055bc4       _free_base                 0000000140056bc4 f   libucrt:free_base.obj
 0001:00055c10       _malloc_base               0000000140056c10 f   libucrt:malloc_base.obj
 0001:00055c88       ??$__crt_fast_decode_pointer@P6AXPEB_W00I_K@Z@@YAP6AXPEB_W00I_K@ZQ6AX000I1@Z@Z 0000000140056c88 f i libucrt:invalid_parameter.obj
 0001:00055ca4       ??$__crt_fast_encode_pointer@P6AXPEB_W00I_K@Z@@YAP6AXPEB_W00I_K@ZQ6AX000I1@Z@Z 0000000140056ca4 f i libucrt:invalid_parameter.obj
 0001:00055ccc       ??$initialize_from_array@$$BY00Q6AXPEB_W00I_K@Z@?$dual_state_global@P6AXPEB_W00I_K@Z@__crt_state_management@@QEAAXAEAY00Q6AXPEB_W00I_K@Z@Z 0000000140056ccc f i libucrt:invalid_parameter.obj
 0001:00055d5c       ?check_synchronize_global_state_index@__crt_cached_ptd_host@@AEAA_KXZ 0000000140056d5c f i libucrt:invalid_parameter.obj
 0001:00055da0       ?dangerous_get_state_array@?$dual_state_global@P6AXPEB_W00I_K@Z@__crt_state_management@@QEAAPEAP6AXPEB_W00I_K@ZXZ 0000000140056da0 f i libucrt:invalid_parameter.obj
 0001:00055da4       ?get_current_global_state_index@__crt_cached_ptd_host@@QEAA_KXZ 0000000140056da4 f i libucrt:invalid_parameter.obj
 0001:00055df4       ?get_raw_ptd_noexit@__crt_cached_ptd_host@@QEAAPEAU__acrt_ptd@@XZ 0000000140056df4 f i libucrt:invalid_parameter.obj
 0001:00055e78       ?try_synchronize_per_thread_data@__crt_cached_ptd_host@@AEAAPEAU__acrt_ptd@@XZ 0000000140056e78 f i libucrt:invalid_parameter.obj
 0001:00055ef4       ?value@?$dual_state_global@P6AXPEB_W00I_K@Z@__crt_state_management@@QEAAAEAP6AXPEB_W00I_K@ZAEAV__crt_cached_ptd_host@@@Z 0000000140056ef4 f i libucrt:invalid_parameter.obj
 0001:00055f54       ?value@?$dual_state_global@P6AXPEB_W00I_K@Z@__crt_state_management@@QEAAAEAP6AXPEB_W00I_K@ZXZ 0000000140056f54 f i libucrt:invalid_parameter.obj
 0001:00055f58       __acrt_call_reportfault    0000000140056f58 f   libucrt:invalid_parameter.obj
 0001:0005610c       __acrt_initialize_invalid_parameter_handler 000000014005710c f   libucrt:invalid_parameter.obj
 0001:00056118       _get_invalid_parameter_handler 0000000140057118 f   libucrt:invalid_parameter.obj
 0001:00056134       _get_thread_local_invalid_parameter_handler 0000000140057134 f   libucrt:invalid_parameter.obj
 0001:00056154       _invalid_parameter         0000000140057154 f   libucrt:invalid_parameter.obj
 0001:00056218       _invalid_parameter_internal 0000000140057218 f   libucrt:invalid_parameter.obj
 0001:0005631c       _invalid_parameter_noinfo  000000014005731c f   libucrt:invalid_parameter.obj
 0001:00056344       _invalid_parameter_noinfo_noreturn 0000000140057344 f   libucrt:invalid_parameter.obj
 0001:00056380       _invoke_watson             0000000140057380 f   libucrt:invalid_parameter.obj
 0001:000563d8       _set_invalid_parameter_handler 00000001400573d8 f   libucrt:invalid_parameter.obj
 0001:0005641c       _set_thread_local_invalid_parameter_handler 000000014005741c f   libucrt:invalid_parameter.obj
 0001:0005644c       __pctype_func              000000014005744c f   libucrt:ctype.obj
 0001:00056488       __pwctype_func             0000000140057488 f   libucrt:ctype.obj
 0001:00056494       _iswctype_l                0000000140057494 f   libucrt:iswctype.obj
 0001:0005649c       iswctype                   000000014005749c f   libucrt:iswctype.obj
 0001:00056524       ??0_LocaleUpdate@@QEAA@QEAU__crt_locale_pointers@@@Z 0000000140057524 f i libucrt:isctype.obj
 0001:000565e8       ??1_LocaleUpdate@@QEAA@XZ  00000001400575e8 f i libucrt:isctype.obj
 0001:00056600       ?GetLocaleT@_LocaleUpdate@@QEAAPEAU__crt_locale_pointers@@XZ 0000000140057600 f i libucrt:isctype.obj
 0001:00056608       _isctype                   0000000140057608 f   libucrt:isctype.obj
 0001:00056644       _isctype_l                 0000000140057644 f   libucrt:isctype.obj
 0001:00056790       _isleadbyte_fast_internal  0000000140057790 f i libucrt:isctype.obj
 0001:000567b0       ?get_doserrno@__crt_cached_ptd_host@@QEAAAEAU?$cached@K@1@XZ 00000001400577b0 f i libucrt:errno.obj
 0001:000567b8       ?set@?$cached@K@__crt_cached_ptd_host@@QEAAKK@Z 00000001400577b8 f i libucrt:errno.obj
 0001:000567c4       __acrt_errno_from_os_error 00000001400577c4 f   libucrt:errno.obj
 0001:0005681c       __acrt_errno_map_os_error  000000014005781c f   libucrt:errno.obj
 0001:00056874       __acrt_errno_map_os_error_ptd 0000000140057874 f   libucrt:errno.obj
 0001:000568a0       __doserrno                 00000001400578a0 f   libucrt:errno.obj
 0001:000568c8       _errno                     00000001400578c8 f   libucrt:errno.obj
 0001:000568f0       _get_doserrno              00000001400578f0 f   libucrt:errno.obj
 0001:0005693c       _get_errno                 000000014005793c f   libucrt:errno.obj
 0001:00056988       _set_doserrno              0000000140057988 f   libucrt:errno.obj
 0001:000569d0       _set_errno                 00000001400579d0 f   libucrt:errno.obj
 0001:00056a18       ?value@?$dual_state_global@PEAU__crt_multibyte_data@@@__crt_state_management@@QEAAAEAPEAU__crt_multibyte_data@@XZ 0000000140057a18 f i libucrt:locale_update.obj
 0001:00056a1c       ?value_explicit@?$dual_state_global@PEAU__crt_locale_data@@@__crt_state_management@@QEAAAEAPEAU__crt_locale_data@@_K@Z 0000000140057a1c f i libucrt:locale_update.obj
 0001:00056a24       ?value_explicit@?$dual_state_global@PEAU__crt_multibyte_data@@@__crt_state_management@@QEAAAEAPEAU__crt_multibyte_data@@_K@Z 0000000140057a24 f i libucrt:locale_update.obj
 0001:00056a2c       __acrt_should_sync_with_global_locale 0000000140057a2c f i libucrt:locale_update.obj
 0001:00056a40       __acrt_update_locale_info  0000000140057a40 f   libucrt:locale_update.obj
 0001:00056a80       __acrt_update_locale_info_explicit 0000000140057a80 f   libucrt:locale_update.obj
 0001:00056ac4       __acrt_update_multibyte_info 0000000140057ac4 f   libucrt:locale_update.obj
 0001:00056b04       __acrt_update_multibyte_info_explicit 0000000140057b04 f   libucrt:locale_update.obj
 0001:00056b48       ??$?RU__acrt_ptd@@@__crt_internal_free_policy@@QEBAXQEBU__acrt_ptd@@@Z 0000000140057b48 f i libucrt:per_thread_data.obj
 0001:00056e08       ??0?$__crt_unique_heap_ptr@U__acrt_ptd@@U__crt_internal_free_policy@@@@QEAA@QEAU__acrt_ptd@@@Z 0000000140057e08 f i libucrt:per_thread_data.obj
 0001:00056e10       ??1?$__crt_unique_heap_ptr@U__acrt_ptd@@U__crt_internal_free_policy@@@@QEAA@XZ 0000000140057e10 f i libucrt:per_thread_data.obj
 0001:00056e34       ??B?$__crt_unique_heap_ptr@U__acrt_ptd@@U__crt_internal_free_policy@@@@QEBA_NXZ 0000000140057e34 f i libucrt:per_thread_data.obj
 0001:00057104       ?dangerous_get_state_array@?$dual_state_global@PEAU__crt_locale_data@@@__crt_state_management@@QEAAPEAPEAU__crt_locale_data@@XZ 0000000140058104 f i libucrt:per_thread_data.obj
 0001:00057398       ?detach@?$__crt_unique_heap_ptr@U__acrt_ptd@@U__crt_internal_free_policy@@@@QEAAPEAU__acrt_ptd@@XZ 0000000140058398 f i libucrt:per_thread_data.obj
 0001:000573a4       ?get@?$__crt_unique_heap_ptr@U__acrt_ptd@@U__crt_internal_free_policy@@@@QEBAPEAU__acrt_ptd@@XZ 00000001400583a4 f i libucrt:per_thread_data.obj
 0001:0005764c       ?is_valid@?$__crt_unique_heap_ptr@U__acrt_ptd@@U__crt_internal_free_policy@@@@QEBA_NXZ 000000014005864c f i libucrt:per_thread_data.obj
 0001:00057658       ?release@?$__crt_unique_heap_ptr@U__acrt_ptd@@U__crt_internal_free_policy@@@@QEAAXXZ 0000000140058658 f i libucrt:per_thread_data.obj
 0001:00057724       __acrt_freeptd             0000000140058724 f   libucrt:per_thread_data.obj
 0001:00057778       __acrt_getptd              0000000140058778 f   libucrt:per_thread_data.obj
 0001:00057880       __acrt_getptd_head         0000000140058880 f   libucrt:per_thread_data.obj
 0001:0005794c       __acrt_getptd_noexit       000000014005894c f   libucrt:per_thread_data.obj
 0001:00057a48       __acrt_getptd_noexit_explicit 0000000140058a48 f   libucrt:per_thread_data.obj
 0001:00057b38       __acrt_initialize_ptd      0000000140058b38 f   libucrt:per_thread_data.obj
 0001:00057b80       __acrt_uninitialize_ptd    0000000140058b80 f   libucrt:per_thread_data.obj
 0001:00057bac       __threadhandle             0000000140058bac f   libucrt:per_thread_data.obj
 0001:00057bb4       __threadid                 0000000140058bb4 f   libucrt:per_thread_data.obj
 0001:00057bbc       __p___mb_cur_max           0000000140058bbc f   libucrt:nlsdata.obj
 0001:00058214       _i64toa                    0000000140059214 f   libucrt:xtoa.obj
 0001:00058254       _i64toa_s                  0000000140059254 f   libucrt:xtoa.obj
 0001:00058280       _i64tow                    0000000140059280 f   libucrt:xtoa.obj
 0001:000582c0       _i64tow_s                  00000001400592c0 f   libucrt:xtoa.obj
 0001:000582ec       _itoa                      00000001400592ec f   libucrt:xtoa.obj
 0001:00058328       _itoa_s                    0000000140059328 f   libucrt:xtoa.obj
 0001:00058350       _itow                      0000000140059350 f   libucrt:xtoa.obj
 0001:0005838c       _itow_s                    000000014005938c f   libucrt:xtoa.obj
 0001:000583b4       _ltoa                      00000001400593b4 f   libucrt:xtoa.obj
 0001:000583f0       _ltoa_s                    00000001400593f0 f   libucrt:xtoa.obj
 0001:00058418       _ltow                      0000000140059418 f   libucrt:xtoa.obj
 0001:00058454       _ltow_s                    0000000140059454 f   libucrt:xtoa.obj
 0001:0005847c       _ui64toa                   000000014005947c f   libucrt:xtoa.obj
 0001:000584a8       _ui64toa_s                 00000001400594a8 f   libucrt:xtoa.obj
 0001:000584c0       _ui64tow                   00000001400594c0 f   libucrt:xtoa.obj
 0001:000584ec       _ui64tow_s                 00000001400594ec f   libucrt:xtoa.obj
 0001:00058504       _ultoa                     0000000140059504 f   libucrt:xtoa.obj
 0001:00058530       _ultoa_s                   0000000140059530 f   libucrt:xtoa.obj
 0001:00058548       _ultow                     0000000140059548 f   libucrt:xtoa.obj
 0001:00058574       _ultow_s                   0000000140059574 f   libucrt:xtoa.obj
 0001:0005858c       _set_error_mode            000000014005958c f   libucrt:set_error_mode.obj
 0001:00058688       wcscat_s                   0000000140059688 f   libucrt:wcscat_s.obj
 0001:000587b4       wcscpy_s                   00000001400597b4 f   libucrt:wcscpy_s.obj
 0001:00058970       wcsncat_s                  0000000140059970 f   libucrt:wcsncat_s.obj
 0001:00058b58       strcat_s                   0000000140059b58 f   libucrt:strcat_s.obj
 0001:00058d10       strncat_s                  0000000140059d10 f   libucrt:strncat_s.obj
 0001:00058e3c       ??$__acrt_convert_wcs_mbs_cp@_WDV<lambda_f788ae46380686e8b737efdd8c720d07>@@U__crt_win32_buffer_no_resizing@@@@YAHQEB_WAEAV?$__crt_win32_buffer@DU__crt_win32_buffer_no_resizing@@@@AEBV<lambda_f788ae46380686e8b737efdd8c720d07>@@I@Z 0000000140059e3c f i libucrt:getmodulefilenamea.obj
 0001:00058f9c       ??$__acrt_wcs_to_mbs_cp@U__crt_win32_buffer_no_resizing@@@@YAHQEB_WAEAV?$__crt_win32_buffer@DU__crt_win32_buffer_no_resizing@@@@I@Z 0000000140059f9c f i libucrt:getmodulefilenamea.obj
 0001:00058fac       ??0?$__crt_win32_buffer@DU__crt_win32_buffer_no_resizing@@@@QEAA@QEAD_K@Z 0000000140059fac f i libucrt:getmodulefilenamea.obj
 0001:00058fd0       ??1?$__crt_win32_buffer@DU__crt_win32_buffer_no_resizing@@@@QEAA@XZ 0000000140059fd0 f i libucrt:getmodulefilenamea.obj
 0001:00058fe0       ??R<lambda_f788ae46380686e8b737efdd8c720d07>@@QEBAHIQEB_WQEAD_K@Z 0000000140059fe0 f i libucrt:getmodulefilenamea.obj
 0001:0005901c       ?__acrt_get_utf8_acp_compatibility_codepage@@YAIXZ 000000014005a01c f i libucrt:getmodulefilenamea.obj
 0001:00059078       ?_deallocate@?$__crt_win32_buffer@DU__crt_win32_buffer_no_resizing@@@@AEAAXXZ 000000014005a078 f i libucrt:getmodulefilenamea.obj
 0001:00059088       ?allocate@?$__crt_win32_buffer@DU__crt_win32_buffer_no_resizing@@@@QEAAH_K@Z 000000014005a088 f i libucrt:getmodulefilenamea.obj
 0001:000590c4       ?allocate@__crt_win32_buffer_no_resizing@@SAHQEAPEAX_KAEBV__crt_win32_buffer_empty_debug_info@@@Z 000000014005a0c4 f i libucrt:getmodulefilenamea.obj
 0001:000590e0       ?capacity@?$__crt_win32_buffer@DU__crt_win32_buffer_no_resizing@@@@QEBA_KXZ 000000014005a0e0 f i libucrt:getmodulefilenamea.obj
 0001:000590e8       ?data@?$__crt_win32_buffer@DU__crt_win32_buffer_no_resizing@@@@QEAAPEADXZ 000000014005a0e8 f i libucrt:getmodulefilenamea.obj
 0001:000590f0       ?deallocate@__crt_win32_buffer_no_resizing@@SAXQEAXAEBV__crt_win32_buffer_empty_debug_info@@@Z 000000014005a0f0 f i libucrt:getmodulefilenamea.obj
 0001:000590f4       ?debug_info@?$__crt_win32_buffer@DU__crt_win32_buffer_no_resizing@@@@QEBAAEBV__crt_win32_buffer_empty_debug_info@@XZ 000000014005a0f4 f i libucrt:getmodulefilenamea.obj
 0001:000590f8       ?set_to_nullptr@?$__crt_win32_buffer@DU__crt_win32_buffer_no_resizing@@@@QEAAXXZ 000000014005a0f8 f i libucrt:getmodulefilenamea.obj
 0001:00059114       ?size@?$__crt_win32_buffer@DU__crt_win32_buffer_no_resizing@@@@QEAAX_K@Z 000000014005a114 f i libucrt:getmodulefilenamea.obj
 0001:0005911c       ?size@?$__crt_win32_buffer@DU__crt_win32_buffer_no_resizing@@@@QEBA_KXZ 000000014005a11c f i libucrt:getmodulefilenamea.obj
 0001:00059124       __acrt_GetModuleFileNameA  000000014005a124 f   libucrt:getmodulefilenamea.obj
 0001:0005942c       ??$message_box@$$TAEBQEBDAEBQEBDK@?$__crt_char_traits@D@@SAH$$QEA$$TAEBQEBD1$$QEAK@Z 000000014005a42c f i libucrt:crtmbox.obj
 0001:00059444       ??$message_box@$$TAEBQEB_WAEBQEB_WK@?$__crt_char_traits@_W@@SAH$$QEA$$TAEBQEB_W1$$QEAK@Z 000000014005a444 f i libucrt:crtmbox.obj
 0001:0005945c       ??$message_box@PEAUHWND__@@AEBQEBDAEBQEBDAEBI@?$__crt_char_traits@D@@SAH$$QEAPEAUHWND__@@AEBQEBD1AEBI@Z 000000014005a45c f i libucrt:crtmbox.obj
 0001:00059474       ??$message_box@PEAUHWND__@@AEBQEB_WAEBQEB_WAEBI@?$__crt_char_traits@_W@@SAH$$QEAPEAUHWND__@@AEBQEB_W1AEBI@Z 000000014005a474 f i libucrt:crtmbox.obj
 0001:0005948c       ??$output_debug_string@AEBQEBD@?$__crt_char_traits@D@@SAXAEBQEBD@Z 000000014005a48c f i libucrt:crtmbox.obj
 0001:00059498       ??$output_debug_string@AEBQEB_W@?$__crt_char_traits@_W@@SAXAEBQEB_W@Z 000000014005a498 f i libucrt:crtmbox.obj
 0001:000594a4       __acrt_show_narrow_message_box 000000014005a4a4 f   libucrt:crtmbox.obj
 0001:00059570       __acrt_show_wide_message_box 000000014005a570 f   libucrt:crtmbox.obj
 0001:00059984       ??0__crt_stdio_stream@@QEAA@QEAU__crt_stdio_stream_data@@@Z 000000014005a984 f i libucrt:fflush.obj
 0001:00059b50       ?__acrt_stdio_reset_buffer@@YAXV__crt_stdio_stream@@@Z 000000014005ab50 f i libucrt:fflush.obj
 0001:00059c74       ?has_all_of@__crt_stdio_stream@@QEBA_NJ@Z 000000014005ac74 f i libucrt:fflush.obj
 0001:00059ccc       ?set_flags@__crt_stdio_stream@@QEBA_NJ@Z 000000014005accc f i libucrt:fflush.obj
 0001:00059cf4       ?unset_flags@__crt_stdio_stream@@QEBA_NJ@Z 000000014005acf4 f i libucrt:fflush.obj
 0001:00059d24       __acrt_stdio_flush_nolock  000000014005ad24 f   libucrt:fflush.obj
 0001:00059dd0       _fflush_nolock             000000014005add0 f   libucrt:fflush.obj
 0001:00059ed8       _flushall                  000000014005aed8 f   libucrt:fflush.obj
 0001:00059ee0       fflush                     000000014005aee0 f   libucrt:fflush.obj
 0001:0005a264       setvbuf                    000000014005b264 f   libucrt:setvbuf.obj
 0001:0005a3ec       ??$?B$$A6AXH@Z@__crt_fast_encoded_nullptr_t@@QEBAP6AXH@ZXZ 000000014005b3ec f i libucrt:signal.obj
 0001:0005a480       ??$__crt_fast_decode_pointer@P6AXH@Z@@YAP6AXH@ZQ6AXH@Z@Z 000000014005b480 f i libucrt:signal.obj
 0001:0005a49c       ??$__crt_fast_encode_pointer@P6AXH@Z@@YAP6AXH@ZQ6AXH@Z@Z 000000014005b49c f i libucrt:signal.obj
 0001:0005a618       ?initialize@?$dual_state_global@P6AXH@Z@__crt_state_management@@QEAAXQ6AXH@Z@Z 000000014005b618 f i libucrt:signal.obj
 0001:0005a6b4       ?value@?$dual_state_global@P6AXH@Z@__crt_state_management@@QEAAAEAP6AXH@ZXZ 000000014005b6b4 f i libucrt:signal.obj
 0001:0005a6b8       __acrt_get_sigabrt_handler 000000014005b6b8 f   libucrt:signal.obj
 0001:0005a6f4       __acrt_initialize_signal_handlers 000000014005b6f4 f   libucrt:signal.obj
 0001:0005a718       __fpecode                  000000014005b718 f   libucrt:signal.obj
 0001:0005a730       __pxcptinfoptrs            000000014005b730 f   libucrt:signal.obj
 0001:0005a748       raise                      000000014005b748 f   libucrt:signal.obj
 0001:0005aa68       signal                     000000014005ba68 f   libucrt:signal.obj
 0001:0005acb8       _calloc_base               000000014005bcb8 f   libucrt:calloc_base.obj
 0001:0005ad8c       ??$?B$$A6AHPEA_WK_J@Z@__crt_fast_encoded_nullptr_t@@QEBAP6AHPEA_WK_J@ZXZ 000000014005bd8c f i libucrt:winapi_thunks.obj
 0001:0005ae60       ??$__crt_fast_decode_pointer@P6AHPEA_WK_J@Z@@YAP6AHPEA_WK_J@ZQ6AH0K1@Z@Z 000000014005be60 f i libucrt:winapi_thunks.obj
 0001:0005ae7c       ??$__crt_fast_decode_pointer@PEAX@@YAPEAXQEAX@Z 000000014005be7c f i libucrt:winapi_thunks.obj
 0001:0005ae98       ??$__crt_fast_encode_pointer@P6AHPEA_WK_J@Z@@YAP6AHPEA_WK_J@ZQ6AH0K1@Z@Z 000000014005be98 f i libucrt:winapi_thunks.obj
 0001:0005bb7c       GetCurrentThreadEffectiveToken 000000014005cb7c f i libucrt:winapi_thunks.obj
 0001:0005bb88       __acrt_AppPolicyGetProcessTerminationMethodInternal 000000014005cb88 f   libucrt:winapi_thunks.obj
 0001:0005bbf8       __acrt_AppPolicyGetShowDeveloperDiagnosticInternal 000000014005cbf8 f   libucrt:winapi_thunks.obj
 0001:0005bc68       __acrt_AppPolicyGetThreadInitializationTypeInternal 000000014005cc68 f   libucrt:winapi_thunks.obj
 0001:0005bcd8       __acrt_AppPolicyGetWindowingModelInternal 000000014005ccd8 f   libucrt:winapi_thunks.obj
 0001:0005bd48       __acrt_AreFileApisANSI     000000014005cd48 f   libucrt:winapi_thunks.obj
 0001:0005bda0       __acrt_CompareStringEx     000000014005cda0 f   libucrt:winapi_thunks.obj
 0001:0005bec8       __acrt_EnumSystemLocalesEx 000000014005cec8 f   libucrt:winapi_thunks.obj
 0001:0005bf90       __acrt_FlsAlloc            000000014005cf90 f   libucrt:winapi_thunks.obj
 0001:0005bf98       __acrt_FlsFree             000000014005cf98 f   libucrt:winapi_thunks.obj
 0001:0005bfa0       __acrt_FlsGetValue         000000014005cfa0 f   libucrt:winapi_thunks.obj
 0001:0005bfa8       __acrt_FlsSetValue         000000014005cfa8 f   libucrt:winapi_thunks.obj
 0001:0005bfb0       __acrt_GetDateFormatEx     000000014005cfb0 f   libucrt:winapi_thunks.obj
 0001:0005c0a0       __acrt_GetEnabledXStateFeatures 000000014005d0a0 f   libucrt:winapi_thunks.obj
 0001:0005c0f4       __acrt_GetLocaleInfoEx     000000014005d0f4 f   libucrt:winapi_thunks.obj
 0001:0005c1a8       __acrt_GetSystemTimePreciseAsFileTime 000000014005d1a8 f   libucrt:winapi_thunks.obj
 0001:0005c214       __acrt_GetTimeFormatEx     000000014005d214 f   libucrt:winapi_thunks.obj
 0001:0005c2f4       __acrt_GetUserDefaultLocaleName 000000014005d2f4 f   libucrt:winapi_thunks.obj
 0001:0005c37c       __acrt_GetXStateFeaturesMask 000000014005d37c f   libucrt:winapi_thunks.obj
 0001:0005c3f0       __acrt_InitializeCriticalSectionEx 000000014005d3f0 f   libucrt:winapi_thunks.obj
 0001:0005c47c       __acrt_IsValidLocaleName   000000014005d47c f   libucrt:winapi_thunks.obj
 0001:0005c4f8       __acrt_LCIDToLocaleName    000000014005d4f8 f   libucrt:winapi_thunks.obj
 0001:0005c59c       __acrt_LCMapStringEx       000000014005d59c f   libucrt:winapi_thunks.obj
 0001:0005c6c4       __acrt_LocaleNameToLCID    000000014005d6c4 f   libucrt:winapi_thunks.obj
 0001:0005c738       __acrt_LocateXStateFeature 000000014005d738 f   libucrt:winapi_thunks.obj
 0001:0005c7bc       __acrt_MessageBoxA         000000014005d7bc f   libucrt:winapi_thunks.obj
 0001:0005c858       __acrt_MessageBoxW         000000014005d858 f   libucrt:winapi_thunks.obj
 0001:0005c8f4       __acrt_RoInitialize        000000014005d8f4 f   libucrt:winapi_thunks.obj
 0001:0005c950       __acrt_RoUninitialize      000000014005d950 f   libucrt:winapi_thunks.obj
 0001:0005c99c       __acrt_RtlGenRandom        000000014005d99c f   libucrt:winapi_thunks.obj
 0001:0005ca0c       __acrt_SetThreadStackGuarantee 000000014005da0c f   libucrt:winapi_thunks.obj
 0001:0005ca6c       __acrt_can_show_message_box 000000014005da6c f   libucrt:winapi_thunks.obj
 0001:0005caf4       __acrt_can_use_vista_locale_apis 000000014005daf4 f   libucrt:winapi_thunks.obj
 0001:0005cb30       __acrt_can_use_xstate_apis 000000014005db30 f   libucrt:winapi_thunks.obj
 0001:0005cb6c       __acrt_eagerly_load_locale_apis 000000014005db6c f   libucrt:winapi_thunks.obj
 0001:0005cd1c       __acrt_get_parent_window   000000014005dd1c f   libucrt:winapi_thunks.obj
 0001:0005cdcc       __acrt_initialize_winapi_thunks 000000014005ddcc f   libucrt:winapi_thunks.obj
 0001:0005cdf8       __acrt_is_interactive      000000014005ddf8 f   libucrt:winapi_thunks.obj
 0001:0005cf10       __acrt_uninitialize_winapi_thunks 000000014005df10 f   libucrt:winapi_thunks.obj
 0001:0005cf64       ?is_in_use@__crt_stdio_stream@@QEBA_NXZ 000000014005df64 f i libucrt:closeall.obj
 0001:0005cf74       _fcloseall                 000000014005df74 f   libucrt:closeall.obj
 0001:0005d054       ?has_crt_buffer@__crt_stdio_stream@@QEBA_NXZ 000000014005e054 f i libucrt:_freebuf.obj
 0001:0005d064       __acrt_stdio_free_buffer_nolock 000000014005e064 f   libucrt:_freebuf.obj
 0001:0005d34c       __acrt_initialize_lowio    000000014005e34c f   libucrt:ioinit.obj
 0001:0005d398       __acrt_uninitialize_lowio  000000014005e398 f   libucrt:ioinit.obj
 0001:0005deb4       ??1?$__crt_simd_cleanup_guard@$00@@QEAA@XZ 000000014005eeb4 f i libucrt:strnlen.obj
 0001:0005deb8       ??1?$__crt_simd_cleanup_guard@$0A@@@QEAA@XZ 000000014005eeb8 f i libucrt:strnlen.obj
 0001:0005debc       ?compare_equals@?$__crt_simd_traits@$00E@@SA?AT__m256i@@T2@0@Z 000000014005eebc f i libucrt:strnlen.obj
 0001:0005dec8       ?compare_equals@?$__crt_simd_traits@$00G@@SA?AT__m256i@@T2@0@Z 000000014005eec8 f i libucrt:strnlen.obj
 0001:0005ded4       ?compare_equals@?$__crt_simd_traits@$0A@E@@SA?AT__m128i@@T2@0@Z 000000014005eed4 f i libucrt:strnlen.obj
 0001:0005dee0       ?compare_equals@?$__crt_simd_traits@$0A@G@@SA?AT__m128i@@T2@0@Z 000000014005eee0 f i libucrt:strnlen.obj
 0001:0005deec       ?compute_byte_mask@?$__crt_simd_pack_traits@$00@@SAHT__m256i@@@Z 000000014005eeec f i libucrt:strnlen.obj
 0001:0005defc       ?compute_byte_mask@?$__crt_simd_pack_traits@$0A@@@SAHT__m128i@@@Z 000000014005eefc f i libucrt:strnlen.obj
 0001:0005df08       ?get_zero_pack@?$__crt_simd_pack_traits@$00@@SA?AT__m256i@@XZ 000000014005ef08 f i libucrt:strnlen.obj
 0001:0005df10       ?get_zero_pack@?$__crt_simd_pack_traits@$0A@@@SA?AT__m128i@@XZ 000000014005ef10 f i libucrt:strnlen.obj
 0001:0005df14       strnlen                    000000014005ef14 f   libucrt:strnlen.obj
 0001:0005e0b8       wcslen                     000000014005f0b8 f   libucrt:strnlen.obj
 0001:0005e22c       wcsnlen                    000000014005f22c f   libucrt:strnlen.obj
 0001:0005e478       ?__acrt_fp_classify@@YA?AW4__acrt_fp_class@@AEBN@Z 000000014005f478 f i libucrt:cvt.obj
 0001:0005e4ec       ?__acrt_fp_is_negative@@YA_NAEBN@Z 000000014005f4ec f i libucrt:cvt.obj
 0001:0005f490       ?strrchr@@YAPEADQEADH@Z    0000000140060490 f i libucrt:cvt.obj
 0001:0005f498       __acrt_fp_format           0000000140060498 f   libucrt:cvt.obj
 0001:0005f838       ?value_or@?$cached@H@__crt_cached_ptd_host@@QEBAHH@Z 0000000140060838 f i libucrt:wctomb.obj
 0001:0005f848       _wctomb_internal           0000000140060848 f   libucrt:wctomb.obj
 0001:0005fa64       _wctomb_l                  0000000140060a64 f   libucrt:wctomb.obj
 0001:0005fb8c       _wctomb_s_l                0000000140060b8c f   libucrt:wctomb.obj
 0001:0005fc64       wctomb                     0000000140060c64 f   libucrt:wctomb.obj
 0001:0005fd5c       wctomb_s                   0000000140060d5c f   libucrt:wctomb.obj
 0001:0005fe24       _mbtowc_internal           0000000140060e24 f   libucrt:mbtowc.obj
 0001:0005fffc       _mbtowc_l                  0000000140060ffc f   libucrt:mbtowc.obj
 0001:000600c8       mbtowc                     00000001400610c8 f   libucrt:mbtowc.obj
 0001:00060188       ?lowio_handle@__crt_stdio_stream@@QEBAHXZ 0000000140061188 f i libucrt:fileno.obj
 0001:00060190       _fileno                    0000000140061190 f   libucrt:fileno.obj
 0001:000601c0       _get_printf_count_output   00000001400611c0 f   libucrt:printf_count_output.obj
 0001:000601e0       _set_printf_count_output   00000001400611e0 f   libucrt:printf_count_output.obj
 0001:000602d4       _fputwc_nolock             00000001400612d4 f   libucrt:fputwc.obj
 0001:00060394       _fputwc_nolock_internal    0000000140061394 f   libucrt:fputwc.obj
 0001:00060580       _fputwchar                 0000000140061580 f   libucrt:fputwc.obj
 0001:000605ac       _putwc_nolock              00000001400615ac f   libucrt:fputwc.obj
 0001:000605b4       fputwc                     00000001400615b4 f   libucrt:fputwc.obj
 0001:00060674       putwc                      0000000140061674 f   libucrt:fputwc.obj
 0001:0006067c       putwchar                   000000014006167c f   libucrt:fputwc.obj
 0001:00060838       _fputc_nolock              0000000140061838 f   libucrt:fputc.obj
 0001:00060910       _fputc_nolock_internal     0000000140061910 f   libucrt:fputc.obj
 0001:0006092c       _fputchar                  000000014006192c f   libucrt:fputc.obj
 0001:00060958       _putc_nolock               0000000140061958 f   libucrt:fputc.obj
 0001:00060960       fputc                      0000000140061960 f   libucrt:fputc.obj
 0001:00060a20       putc                       0000000140061a20 f   libucrt:fputc.obj
 0001:00060a28       putchar                    0000000140061a28 f   libucrt:fputc.obj
 0001:00060a30       ?has_temporary_buffer@__crt_stdio_stream@@QEBA_NXZ 0000000140061a30 f i libucrt:_sftbuf.obj
 0001:00060a40       __acrt_should_use_temporary_buffer 0000000140061a40 f   libucrt:_sftbuf.obj
 0001:00060a98       __acrt_stdio_begin_temporary_buffering_nolock 0000000140061a98 f   libucrt:_sftbuf.obj
 0001:00060b94       __acrt_stdio_end_temporary_buffering_nolock 0000000140061b94 f   libucrt:_sftbuf.obj
 0001:00060d10       wcsncpy_s                  0000000140061d10 f   libucrt:wcsncpy_s.obj
 0001:00060e7c       ??$__acrt_convert_wcs_mbs_cp@D_WV<lambda_7c9dea7b4ca7285d2cdb541a38da6275>@@U__crt_win32_buffer_internal_dynamic_resizing@@@@YAHQEBDAEAV?$__crt_win32_buffer@_WU__crt_win32_buffer_internal_dynamic_resizing@@@@AEBV<lambda_7c9dea7b4ca7285d2cdb541a38da6275>@@I@Z 0000000140061e7c f i libucrt:argv_wildcards.obj
 0001:00061054       ??$__acrt_convert_wcs_mbs_cp@_WDV<lambda_d8593a27d1aa8c02be35c86a17d324c4>@@U__crt_win32_buffer_internal_dynamic_resizing@@@@YAHQEB_WAEAV?$__crt_win32_buffer@DU__crt_win32_buffer_internal_dynamic_resizing@@@@AEBV<lambda_d8593a27d1aa8c02be35c86a17d324c4>@@I@Z 0000000140062054 f i libucrt:argv_wildcards.obj
 0001:00061244       ??$__acrt_mbs_to_wcs_cp@U__crt_win32_buffer_internal_dynamic_resizing@@@@YAHQEBDAEAV?$__crt_win32_buffer@_WU__crt_win32_buffer_internal_dynamic_resizing@@@@I@Z 0000000140062244 f i libucrt:argv_wildcards.obj
 0001:00061254       ??$__acrt_wcs_to_mbs_cp@U__crt_win32_buffer_internal_dynamic_resizing@@@@YAHQEB_WAEAV?$__crt_win32_buffer@DU__crt_win32_buffer_internal_dynamic_resizing@@@@I@Z 0000000140062254 f i libucrt:argv_wildcards.obj
 0001:00062408       ??$tcsncpy_s@AEAPEAD_KAEAPEADAEB_K@?$__crt_char_traits@D@@SAHAEAPEAD$$QEA_K0AEB_K@Z 0000000140063408 f i libucrt:argv_wildcards.obj
 0001:00062420       ??$tcsncpy_s@AEAPEA_W_KAEAPEA_WAEB_K@?$__crt_char_traits@_W@@SAHAEAPEA_W$$QEA_K0AEB_K@Z 0000000140063420 f i libucrt:argv_wildcards.obj
 0001:00062438       ??$tcsncpy_s@PEADAEB_KAEBQEBDAEB_K@?$__crt_char_traits@D@@SAH$$QEAPEADAEB_KAEBQEBD1@Z 0000000140063438 f i libucrt:argv_wildcards.obj
 0001:00062450       ??$tcsncpy_s@PEAD_KAEBQEBDAEB_K@?$__crt_char_traits@D@@SAH$$QEAPEAD$$QEA_KAEBQEBDAEB_K@Z 0000000140063450 f i libucrt:argv_wildcards.obj
 0001:00062468       ??$tcsncpy_s@PEA_WAEB_KAEBQEB_WAEB_K@?$__crt_char_traits@_W@@SAH$$QEAPEA_WAEB_KAEBQEB_W1@Z 0000000140063468 f i libucrt:argv_wildcards.obj
 0001:00062480       ??$tcsncpy_s@PEA_W_KAEBQEB_WAEB_K@?$__crt_char_traits@_W@@SAH$$QEAPEA_W$$QEA_KAEBQEB_WAEB_K@Z 0000000140063480 f i libucrt:argv_wildcards.obj
 0001:00062498       ??$tcspbrk@AEAPEADAEAY02$$CBD@?$__crt_char_traits@D@@SAPEADAEAPEADAEAY02$$CBD@Z 0000000140063498 f i libucrt:argv_wildcards.obj
 0001:000624a4       ??$tcspbrk@AEAPEA_WAEAY02$$CB_W@?$__crt_char_traits@_W@@SAPEA_WAEAPEA_WAEAY02$$CB_W@Z 00000001400634a4 f i libucrt:argv_wildcards.obj
 0001:000624b0       ??0?$__crt_unique_handle_t@U__crt_findfile_traits@@@@QEAA@QEAX@Z 00000001400634b0 f i libucrt:argv_wildcards.obj
 0001:000624b8       ??0?$__crt_win32_buffer@DU__crt_win32_buffer_internal_dynamic_resizing@@@@QEAA@XZ 00000001400634b8 f i libucrt:argv_wildcards.obj
 0001:000624dc       ??0?$__crt_win32_buffer@_WU__crt_win32_buffer_internal_dynamic_resizing@@@@QEAA@XZ 00000001400634dc f i libucrt:argv_wildcards.obj
 0001:00062530       ??1?$__crt_unique_handle_t@U__crt_findfile_traits@@@@QEAA@XZ 0000000140063530 f i libucrt:argv_wildcards.obj
 0001:0006255c       ??1?$__crt_win32_buffer@DU__crt_win32_buffer_internal_dynamic_resizing@@@@QEAA@XZ 000000014006355c f i libucrt:argv_wildcards.obj
 0001:00062588       ??1?$__crt_win32_buffer@_WU__crt_win32_buffer_internal_dynamic_resizing@@@@QEAA@XZ 0000000140063588 f i libucrt:argv_wildcards.obj
 0001:00062664       ??R<lambda_7c9dea7b4ca7285d2cdb541a38da6275>@@QEBAHIQEBDQEA_W_K@Z 0000000140063664 f i libucrt:argv_wildcards.obj
 0001:00062714       ??R<lambda_d8593a27d1aa8c02be35c86a17d324c4>@@QEBAHIQEB_WQEAD_K@Z 0000000140063714 f i libucrt:argv_wildcards.obj
 0001:00062750       ?_deallocate@?$__crt_win32_buffer@DU__crt_win32_buffer_internal_dynamic_resizing@@@@AEAAXXZ 0000000140063750 f i libucrt:argv_wildcards.obj
 0001:0006277c       ?_deallocate@?$__crt_win32_buffer@_WU__crt_win32_buffer_internal_dynamic_resizing@@@@AEAAXXZ 000000014006377c f i libucrt:argv_wildcards.obj
 0001:000627a8       ?allocate@?$__crt_win32_buffer@DU__crt_win32_buffer_internal_dynamic_resizing@@@@QEAAH_K@Z 00000001400637a8 f i libucrt:argv_wildcards.obj
 0001:00062814       ?allocate@?$__crt_win32_buffer@_WU__crt_win32_buffer_internal_dynamic_resizing@@@@QEAAH_K@Z 0000000140063814 f i libucrt:argv_wildcards.obj
 0001:00062884       ?allocate@__crt_win32_buffer_internal_dynamic_resizing@@SAHQEAPEAX_KAEBV__crt_win32_buffer_empty_debug_info@@@Z 0000000140063884 f i libucrt:argv_wildcards.obj
 0001:00062aec       ?capacity@?$__crt_win32_buffer@DU__crt_win32_buffer_internal_dynamic_resizing@@@@QEBA_KXZ 0000000140063aec f i libucrt:argv_wildcards.obj
 0001:00062af4       ?capacity@?$__crt_win32_buffer@_WU__crt_win32_buffer_internal_dynamic_resizing@@@@QEBA_KXZ 0000000140063af4 f i libucrt:argv_wildcards.obj
 0001:00062afc       ?close@?$__crt_unique_handle_t@U__crt_findfile_traits@@@@QEAAXXZ 0000000140063afc f i libucrt:argv_wildcards.obj
 0001:00062b28       ?close@__crt_findfile_traits@@SA_NPEAX@Z 0000000140063b28 f i libucrt:argv_wildcards.obj
 0001:00062b44       ?data@?$__crt_win32_buffer@DU__crt_win32_buffer_internal_dynamic_resizing@@@@QEAAPEADXZ 0000000140063b44 f i libucrt:argv_wildcards.obj
 0001:00062b4c       ?data@?$__crt_win32_buffer@_WU__crt_win32_buffer_internal_dynamic_resizing@@@@QEAAPEA_WXZ 0000000140063b4c f i libucrt:argv_wildcards.obj
 0001:00062b54       ?deallocate@__crt_win32_buffer_internal_dynamic_resizing@@SAXQEAXAEBV__crt_win32_buffer_empty_debug_info@@@Z 0000000140063b54 f i libucrt:argv_wildcards.obj
 0001:00062b5c       ?debug_info@?$__crt_win32_buffer@DU__crt_win32_buffer_internal_dynamic_resizing@@@@QEBAAEBV__crt_win32_buffer_empty_debug_info@@XZ 0000000140063b5c f i libucrt:argv_wildcards.obj
 0001:00062b60       ?debug_info@?$__crt_win32_buffer@_WU__crt_win32_buffer_internal_dynamic_resizing@@@@QEBAAEBV__crt_win32_buffer_empty_debug_info@@XZ 0000000140063b60 f i libucrt:argv_wildcards.obj
 0001:00062d64       ?get@?$__crt_unique_handle_t@U__crt_findfile_traits@@@@QEBAPEAXXZ 0000000140063d64 f i libucrt:argv_wildcards.obj
 0001:00062e38       ?get_invalid_value@__crt_findfile_traits@@SAPEAXXZ 0000000140063e38 f i libucrt:argv_wildcards.obj
 0001:00062f20       ?set_to_nullptr@?$__crt_win32_buffer@DU__crt_win32_buffer_internal_dynamic_resizing@@@@QEAAXXZ 0000000140063f20 f i libucrt:argv_wildcards.obj
 0001:00062f60       ?set_to_nullptr@?$__crt_win32_buffer@_WU__crt_win32_buffer_internal_dynamic_resizing@@@@QEAAXXZ 0000000140063f60 f i libucrt:argv_wildcards.obj
 0001:00062fa0       ?size@?$__crt_win32_buffer@DU__crt_win32_buffer_internal_dynamic_resizing@@@@QEAAX_K@Z 0000000140063fa0 f i libucrt:argv_wildcards.obj
 0001:00062fa8       ?size@?$__crt_win32_buffer@_WU__crt_win32_buffer_internal_dynamic_resizing@@@@QEAAX_K@Z 0000000140063fa8 f i libucrt:argv_wildcards.obj
 0001:00062fd0       ?strpbrk@@YAPEADQEADQEBD@Z 0000000140063fd0 f i libucrt:argv_wildcards.obj
 0001:00062fd8       ?wcspbrk@@YAPEA_WPEA_WPEB_W@Z 0000000140063fd8 f i libucrt:argv_wildcards.obj
 0001:00062fe0       __acrt_expand_narrow_argv_wildcards 0000000140063fe0 f   libucrt:argv_wildcards.obj
 0001:00062fe8       __acrt_expand_wide_argv_wildcards 0000000140063fe8 f   libucrt:argv_wildcards.obj
 0001:00063264       ??$initialize_from_array@$$BY10BAA@E@?$dual_state_global@PEAE@__crt_state_management@@QEAAXAEAY10BAA@E@Z 0000000140064264 f i libucrt:mbctype.obj
 0001:00063268       ??$initialize_from_array@$$BY10BAB@E@?$dual_state_global@PEAE@__crt_state_management@@QEAAXAEAY10BAB@E@Z 0000000140064268 f i libucrt:mbctype.obj
 0001:000634f4       ?dangerous_get_state_array@?$dual_state_global@PEAE@__crt_state_management@@QEAAPEAPEAEXZ 00000001400644f4 f i libucrt:mbctype.obj
 0001:000634f8       ?dangerous_get_state_array@?$dual_state_global@PEAU__crt_multibyte_data@@@__crt_state_management@@QEAAPEAPEAU__crt_multibyte_data@@XZ 00000001400644f8 f i libucrt:mbctype.obj
 0001:00063598       ?initialize@?$dual_state_global@PEAU__crt_multibyte_data@@@__crt_state_management@@QEAAXQEAU__crt_multibyte_data@@@Z 0000000140064598 f i libucrt:mbctype.obj
 0001:00063cbc       ?value@?$dual_state_global@PEAE@__crt_state_management@@QEAAAEAPEAEXZ 0000000140064cbc f i libucrt:mbctype.obj
 0001:00063cc0       __acrt_initialize_multibyte 0000000140064cc0 f   libucrt:mbctype.obj
 0001:00063d38       __acrt_update_thread_multibyte_data 0000000140064d38 f   libucrt:mbctype.obj
 0001:00063d5c       __p__mbcasemap             0000000140064d5c f   libucrt:mbctype.obj
 0001:00063d68       __p__mbctype               0000000140064d68 f   libucrt:mbctype.obj
 0001:00063d74       _getmbcp                   0000000140064d74 f   libucrt:mbctype.obj
 0001:00063dbc       _setmbcp                   0000000140064dbc f   libucrt:mbctype.obj
 0001:00063dec       _setmbcp_nolock            0000000140064dec f   libucrt:mbctype.obj
 0001:00064290       _ismbbalnum                0000000140065290 f   libucrt:ismbbyte.obj
 0001:000642ac       _ismbbalnum_l              00000001400652ac f   libucrt:ismbbyte.obj
 0001:000642cc       _ismbbalpha                00000001400652cc f   libucrt:ismbbyte.obj
 0001:000642e8       _ismbbalpha_l              00000001400652e8 f   libucrt:ismbbyte.obj
 0001:00064308       _ismbbblank                0000000140065308 f   libucrt:ismbbyte.obj
 0001:0006432c       _ismbbblank_l              000000014006532c f   libucrt:ismbbyte.obj
 0001:00064354       _ismbbgraph                0000000140065354 f   libucrt:ismbbyte.obj
 0001:00064370       _ismbbgraph_l              0000000140065370 f   libucrt:ismbbyte.obj
 0001:00064390       _ismbbkalnum               0000000140065390 f   libucrt:ismbbyte.obj
 0001:000643a8       _ismbbkalnum_l             00000001400653a8 f   libucrt:ismbbyte.obj
 0001:000643c4       _ismbbkana                 00000001400653c4 f   libucrt:ismbbyte.obj
 0001:000643cc       _ismbbkana_l               00000001400653cc f   libucrt:ismbbyte.obj
 0001:0006444c       _ismbbkprint               000000014006544c f   libucrt:ismbbyte.obj
 0001:00064464       _ismbbkprint_l             0000000140065464 f   libucrt:ismbbyte.obj
 0001:00064480       _ismbbkpunct               0000000140065480 f   libucrt:ismbbyte.obj
 0001:00064498       _ismbbkpunct_l             0000000140065498 f   libucrt:ismbbyte.obj
 0001:000644b4       _ismbblead                 00000001400654b4 f   libucrt:ismbbyte.obj
 0001:000644cc       _ismbblead_l               00000001400654cc f   libucrt:ismbbyte.obj
 0001:000644e8       _ismbbprint                00000001400654e8 f   libucrt:ismbbyte.obj
 0001:00064504       _ismbbprint_l              0000000140065504 f   libucrt:ismbbyte.obj
 0001:00064524       _ismbbpunct                0000000140065524 f   libucrt:ismbbyte.obj
 0001:0006453c       _ismbbpunct_l              000000014006553c f   libucrt:ismbbyte.obj
 0001:00064558       _ismbbtrail                0000000140065558 f   libucrt:ismbbyte.obj
 0001:00064570       _ismbbtrail_l              0000000140065570 f   libucrt:ismbbyte.obj
 0001:000645f8       __acrt_MultiByteToWideChar 00000001400655f8 f   libucrt:multibytetowidechar.obj
 0001:000646c0       __acrt_WideCharToMultiByte 00000001400656c0 f   libucrt:widechartomultibyte.obj
 0001:0006485c       __dcrt_get_narrow_environment_from_os 000000014006585c f   libucrt:get_environment_from_os.obj
 0001:000649b0       __dcrt_get_wide_environment_from_os 00000001400659b0 f   libucrt:get_environment_from_os.obj
 0001:000656e8       ??$get_or_create_environment_nolock@$$V@?$__crt_char_traits@D@@SAPEAPEADXZ 00000001400666e8 f i libucrt:setenv.obj
 0001:000656f0       ??$get_or_create_environment_nolock@$$V@?$__crt_char_traits@_W@@SAPEAPEA_WXZ 00000001400666f0 f i libucrt:setenv.obj
 0001:000656f8       ??$set_environment_variable@AEBQEADQEAD@?$__crt_char_traits@D@@SAHAEBQEAD$$QEBQEAD@Z 00000001400666f8 f i libucrt:setenv.obj
 0001:00065708       ??$set_environment_variable@AEBQEA_WQEA_W@?$__crt_char_traits@_W@@SAHAEBQEA_W$$QEBQEA_W@Z 0000000140066708 f i libucrt:setenv.obj
 0001:00065718       ??$tcschr@AEBQEADD@?$__crt_char_traits@D@@SAPEADAEBQEAD$$QEAD@Z 0000000140066718 f i libucrt:setenv.obj
 0001:00065728       ??$tcschr@AEBQEA_WD@?$__crt_char_traits@_W@@SAPEA_WAEBQEA_W$$QEAD@Z 0000000140066728 f i libucrt:setenv.obj
 0001:00065738       ??$tcscpy_s@AEAPEADAEB_KAEAPEAD@?$__crt_char_traits@D@@SAHAEAPEADAEB_K0@Z 0000000140066738 f i libucrt:setenv.obj
 0001:0006574c       ??$tcscpy_s@AEAPEA_WAEB_KAEAPEA_W@?$__crt_char_traits@_W@@SAHAEAPEA_WAEB_K0@Z 000000014006674c f i libucrt:setenv.obj
 0001:00065760       ??$tcscpy_s@AEBQEADAEB_KAEBQEAD@?$__crt_char_traits@D@@SAHAEBQEADAEB_K0@Z 0000000140066760 f i libucrt:setenv.obj
 0001:00065774       ??$tcscpy_s@AEBQEA_WAEB_KAEBQEA_W@?$__crt_char_traits@_W@@SAHAEBQEA_WAEB_K0@Z 0000000140066774 f i libucrt:setenv.obj
 0001:00065788       ??$tcsnicoll@AEBQEBDAEAPEADAEB_K@?$__crt_char_traits@D@@SAHAEBQEBDAEAPEADAEB_K@Z 0000000140066788 f i libucrt:setenv.obj
 0001:0006579c       ??$tcsnicoll@AEBQEB_WAEAPEA_WAEB_K@?$__crt_char_traits@_W@@SAHAEBQEB_WAEAPEA_WAEB_K@Z 000000014006679c f i libucrt:setenv.obj
 0001:000657f8       ?strchr@@YAPEADQEADH@Z     00000001400667f8 f i libucrt:setenv.obj
 0001:00065800       ?wcschr@@YAPEA_WPEA_W_W@Z  0000000140066800 f i libucrt:setenv.obj
 0001:00065808       __dcrt_set_variable_in_narrow_environment_nolock 0000000140066808 f   libucrt:setenv.obj
 0001:00065810       __dcrt_set_variable_in_wide_environment_nolock 0000000140066810 f   libucrt:setenv.obj
 0001:00065818       __acrt_initialize_locks    0000000140066818 f   libucrt:locks.obj
 0001:00065874       __acrt_lock                0000000140066874 f   libucrt:locks.obj
 0001:00065894       __acrt_uninitialize_locks  0000000140066894 f   libucrt:locks.obj
 0001:000658d8       __acrt_unlock              00000001400668d8 f   libucrt:locks.obj
 0001:000658f8       _lock_locales              00000001400668f8 f   libucrt:locks.obj
 0001:0006591c       _unlock_locales            000000014006691c f   libucrt:locks.obj
 0001:00065b38       __acrt_get_begin_thread_init_policy 0000000140066b38 f   libucrt:win_policies.obj
 0001:00065ba0       __acrt_get_developer_information_policy 0000000140066ba0 f   libucrt:win_policies.obj
 0001:00065c08       __acrt_get_process_end_policy 0000000140066c08 f   libucrt:win_policies.obj
 0001:00065c54       __acrt_get_windowing_model_policy 0000000140066c54 f   libucrt:win_policies.obj
 0001:00065cdc       ??$?RU__crt_lowio_handle_data@@@__crt_internal_free_policy@@QEBAXQEBU__crt_lowio_handle_data@@@Z 0000000140066cdc f i libucrt:osfinfo.obj
 0001:00065ce8       ??0?$__crt_unique_heap_ptr@U__crt_lowio_handle_data@@U__crt_internal_free_policy@@@@QEAA@QEAU__crt_lowio_handle_data@@@Z 0000000140066ce8 f i libucrt:osfinfo.obj
 0001:00065cf0       ??1?$__crt_unique_heap_ptr@U__crt_lowio_handle_data@@U__crt_internal_free_policy@@@@QEAA@XZ 0000000140066cf0 f i libucrt:osfinfo.obj
 0001:00065d14       ??B?$__crt_unique_heap_ptr@U__crt_lowio_handle_data@@U__crt_internal_free_policy@@@@QEBA_NXZ 0000000140066d14 f i libucrt:osfinfo.obj
 0001:00065d20       ?detach@?$__crt_unique_heap_ptr@U__crt_lowio_handle_data@@U__crt_internal_free_policy@@@@QEAAPEAU__crt_lowio_handle_data@@XZ 0000000140066d20 f i libucrt:osfinfo.obj
 0001:00065d2c       ?get@?$__crt_unique_heap_ptr@U__crt_lowio_handle_data@@U__crt_internal_free_policy@@@@QEBAPEAU__crt_lowio_handle_data@@XZ 0000000140066d2c f i libucrt:osfinfo.obj
 0001:00065d30       ?is_valid@?$__crt_unique_heap_ptr@U__crt_lowio_handle_data@@U__crt_internal_free_policy@@@@QEBA_NXZ 0000000140066d30 f i libucrt:osfinfo.obj
 0001:00065d3c       ?release@?$__crt_unique_heap_ptr@U__crt_lowio_handle_data@@U__crt_internal_free_policy@@@@QEAAXXZ 0000000140066d3c f i libucrt:osfinfo.obj
 0001:00065d60       __acrt_lowio_create_handle_array 0000000140066d60 f   libucrt:osfinfo.obj
 0001:00065e30       __acrt_lowio_destroy_handle_array 0000000140066e30 f   libucrt:osfinfo.obj
 0001:00065e94       __acrt_lowio_ensure_fh_exists 0000000140066e94 f   libucrt:osfinfo.obj
 0001:00065f68       __acrt_lowio_lock_fh       0000000140066f68 f   libucrt:osfinfo.obj
 0001:00065f98       __acrt_lowio_set_os_handle 0000000140066f98 f   libucrt:osfinfo.obj
 0001:00066088       __acrt_lowio_unlock_fh     0000000140067088 f   libucrt:osfinfo.obj
 0001:000660b8       _alloc_osfhnd              00000001400670b8 f   libucrt:osfinfo.obj
 0001:00066248       _free_osfhnd               0000000140067248 f   libucrt:osfinfo.obj
 0001:00066330       _get_osfhandle             0000000140067330 f   libucrt:osfinfo.obj
 0001:000663c4       _open_osfhandle            00000001400673c4 f   libucrt:osfinfo.obj
 0001:00066508       ?dangerous_get_state_array@?$dual_state_global@H@__crt_state_management@@QEAAPEAHXZ 0000000140067508 f i libucrt:txtmode.obj
 0001:0006650c       __acrt_initialize_fmode    000000014006750c f   libucrt:txtmode.obj
 0001:0006652c       __p__fmode                 000000014006752c f   libucrt:txtmode.obj
 0001:00066538       ??$?RG@__crt_internal_free_policy@@QEBAXQEBG@Z 0000000140067538 f i libucrt:initctype.obj
 0001:00066544       ??$?RJ@__crt_internal_free_policy@@QEBAXQEBJ@Z 0000000140067544 f i libucrt:initctype.obj
 0001:00066550       ??0?$__crt_unique_heap_ptr@GU__crt_internal_free_policy@@@@QEAA@QEAG@Z 0000000140067550 f i libucrt:initctype.obj
 0001:00066558       ??0?$__crt_unique_heap_ptr@JU__crt_internal_free_policy@@@@QEAA@QEAJ@Z 0000000140067558 f i libucrt:initctype.obj
 0001:00066560       ??1?$__crt_unique_heap_ptr@GU__crt_internal_free_policy@@@@QEAA@XZ 0000000140067560 f i libucrt:initctype.obj
 0001:00066584       ??1?$__crt_unique_heap_ptr@JU__crt_internal_free_policy@@@@QEAA@XZ 0000000140067584 f i libucrt:initctype.obj
 0001:000665a8       ?detach@?$__crt_unique_heap_ptr@GU__crt_internal_free_policy@@@@QEAAPEAGXZ 00000001400675a8 f i libucrt:initctype.obj
 0001:000665b4       ?detach@?$__crt_unique_heap_ptr@JU__crt_internal_free_policy@@@@QEAAPEAJXZ 00000001400675b4 f i libucrt:initctype.obj
 0001:000665c0       ?release@?$__crt_unique_heap_ptr@GU__crt_internal_free_policy@@@@QEAAXXZ 00000001400675c0 f i libucrt:initctype.obj
 0001:000665e4       ?release@?$__crt_unique_heap_ptr@JU__crt_internal_free_policy@@@@QEAAXXZ 00000001400675e4 f i libucrt:initctype.obj
 0001:00066608       ___lc_codepage_func        0000000140067608 f   libucrt:initctype.obj
 0001:00066644       ___lc_collate_cp_func      0000000140067644 f   libucrt:initctype.obj
 0001:00066680       ___lc_locale_name_func     0000000140067680 f   libucrt:initctype.obj
 0001:000666c0       ___mb_cur_max_func         00000001400676c0 f   libucrt:initctype.obj
 0001:000666fc       ___mb_cur_max_l_func       00000001400676fc f   libucrt:initctype.obj
 0001:00066710       __acrt_locale_initialize_ctype 0000000140067710 f   libucrt:initctype.obj
 0001:00066f0c       ??$?RUlconv@@@__crt_internal_free_policy@@QEBAXQEBUlconv@@@Z 0000000140067f0c f i libucrt:initmon.obj
 0001:00066f18       ??0?$__crt_unique_heap_ptr@Ulconv@@U__crt_internal_free_policy@@@@QEAA@QEAUlconv@@@Z 0000000140067f18 f i libucrt:initmon.obj
 0001:00066f20       ??1?$__crt_unique_heap_ptr@Ulconv@@U__crt_internal_free_policy@@@@QEAA@XZ 0000000140067f20 f i libucrt:initmon.obj
 0001:00066f44       ?detach@?$__crt_unique_heap_ptr@Ulconv@@U__crt_internal_free_policy@@@@QEAAPEAUlconv@@XZ 0000000140067f44 f i libucrt:initmon.obj
 0001:00066f50       ?release@?$__crt_unique_heap_ptr@Ulconv@@U__crt_internal_free_policy@@@@QEAAXXZ 0000000140067f50 f i libucrt:initmon.obj
 0001:00066f74       __acrt_locale_free_monetary 0000000140067f74 f   libucrt:initmon.obj
 0001:000670c0       __acrt_locale_initialize_monetary 00000001400680c0 f   libucrt:initmon.obj
 0001:00067780       __acrt_locale_free_numeric 0000000140068780 f   libucrt:initnum.obj
 0001:00067808       __acrt_locale_initialize_numeric 0000000140068808 f   libucrt:initnum.obj
 0001:00067be4       ??$?RU__crt_lc_time_data@@@__crt_internal_free_policy@@QEBAXQEBU__crt_lc_time_data@@@Z 0000000140068be4 f i libucrt:inittime.obj
 0001:00067c38       ??0?$__crt_unique_heap_ptr@U__crt_lc_time_data@@U__crt_internal_free_policy@@@@QEAA@QEAU__crt_lc_time_data@@@Z 0000000140068c38 f i libucrt:inittime.obj
 0001:00067c40       ??1?$__crt_unique_heap_ptr@U__crt_lc_time_data@@U__crt_internal_free_policy@@@@QEAA@XZ 0000000140068c40 f i libucrt:inittime.obj
 0001:00067c64       ??B?$__crt_unique_heap_ptr@U__crt_lc_time_data@@U__crt_internal_free_policy@@@@QEBA_NXZ 0000000140068c64 f i libucrt:inittime.obj
 0001:00067c70       ?detach@?$__crt_unique_heap_ptr@U__crt_lc_time_data@@U__crt_internal_free_policy@@@@QEAAPEAU__crt_lc_time_data@@XZ 0000000140068c70 f i libucrt:inittime.obj
 0001:00067cbc       ?get@?$__crt_unique_heap_ptr@U__crt_lc_time_data@@U__crt_internal_free_policy@@@@QEBAPEAU__crt_lc_time_data@@XZ 0000000140068cbc f i libucrt:inittime.obj
 0001:0006816c       ?is_valid@?$__crt_unique_heap_ptr@U__crt_lc_time_data@@U__crt_internal_free_policy@@@@QEBA_NXZ 000000014006916c f i libucrt:inittime.obj
 0001:00068178       ?release@?$__crt_unique_heap_ptr@U__crt_lc_time_data@@U__crt_internal_free_policy@@@@QEAAXXZ 0000000140069178 f i libucrt:inittime.obj
 0001:0006819c       __acrt_locale_free_time    000000014006919c f   libucrt:inittime.obj
 0001:000682e8       __acrt_locale_initialize_time 00000001400692e8 f   libucrt:inittime.obj
 0001:000683ac       wcscspn                    00000001400693ac f   libucrt:wcscspn.obj
 0001:000683fc       wcspbrk                    00000001400693fc f   libucrt:wcspbrk.obj
 0001:00068440       ??0?$__crt_scoped_stack_ptr@_W@@QEAA@U?$__crt_scoped_stack_ptr_tag@_W@@@Z 0000000140069440 f i libucrt:getstringtypea.obj
 0001:00068448       ??0?$__crt_scoped_stack_ptr_tag@_W@@QEAA@QEA_W@Z 0000000140069448 f i libucrt:getstringtypea.obj
 0001:00068450       ??1?$__crt_scoped_stack_ptr@_W@@QEAA@XZ 0000000140069450 f i libucrt:getstringtypea.obj
 0001:0006847c       ?get@?$__crt_scoped_stack_ptr@_W@@QEBAPEA_WXZ 000000014006947c f i libucrt:getstringtypea.obj
 0001:00068480       _MallocaComputeSize        0000000140069480 f i libucrt:getstringtypea.obj
 0001:00068494       _MarkAllocaS               0000000140069494 f i libucrt:getstringtypea.obj
 0001:000684a8       __acrt_GetStringTypeA      00000001400694a8 f   libucrt:getstringtypea.obj
 0001:000686a8       _freea_crt                 00000001400696a8 f i libucrt:getstringtypea.obj
 0001:000686d0       __acrt_add_locale_ref      00000001400696d0 f   libucrt:locale_refcounting.obj
 0001:00068780       __acrt_free_locale         0000000140069780 f   libucrt:locale_refcounting.obj
 0001:00068954       __acrt_locale_add_lc_time_reference 0000000140069954 f   libucrt:locale_refcounting.obj
 0001:00068984       __acrt_locale_free_lc_time_if_unreferenced 0000000140069984 f   libucrt:locale_refcounting.obj
 0001:000689c8       __acrt_locale_release_lc_time_reference 00000001400699c8 f   libucrt:locale_refcounting.obj
 0001:000689f8       __acrt_release_locale_ref  00000001400699f8 f   libucrt:locale_refcounting.obj
 0001:00068acc       __acrt_update_thread_locale_data 0000000140069acc f   libucrt:locale_refcounting.obj
 0001:00068b58       _updatetlocinfoEx_nolock   0000000140069b58 f   libucrt:locale_refcounting.obj
 0001:0006963c       __acrt_get_qualified_locale 000000014006a63c f   libucrt:get_qualified_locale.obj
 0001:0006a3fc       __acrt_get_qualified_locale_downlevel 000000014006b3fc f   libucrt:getqloc_downlevel.obj
 0001:0006a71c       localeconv                 000000014006b71c f   libucrt:localeconv.obj
 0001:0006a75c       _recalloc                  000000014006b75c f   libucrt:recalloc.obj
 0001:0006a764       _recalloc_base             000000014006b764 f   libucrt:recalloc.obj
 0001:0006a820       __acrt_getheap             000000014006b820 f   libucrt:heap_handle.obj
 0001:0006a82c       __acrt_initialize_heap     000000014006b82c f   libucrt:heap_handle.obj
 0001:0006a850       __acrt_uninitialize_heap   000000014006b850 f   libucrt:heap_handle.obj
 0001:0006a860       _get_heap_handle           000000014006b860 f   libucrt:heap_handle.obj
 0001:0006a86c       __acrt_execute_initializers 000000014006b86c f   libucrt:shared_initialization.obj
 0001:0006a928       __acrt_execute_uninitializers 000000014006b928 f   libucrt:shared_initialization.obj
 0001:0006a980       ??$?B$$A6AH_K@Z@__crt_fast_encoded_nullptr_t@@QEBAP6AH_K@ZXZ 000000014006b980 f i libucrt:new_handler.obj
 0001:0006a98c       ??$__crt_fast_decode_pointer@P6AH_K@Z@@YAP6AH_K@ZQ6AH0@Z@Z 000000014006b98c f i libucrt:new_handler.obj
 0001:0006a9a8       ??$__crt_fast_encode_pointer@P6AH_K@Z@@YAP6AH_K@ZQ6AH0@Z@Z 000000014006b9a8 f i libucrt:new_handler.obj
 0001:0006a9d0       ?_set_new_handler@@YAP6AH_K@ZH@Z 000000014006b9d0 f   libucrt:new_handler.obj
 0001:0006a9e0       ?initialize@?$dual_state_global@P6AH_K@Z@__crt_state_management@@QEAAXQ6AH_K@Z@Z 000000014006b9e0 f i libucrt:new_handler.obj
 0001:0006a9f0       ?value@?$dual_state_global@P6AH_K@Z@__crt_state_management@@QEAAAEAP6AH_K@ZXZ 000000014006b9f0 f i libucrt:new_handler.obj
 0001:0006a9f4       __acrt_initialize_new_handler 000000014006b9f4 f   libucrt:new_handler.obj
 0001:0006aa00       _callnewh                  000000014006ba00 f   libucrt:new_handler.obj
 0001:0006aa48       _query_new_handler         000000014006ba48 f   libucrt:new_handler.obj
 0001:0006aa8c       _set_new_handler           000000014006ba8c f   libucrt:new_handler.obj
 0001:0006aafc       __acrt_GetStringTypeW      000000014006bafc f   libucrt:getstringtypew.obj
 0001:0006ab04       __acrt_OutputDebugStringA  000000014006bb04 f   libucrt:outputdebugstringa.obj
 0001:0006ad58       _commit                    000000014006bd58 f   libucrt:commit.obj
 0001:0006ba3c       _utf8_no_of_trailbytes     000000014006ca3c f i libucrt:write.obj
 0001:0006ba50       _write                     000000014006ca50 f   libucrt:write.obj
 0001:0006bb10       _write_internal            000000014006cb10 f   libucrt:write.obj
 0001:0006bc80       _write_nolock              000000014006cc80 f   libucrt:write.obj
 0001:0006c15c       __acrt_DownlevelLCIDToLocaleName 000000014006d15c f   libucrt:lcidtoname_downlevel.obj
 0001:0006c27c       __acrt_DownlevelLocaleNameToLCID 000000014006d27c f   libucrt:lcidtoname_downlevel.obj
 0001:0006c4b8       _fclose_nolock             000000014006d4b8 f   libucrt:fclose.obj
 0001:0006c578       fclose                     000000014006d578 f   libucrt:fclose.obj
 0001:0006c730       __acrt_fp_strflt_to_string 000000014006d730 f   libucrt:_fptostr.obj
 0001:0006dea0       ??0big_integer@__crt_strtox@@QEAA@AEBU01@@Z 000000014006eea0 f i libucrt:cfout.obj
 0001:0006dee0       ??0big_integer@__crt_strtox@@QEAA@XZ 000000014006eee0 f i libucrt:cfout.obj
 0001:0006df50       ??4big_integer@__crt_strtox@@QEAAAEAU01@AEBU01@@Z 000000014006ef50 f i libucrt:cfout.obj
 0001:0006df90       ??8__crt_strtox@@YA_NAEBUbig_integer@0@0@Z 000000014006ef90 f i libucrt:cfout.obj
 0001:0006dfd0       ??9__crt_strtox@@YA_NAEBUbig_integer@0@0@Z 000000014006efd0 f i libucrt:cfout.obj
 0001:0006e020       ?add_carry@__crt_strtox@@YAIAEAIII@Z 000000014006f020 f i libucrt:cfout.obj
 0001:0006e040       ?add_multiply_carry@__crt_strtox@@YAIAEAIIII@Z 000000014006f040 f i libucrt:cfout.obj
 0001:0006e070       ?bit_scan_reverse@__crt_strtox@@YAII@Z 000000014006f070 f i libucrt:cfout.obj
 0001:0006e090       ?count_sequential_high_zeroes@__crt_strtox@@YAII@Z 000000014006f090 f i libucrt:cfout.obj
 0001:0006e0b0       ?divide@__crt_strtox@@YA_KAEAUbig_integer@1@AEBU21@@Z 000000014006f0b0 f i libucrt:cfout.obj
 0001:0006e660       ?is_zero@__crt_strtox@@YA_NAEBUbig_integer@1@@Z 000000014006f660 f i libucrt:cfout.obj
 0001:0006e670       ?make_big_integer@__crt_strtox@@YA?AUbig_integer@1@_K@Z 000000014006f670 f i libucrt:cfout.obj
 0001:0006e690       ?make_big_integer_power_of_two@__crt_strtox@@YA?AUbig_integer@1@I@Z 000000014006f690 f i libucrt:cfout.obj
 0001:0006e710       ?multiply@__crt_strtox@@YA_NAEAUbig_integer@1@AEBU21@@Z 000000014006f710 f i libucrt:cfout.obj
 0001:0006ebb0       ?multiply@__crt_strtox@@YA_NAEAUbig_integer@1@I@Z 000000014006fbb0 f i libucrt:cfout.obj
 0001:0006ece0       ?multiply_64_32@__crt_strtox@@YA_K_KI@Z 000000014006fce0 f i libucrt:cfout.obj
 0001:0006ecf0       ?multiply_by_power_of_ten@__crt_strtox@@YA_NAEAUbig_integer@1@I@Z 000000014006fcf0 f i libucrt:cfout.obj
 0001:0006f3e0       ?multiply_core@__crt_strtox@@YAIQEAIII@Z 00000001400703e0 f i libucrt:cfout.obj
 0001:0006f440       ?shift_left@__crt_strtox@@YA_NAEAUbig_integer@1@I@Z 0000000140070440 f i libucrt:cfout.obj
 0001:0006f61c       __acrt_fltout              000000014007061c f   libucrt:cfout.obj
 0001:00070d94       __fpe_flt_rounds           0000000140071d94 f   libucrt:fegetround.obj
 0001:00070dec       fegetround                 0000000140071dec f   libucrt:fegetround.obj
 0001:00070e08       ?__c32rtomb_utf8@__crt_mbstring@@YA_KPEAD_UPEAU_Mbstatet@@AEAV__crt_cached_ptd_host@@@Z 0000000140071e08 f   libucrt:c32rtomb.obj
 0001:00070ed4       c32rtomb                   0000000140071ed4 f   libucrt:c32rtomb.obj
 0001:00070fc4       ?__mbrtowc_utf8@__crt_mbstring@@YA_KPEA_WPEBD_KPEAU_Mbstatet@@AEAV__crt_cached_ptd_host@@@Z 0000000140071fc4 f   libucrt:mbrtowc.obj
 0001:00071018       ?__mbsrtowcs_utf8@__crt_mbstring@@YA_KPEA_WPEAPEBD_KPEAU_Mbstatet@@AEAV__crt_cached_ptd_host@@@Z 0000000140072018 f   libucrt:mbrtowc.obj
 0001:000717d0       btowc                      00000001400727d0 f   libucrt:mbrtowc.obj
 0001:000718e0       mbrlen                     00000001400728e0 f   libucrt:mbrtowc.obj
 0001:000719d8       mbrtowc                    00000001400729d8 f   libucrt:mbrtowc.obj
 0001:00071af8       mbsrtowcs                  0000000140072af8 f   libucrt:mbrtowc.obj
 0001:00071bc4       mbsrtowcs_s                0000000140072bc4 f   libucrt:mbrtowc.obj
 0001:000721d8       ?has_big_buffer@__crt_stdio_stream@@QEBA_NXZ 00000001400731d8 f i libucrt:_flsbuf.obj
 0001:00072280       __acrt_stdio_flush_and_write_narrow_nolock 0000000140073280 f   libucrt:_flsbuf.obj
 0001:00072374       __acrt_stdio_flush_and_write_wide_nolock 0000000140073374 f   libucrt:_flsbuf.obj
 0001:0007246c       _isatty                    000000014007346c f   libucrt:isatty.obj
 0001:00072630       qsort                      0000000140073630 f   libucrt:qsort.obj
 0001:00072c58       strncpy_s                  0000000140073c58 f   libucrt:strncpy_s.obj
 0001:00072e50       strpbrk                    0000000140073e50 f   libucrt:strpbrk.obj
 0001:0007330c       _mbsdec                    000000014007430c f   libucrt:mbsdec.obj
 0001:00073318       _mbsdec_l                  0000000140074318 f   libucrt:mbsdec.obj
 0001:000733d4       ??B?$__crt_scoped_stack_ptr@_W@@QEBA_NXZ 00000001400743d4 f i libucrt:lcmapstringa.obj
 0001:000737c8       __acrt_LCMapStringA        00000001400747c8 f   libucrt:lcmapstringa.obj
 0001:000738a0       _wcsnicoll                 00000001400748a0 f   libucrt:wcsnicol.obj
 0001:00073904       _wcsnicoll_l               0000000140074904 f   libucrt:wcsnicol.obj
 0001:00073a30       _strnicoll                 0000000140074a30 f   libucrt:strnicol.obj
 0001:00073a4c       _strnicoll_l               0000000140074a4c f   libucrt:strnicol.obj
 0001:00073b8c       __acrt_SetEnvironmentVariableA 0000000140074b8c f   libucrt:setenvironmentvariablea.obj
 0001:00073f78       __acrt_GetLocaleInfoA      0000000140074f78 f   libucrt:getlocaleinfoa.obj
 0001:000741b4       __ascii_wcsicmp            00000001400751b4 f   libucrt:wcsicmp.obj
 0001:00074204       _towlower_fast_internal    0000000140075204 f i libucrt:wcsicmp.obj
 0001:00074234       _towlower_internal         0000000140075234 f i libucrt:wcsicmp.obj
 0001:00074278       _wcsicmp                   0000000140075278 f   libucrt:wcsicmp.obj
 0001:000742d0       _wcsicmp_l                 00000001400752d0 f   libucrt:wcsicmp.obj
 0001:00074440       __ascii_wcsnicmp           0000000140075440 f   libucrt:wcsnicmp.obj
 0001:000744a0       _wcsnicmp                  00000001400754a0 f   libucrt:wcsnicmp.obj
 0001:000744f8       _wcsnicmp_l                00000001400754f8 f   libucrt:wcsnicmp.obj
 0001:0007469c       wcscmp                     000000014007569c f   libucrt:wcscmp.obj
 0001:000746e0       _msize                     00000001400756e0 f   libucrt:msize.obj
 0001:000746e8       _msize_base                00000001400756e8 f   libucrt:msize.obj
 0001:00074730       _realloc_base              0000000140075730 f   libucrt:realloc_base.obj
 0001:00074bb4       _mbstowcs_l                0000000140075bb4 f   libucrt:mbstowcs.obj
 0001:00074c84       _mbstowcs_s_l              0000000140075c84 f   libucrt:mbstowcs.obj
 0001:00074d68       mbstowcs                   0000000140075d68 f   libucrt:mbstowcs.obj
 0001:00074e28       mbstowcs_s                 0000000140075e28 f   libucrt:mbstowcs.obj
 0001:00075510       _lseek                     0000000140076510 f   libucrt:lseek.obj
 0001:000755d0       _lseek_internal            00000001400765d0 f   libucrt:lseek.obj
 0001:000755d8       _lseek_nolock              00000001400765d8 f   libucrt:lseek.obj
 0001:00075698       _lseek_nolock_internal     0000000140076698 f   libucrt:lseek.obj
 0001:000756a0       _lseeki64                  00000001400766a0 f   libucrt:lseek.obj
 0001:00075760       _lseeki64_internal         0000000140076760 f   libucrt:lseek.obj
 0001:00075768       _lseeki64_nolock           0000000140076768 f   libucrt:lseek.obj
 0001:00075828       _lseeki64_nolock_internal  0000000140076828 f   libucrt:lseek.obj
 0001:000758f0       _putwch                    00000001400768f0 f   libucrt:putwch.obj
 0001:0007593c       _putwch_nolock             000000014007693c f   libucrt:putwch.obj
 0001:00075988       _putwch_nolock_internal    0000000140076988 f   libucrt:putwch.obj
 0001:00076268       _read                      0000000140077268 f   libucrt:read.obj
 0001:000763c8       _read_nolock               00000001400773c8 f   libucrt:read.obj
 0001:00076b18       _close                     0000000140077b18 f   libucrt:close.obj
 0001:00076bd8       _close_internal            0000000140077bd8 f   libucrt:close.obj
 0001:00076ccc       _close_nolock              0000000140077ccc f   libucrt:close.obj
 0001:00076d8c       _close_nolock_internal     0000000140077d8c f   libucrt:close.obj
 0001:00076e8c       ??$?RU__crt_stdio_stream_data@@@__crt_internal_free_policy@@QEBAXQEBU__crt_stdio_stream_data@@@Z 0000000140077e8c f i libucrt:stream.obj
 0001:00076e98       ??0?$__crt_unique_heap_ptr@U__crt_stdio_stream_data@@U__crt_internal_free_policy@@@@QEAA@QEAU__crt_stdio_stream_data@@@Z 0000000140077e98 f i libucrt:stream.obj
 0001:00076ea0       ??0__crt_stdio_stream@@QEAA@XZ 0000000140077ea0 f i libucrt:stream.obj
 0001:00076eac       ??1?$__crt_unique_heap_ptr@U__crt_stdio_stream_data@@U__crt_internal_free_policy@@@@QEAA@XZ 0000000140077eac f i libucrt:stream.obj
 0001:00076ed0       ?__acrt_stdio_allocate_stream@@YA?AV__crt_stdio_stream@@XZ 0000000140077ed0 f   libucrt:stream.obj
 0001:00076f3c       ?__acrt_stdio_free_stream@@YAXV__crt_stdio_stream@@@Z 0000000140077f3c f   libucrt:stream.obj
 0001:00076f60       ?deallocate@__crt_stdio_stream@@QEAAXXZ 0000000140077f60 f i libucrt:stream.obj
 0001:00076f6c       ?detach@?$__crt_unique_heap_ptr@U__crt_stdio_stream_data@@U__crt_internal_free_policy@@@@QEAAPEAU__crt_stdio_stream_data@@XZ 0000000140077f6c f i libucrt:stream.obj
 0001:0007709c       ?lock@__crt_stdio_stream@@QEBAXXZ 000000014007809c f i libucrt:stream.obj
 0001:000770a8       ?release@?$__crt_unique_heap_ptr@U__crt_stdio_stream_data@@U__crt_internal_free_policy@@@@QEAAXXZ 00000001400780a8 f i libucrt:stream.obj
 0001:000770cc       ?try_allocate@__crt_stdio_stream@@QEAA_NXZ 00000001400780cc f i libucrt:stream.obj
 0001:000770f4       ?unlock@__crt_stdio_stream@@QEBAXXZ 00000001400780f4 f i libucrt:stream.obj
 0001:00077100       _controlfp_s               0000000140078100 f   libucrt:contrlfp.obj
 0001:0007717c       fegetenv                   000000014007817c f   libucrt:fegetenv.obj
 0001:000771a4       fesetenv                   00000001400781a4 f   libucrt:fesetenv.obj
 0001:00077204       feholdexcept               0000000140078204 f   libucrt:feholdexcept.obj
 0001:00077268       ceil                       0000000140078268 f   libucrt:ceil.obj
 0001:00077360       log10                      0000000140078360 f   libucrt:log10.obj
 0001:00077a78       ??$__acrt_fenv_shift_bits@W4__acrt_fenv_abstract_control@@@@YA?AW4__acrt_fenv_abstract_control@@W40@0I@Z 0000000140078a78 f i libucrt:_fenvutils.obj
 0001:00077a84       ??$__acrt_fenv_shift_bits@W4__acrt_fenv_abstract_status@@@@YA?AW4__acrt_fenv_abstract_status@@W40@0I@Z 0000000140078a84 f i libucrt:_fenvutils.obj
 0001:00077a90       ??$__acrt_fenv_translate_bit@W4__acrt_fenv_abstract_control@@W4__acrt_fenv_machine_sse_control@@@@YA?AW4__acrt_fenv_abstract_control@@W4__acrt_fenv_machine_sse_control@@0W40@1@Z 0000000140078a90 f i libucrt:_fenvutils.obj
 0001:00077aa0       ??$__acrt_fenv_translate_bit@W4__acrt_fenv_abstract_status@@W4__acrt_fenv_machine_sse_status@@@@YA?AW4__acrt_fenv_abstract_status@@W4__acrt_fenv_machine_sse_status@@0W40@1@Z 0000000140078aa0 f i libucrt:_fenvutils.obj
 0001:00077aac       ??$__acrt_fenv_translate_bit@W4__acrt_fenv_machine_sse_control@@W4__acrt_fenv_abstract_control@@@@YA?AW4__acrt_fenv_machine_sse_control@@W4__acrt_fenv_abstract_control@@0W40@1@Z 0000000140078aac f i libucrt:_fenvutils.obj
 0001:00077abc       ??$__acrt_fenv_translate_bit@W4__acrt_fenv_machine_sse_status@@W4__acrt_fenv_abstract_status@@@@YA?AW4__acrt_fenv_machine_sse_status@@W4__acrt_fenv_abstract_status@@0W40@1@Z 0000000140078abc f i libucrt:_fenvutils.obj
 0001:00077ac8       ??$__acrt_fenv_unshift_bits@W4__acrt_fenv_abstract_control@@@@YA?AW4__acrt_fenv_abstract_control@@W40@0I@Z 0000000140078ac8 f i libucrt:_fenvutils.obj
 0001:00077ad4       ??$__acrt_fenv_unshift_bits@W4__acrt_fenv_abstract_status@@@@YA?AW4__acrt_fenv_abstract_status@@W40@0I@Z 0000000140078ad4 f i libucrt:_fenvutils.obj
 0001:00077cfc       ??I@YA?AW4__acrt_fenv_abstract_control@@W40@0@Z 0000000140078cfc f i libucrt:_fenvutils.obj
 0001:00077d04       ??I@YA?AW4__acrt_fenv_abstract_status@@W40@0@Z 0000000140078d04 f i libucrt:_fenvutils.obj
 0001:00077d0c       ??I@YA?AW4__acrt_fenv_machine_sse_control@@W40@0@Z 0000000140078d0c f i libucrt:_fenvutils.obj
 0001:00077d14       ??I@YA?AW4__acrt_fenv_machine_sse_status@@W40@0@Z 0000000140078d14 f i libucrt:_fenvutils.obj
 0001:00077d1c       ??U@YA?AW4__acrt_fenv_abstract_control@@W40@0@Z 0000000140078d1c f i libucrt:_fenvutils.obj
 0001:00077d24       ??U@YA?AW4__acrt_fenv_abstract_status@@W40@0@Z 0000000140078d24 f i libucrt:_fenvutils.obj
 0001:00077d2c       ??U@YA?AW4__acrt_fenv_machine_sse_control@@W40@0@Z 0000000140078d2c f i libucrt:_fenvutils.obj
 0001:00077d34       ??_5@YAAEAW4__acrt_fenv_abstract_control@@AEAW40@W40@@Z 0000000140078d34 f i libucrt:_fenvutils.obj
 0001:00077d3c       ??_5@YAAEAW4__acrt_fenv_abstract_status@@AEAW40@W40@@Z 0000000140078d3c f i libucrt:_fenvutils.obj
 0001:00077d44       ??_5@YAAEAW4__acrt_fenv_machine_sse_control@@AEAW40@W40@@Z 0000000140078d44 f i libucrt:_fenvutils.obj
 0001:00077d4c       ??_5@YAAEAW4__acrt_fenv_machine_sse_status@@AEAW40@W40@@Z 0000000140078d4c f i libucrt:_fenvutils.obj
 0001:00077d54       ?__acrt_fenv_shift_abstract_sse_control@@YA?AW4__acrt_fenv_abstract_control@@W41@@Z 0000000140078d54 f i libucrt:_fenvutils.obj
 0001:00077d70       ?__acrt_fenv_shift_abstract_sse_status@@YA?AW4__acrt_fenv_abstract_status@@W41@@Z 0000000140078d70 f i libucrt:_fenvutils.obj
 0001:00077d7c       ?__acrt_fenv_unshift_abstract_sse_control@@YA?AW4__acrt_fenv_abstract_control@@W41@@Z 0000000140078d7c f i libucrt:_fenvutils.obj
 0001:00077d98       ?__acrt_fenv_unshift_abstract_sse_status@@YA?AW4__acrt_fenv_abstract_status@@W41@@Z 0000000140078d98 f i libucrt:_fenvutils.obj
 0001:000780f8       __acrt_fenv_expand_round_control 00000001400790f8 f   libucrt:_fenvutils.obj
 0001:00078118       __acrt_fenv_get_common_round_control 0000000140079118 f   libucrt:_fenvutils.obj
 0001:00078124       __acrt_fenv_get_control    0000000140079124 f   libucrt:_fenvutils.obj
 0001:00078240       __acrt_fenv_get_fp_status_word_from_exception_mask 0000000140079240 f   libucrt:_fenvutils.obj
 0001:00078250       __acrt_fenv_get_status     0000000140079250 f   libucrt:_fenvutils.obj
 0001:000782bc       __acrt_fenv_set_control    00000001400792bc f   libucrt:_fenvutils.obj
 0001:00078444       __acrt_fenv_set_status     0000000140079444 f   libucrt:_fenvutils.obj
 0001:000784d8       ?reset_and_return@__crt_mbstring@@YA_K_KPEAU_Mbstatet@@@Z 00000001400794d8 f   libucrt:common_utf8.obj
 0001:000784e4       ?return_illegal_sequence@__crt_mbstring@@YA_KPEAU_Mbstatet@@AEAV__crt_cached_ptd_host@@@Z 00000001400794e4 f   libucrt:common_utf8.obj
 0001:00078500       ?__mbrtoc32_utf8@__crt_mbstring@@YA_KPEA_UPEBD_KPEAU_Mbstatet@@AEAV__crt_cached_ptd_host@@@Z 0000000140079500 f   libucrt:mbrtoc32.obj
 0001:00078750       mbrtoc32                   0000000140079750 f   libucrt:mbrtoc32.obj
 0001:0007881c       __acrt_stdio_allocate_buffer_nolock 000000014007981c f   libucrt:_getbuf.obj
 0001:000788a4       __strncnt                  00000001400798a4 f   libucrt:strncnt.obj
 0001:000788c0       __acrt_CompareStringW      00000001400798c0 f   libucrt:comparestringw.obj
 0001:000789ac       __ascii_strnicmp           00000001400799ac f   libucrt:strnicmp.obj
 0001:00078a08       _strnicmp                  0000000140079a08 f   libucrt:strnicmp.obj
 0001:00078a6c       _strnicmp_l                0000000140079a6c f   libucrt:strnicmp.obj
 0001:00078fa4       __acrt_CompareStringA      0000000140079fa4 f   libucrt:comparestringa.obj
 0001:00079050       _towlower_l                000000014007a050 f   libucrt:towlower.obj
 0001:00079184       towlower                   000000014007a184 f   libucrt:towlower.obj
 0001:000792f8       __dcrt_lowio_ensure_console_output_initialized 000000014007a2f8 f   libucrt:initcon.obj
 0001:00079360       __dcrt_terminate_console_output 000000014007a360 f   libucrt:initcon.obj
 0001:00079384       __dcrt_write_console       000000014007a384 f   libucrt:initcon.obj
 0001:000795e0       _clearfp                   000000014007a5e0 f   libucrt:ieee.obj
 0001:0007966c       _control87                 000000014007a66c f   libucrt:ieee.obj
 0001:00079674       _controlfp                 000000014007a674 f   libucrt:ieee.obj
 0001:00079680       _fpreset                   000000014007a680 f   libucrt:ieee.obj
 0001:0007977c       _set_controlfp             000000014007a77c f   libucrt:ieee.obj
 0001:000797c0       _statusfp                  000000014007a7c0 f   libucrt:ieee.obj
 0001:00079d14       _handle_error              000000014007ad14 f   libucrt:libm_error.obj
 0001:00079e84       _handle_errorf             000000014007ae84 f   libucrt:libm_error.obj
 0001:0007a004       _handle_nan                000000014007b004 f   libucrt:libm_error.obj
 0001:0007a024       _handle_nanf               000000014007b024 f   libucrt:libm_error.obj
 0001:0007a040       __acrt_initialize_fma3     000000014007b040 f   libucrt:fma3_available.obj
 0001:0007a0cc       _get_FMA3_enable           000000014007b0cc f   libucrt:fma3_available.obj
 0001:0007a0d4       _set_FMA3_enable           000000014007b0d4 f   libucrt:fma3_available.obj
 0001:0007a0f0       _log10_special             000000014007b0f0 f   libucrt:log_special.obj
 0001:0007a118       _log10f_special            000000014007b118 f   libucrt:log_special.obj
 0001:0007a140       _log_special               000000014007b140 f   libucrt:log_special.obj
 0001:0007a224       _logf_special              000000014007b224 f   libucrt:log_special.obj
 0001:0007a310       __acrt_LCMapStringW        000000014007b310 f   libucrt:lcmapstringw.obj
 0001:0007a3d0       _get_fpsr                  000000014007b3d0 f   libucrt:fpsr.obj
 0001:0007a3e0       _set_fpsr                  000000014007b3e0 f   libucrt:fpsr.obj
 0001:0007a3ea       _fclrf                     000000014007b3ea f   libucrt:fpsr.obj
 0001:0007a3fe       _frnd                      000000014007b3fe f   libucrt:fpsr.obj
 0001:0007a434       ?should_round_up@__crt_strtox@@YA_N_N000@Z 000000014007b434 f i libucrt:fpexcept.obj
 0001:0007a4dc       _errcode                   000000014007b4dc f   libucrt:fpexcept.obj
 0001:0007a530       _except1                   000000014007b530 f   libucrt:fpexcept.obj
 0001:0007a660       _except2                   000000014007b660 f   libucrt:fpexcept.obj
 0001:0007a7e8       _handle_exc                000000014007b7e8 f   libucrt:fpexcept.obj
 0001:0007ab9c       _handle_qnan2              000000014007bb9c f   libucrt:fpexcept.obj
 0001:0007aba4       _raise_exc                 000000014007bba4 f   libucrt:fpexcept.obj
 0001:0007abd4       _raise_exc_ex              000000014007bbd4 f   libucrt:fpexcept.obj
 0001:0007afa4       _raise_excf                000000014007bfa4 f   libucrt:fpexcept.obj
 0001:0007afd8       _set_errno_from_matherr    000000014007bfd8 f   libucrt:fpexcept.obj
 0001:0007b014       _umatherr                  000000014007c014 f   libucrt:fpexcept.obj
 0001:0007b114       _clrfp                     000000014007c114 f   libucrt:fpctrl.obj
 0001:0007b138       _ctrlfp                    000000014007c138 f   libucrt:fpctrl.obj
 0001:0007b1d4       _set_statfp                000000014007c1d4 f   libucrt:fpctrl.obj
 0001:0007b1fc       _statfp                    000000014007c1fc f   libucrt:fpctrl.obj
 0001:0007b214       _add_exp                   000000014007c214 f   libucrt:util.obj
 0001:0007b278       _decomp                    000000014007c278 f   libucrt:util.obj
 0001:0007b3f4       _get_exp                   000000014007c3f4 f   libucrt:util.obj
 0001:0007b418       _set_bexp                  000000014007c418 f   libucrt:util.obj
 0001:0007b454       _set_exp                   000000014007c454 f   libucrt:util.obj
 0001:0007b49c       _sptype                    000000014007c49c f   libucrt:util.obj
 0001:0007b530       _FindPESection             000000014007c530 f   LIBCMT:pesect.obj
 0001:0007b590       _IsNonwritableInCurrentImage 000000014007c590 f   LIBCMT:pesect.obj
 0001:0007b5f0       _ValidateImageBase         000000014007c5f0 f   LIBCMT:pesect.obj
 0001:0007b628       ??1type_info@@UEAA@XZ      000000014007c628 f   LIBCMT:std_type_info_static.obj
 0001:0007b638       ??_Etype_info@@UEAAPEAXI@Z 000000014007c638 f i LIBCMT:std_type_info_static.obj
 0001:0007b638       ??_Gtype_info@@UEAAPEAXI@Z 000000014007c638 f i LIBCMT:std_type_info_static.obj
 0001:0007b670       ??3@YAXPEAX_K@Z            000000014007c670 f   LIBCMT:delete_scalar_size.obj
 0001:0007b678       __GSHandlerCheck_SEH       000000014007c678 f   LIBCMT:gshandlerseh.obj
 0001:0007b730       __chkstk                   000000014007c730 f   LIBCMT:chkstk.obj
 0001:0007b730       _alloca_probe              000000014007c730 f   LIBCMT:chkstk.obj
 0001:0007b798       __GSHandlerCheck_EH        000000014007c798 f   LIBCMT:gshandlereh.obj
 0001:0007b838       ??3@YAXPEAX@Z              000000014007c838 f   LIBCMT:delete_scalar.obj
 0001:0007b83d       RtlUnwindEx                000000014007c83d f   kernel32:KERNEL32.dll
 0001:0007b843       InterlockedPushEntrySList  000000014007c843 f   kernel32:KERNEL32.dll
 0001:0007b849       InterlockedFlushSList      000000014007c849 f   kernel32:KERNEL32.dll
 0001:0007b84f       GetLastError               000000014007c84f f   kernel32:KERNEL32.dll
 0001:0007b855       SetLastError               000000014007c855 f   kernel32:KERNEL32.dll
 0001:0007b85b       EnterCriticalSection       000000014007c85b f   kernel32:KERNEL32.dll
 0001:0007b861       LeaveCriticalSection       000000014007c861 f   kernel32:KERNEL32.dll
 0001:0007b867       DeleteCriticalSection      000000014007c867 f   kernel32:KERNEL32.dll
 0001:0007b86d       InitializeCriticalSectionAndSpinCount 000000014007c86d f   kernel32:KERNEL32.dll
 0001:0007b873       TlsAlloc                   000000014007c873 f   kernel32:KERNEL32.dll
 0001:0007b879       TlsGetValue                000000014007c879 f   kernel32:KERNEL32.dll
 0001:0007b87f       TlsSetValue                000000014007c87f f   kernel32:KERNEL32.dll
 0001:0007b885       TlsFree                    000000014007c885 f   kernel32:KERNEL32.dll
 0001:0007b88b       FreeLibrary                000000014007c88b f   kernel32:KERNEL32.dll
 0001:0007b891       GetProcAddress             000000014007c891 f   kernel32:KERNEL32.dll
 0001:0007b897       LoadLibraryExW             000000014007c897 f   kernel32:KERNEL32.dll
 0001:0007b89d       EncodePointer              000000014007c89d f   kernel32:KERNEL32.dll
 0001:0007b8a3       RaiseException             000000014007c8a3 f   kernel32:KERNEL32.dll
 0001:0007b8a9       RtlPcToFileHeader          000000014007c8a9 f   kernel32:KERNEL32.dll
 0001:0007b8af       RtlUnwind                  000000014007c8af f   kernel32:KERNEL32.dll
 0001:0007b8b5       GetStdHandle               000000014007c8b5 f   kernel32:KERNEL32.dll
 0001:0007b8bb       GetFileType                000000014007c8bb f   kernel32:KERNEL32.dll
 0001:0007b8c1       GetModuleFileNameW         000000014007c8c1 f   kernel32:KERNEL32.dll
 0001:0007b8c7       GetModuleHandleExW         000000014007c8c7 f   kernel32:KERNEL32.dll
 0001:0007b8cd       WriteConsoleW              000000014007c8cd f   kernel32:KERNEL32.dll
 0001:0007b8d3       WriteFile                  000000014007c8d3 f   kernel32:KERNEL32.dll
 0001:0007b8d9       ExitProcess                000000014007c8d9 f   kernel32:KERNEL32.dll
 0001:0007b8df       GetCommandLineA            000000014007c8df f   kernel32:KERNEL32.dll
 0001:0007b8e5       GetCommandLineW            000000014007c8e5 f   kernel32:KERNEL32.dll
 0001:0007b8eb       HeapFree                   000000014007c8eb f   kernel32:KERNEL32.dll
 0001:0007b8f1       HeapAlloc                  000000014007c8f1 f   kernel32:KERNEL32.dll
 0001:0007b8f7       GetCurrentThread           000000014007c8f7 f   kernel32:KERNEL32.dll
 0001:0007b8fd       OutputDebugStringW         000000014007c8fd f   kernel32:KERNEL32.dll
 0001:0007b903       SetConsoleCtrlHandler      000000014007c903 f   kernel32:KERNEL32.dll
 0001:0007b909       FlsAlloc                   000000014007c909 f   kernel32:KERNEL32.dll
 0001:0007b90f       FlsGetValue                000000014007c90f f   kernel32:KERNEL32.dll
 0001:0007b915       FlsSetValue                000000014007c915 f   kernel32:KERNEL32.dll
 0001:0007b91b       FlsFree                    000000014007c91b f   kernel32:KERNEL32.dll
 0001:0007b921       GetDateFormatW             000000014007c921 f   kernel32:KERNEL32.dll
 0001:0007b927       GetTimeFormatW             000000014007c927 f   kernel32:KERNEL32.dll
 0001:0007b92d       CompareStringW             000000014007c92d f   kernel32:KERNEL32.dll
 0001:0007b933       LCMapStringW               000000014007c933 f   kernel32:KERNEL32.dll
 0001:0007b939       GetLocaleInfoW             000000014007c939 f   kernel32:KERNEL32.dll
 0001:0007b93f       IsValidLocale              000000014007c93f f   kernel32:KERNEL32.dll
 0001:0007b945       GetUserDefaultLCID         000000014007c945 f   kernel32:KERNEL32.dll
 0001:0007b94b       EnumSystemLocalesW         000000014007c94b f   kernel32:KERNEL32.dll
 0001:0007b951       FindClose                  000000014007c951 f   kernel32:KERNEL32.dll
 0001:0007b957       FindFirstFileExW           000000014007c957 f   kernel32:KERNEL32.dll
 0001:0007b95d       FindNextFileW              000000014007c95d f   kernel32:KERNEL32.dll
 0001:0007b963       IsValidCodePage            000000014007c963 f   kernel32:KERNEL32.dll
 0001:0007b969       GetACP                     000000014007c969 f   kernel32:KERNEL32.dll
 0001:0007b96f       GetOEMCP                   000000014007c96f f   kernel32:KERNEL32.dll
 0001:0007b975       GetCPInfo                  000000014007c975 f   kernel32:KERNEL32.dll
 0001:0007b97b       MultiByteToWideChar        000000014007c97b f   kernel32:KERNEL32.dll
 0001:0007b981       WideCharToMultiByte        000000014007c981 f   kernel32:KERNEL32.dll
 0001:0007b987       GetEnvironmentStringsW     000000014007c987 f   kernel32:KERNEL32.dll
 0001:0007b98d       FreeEnvironmentStringsW    000000014007c98d f   kernel32:KERNEL32.dll
 0001:0007b993       SetEnvironmentVariableW    000000014007c993 f   kernel32:KERNEL32.dll
 0001:0007b999       SetStdHandle               000000014007c999 f   kernel32:KERNEL32.dll
 0001:0007b99f       GetStringTypeW             000000014007c99f f   kernel32:KERNEL32.dll
 0001:0007b9a5       GetProcessHeap             000000014007c9a5 f   kernel32:KERNEL32.dll
 0001:0007b9ab       FlushFileBuffers           000000014007c9ab f   kernel32:KERNEL32.dll
 0001:0007b9b1       GetConsoleOutputCP         000000014007c9b1 f   kernel32:KERNEL32.dll
 0001:0007b9b7       GetConsoleMode             000000014007c9b7 f   kernel32:KERNEL32.dll
 0001:0007b9bd       GetFileSizeEx              000000014007c9bd f   kernel32:KERNEL32.dll
 0001:0007b9c3       SetFilePointerEx           000000014007c9c3 f   kernel32:KERNEL32.dll
 0001:0007b9c9       HeapSize                   000000014007c9c9 f   kernel32:KERNEL32.dll
 0001:0007b9cf       HeapReAlloc                000000014007c9cf f   kernel32:KERNEL32.dll
 0001:0007b9d5       ReadFile                   000000014007c9d5 f   kernel32:KERNEL32.dll
 0001:0007b9db       ReadConsoleW               000000014007c9db f   kernel32:KERNEL32.dll
 0001:0007b9e1       CloseHandle                000000014007c9e1 f   kernel32:KERNEL32.dll
 0001:0007b9e7       CreateFileW                000000014007c9e7 f   kernel32:KERNEL32.dll
 0001:0007ba00       memcmp                     000000014007ca00 f   libvcruntime:memcmp.obj
 0001:0007bafc       __C_specific_handler_noexcept 000000014007cafc f   libvcruntime:chandler_noexcept.obj
 0001:0007bb5c       strrchr                    000000014007cb5c f   libvcruntime:strrchr.obj
 0001:0007bce8       strchr                     000000014007cce8 f   libvcruntime:strchr.obj
 0001:0007bd84       wcschr                     000000014007cd84 f   libvcruntime:wcschr.obj
 0001:0007be00       ?GameInitialize@@YAXPEAUGameState@@PEAUTMWindow@@@Z 000000014007ce00 f   game.obj
 0001:0007c410       ?GameUpdate@@YAXPEAUGameState@@@Z 000000014007d410 f   game.obj
 0001:0007c420       ?GameRender@@YAXPEAUGameState@@@Z 000000014007d420 f   game.obj
 0001:0007cad0       ?GameShutdown@@YAXPEAUGameState@@@Z 000000014007dad0 f   game.obj
 0001:0007cc50       ?GetAttributeAtIndex@@YAXPEAUTMJsonObject@@IPEAPEAXPEA_KPEAX@Z 000000014007dc50 f   game.obj
 0001:0007daa0       _guard_dispatch_icall_nop  000000014007eaa0 f   LIBCMT:guard_dispatch.obj
 0001:0007dac0       _guard_xfg_dispatch_icall_nop 000000014007eac0 f   LIBCMT:guard_xfg_dispatch.obj
 0002:00000000       __xc_a                     0000000140082000     LIBCMT:initializers.obj
 0002:00000330       __xc_z                     0000000140082330     LIBCMT:initializers.obj
 0002:00000440       __xi_a                     0000000140082440     LIBCMT:initializers.obj
 0002:00000770       __acrt_stdio_initializer   0000000140082770     libucrt:stdio_initializer.obj
 0002:00000780       __acrt_multibyte_initializer 0000000140082780     libucrt:multibyte_initializer.obj
 0002:00000790       __acrt_fmode_initializer   0000000140082790     libucrt:fmode_initializer.obj
 0002:000007a0       __acrt_tran_fma3_initializer 00000001400827a0     libucrt:fma3_initializer.obj
 0002:000008b0       __xi_z                     00000001400828b0     LIBCMT:initializers.obj
 0002:000009c0       __xp_a                     00000001400829c0     LIBCMT:initializers.obj
 0002:00000ad0       __acrt_locale_terminator   0000000140082ad0     libucrt:locale_initializer.obj
 0002:00000ae0       __dcrt_console_output_terminator 0000000140082ae0     libucrt:console_output_initializer.obj
 0002:00000bf0       __acrt_stdio_terminator    0000000140082bf0     libucrt:stdio_initializer.obj
 0002:00000d00       __xp_z                     0000000140082d00     LIBCMT:initializers.obj
 0002:00000e10       __xt_a                     0000000140082e10     LIBCMT:initializers.obj
 0002:00000f20       __xt_z                     0000000140082f20     LIBCMT:initializers.obj
 0002:00001348       __real@c0000000            0000000140083348     game.obj
 0002:000013e4       __real@3c23d70a            00000001400833e4     game.obj
 0002:000013e8       __real@3ca3d70a            00000001400833e8     game.obj
 0002:000013ec       __real@3f000000            00000001400833ec     game.obj
 0002:000013f0       __real@3f800000            00000001400833f0     game.obj
 0002:000013f4       __real@40a00000            00000001400833f4     game.obj
 0002:000013f8       __real@42700000            00000001400833f8     game.obj
 0002:000013fc       __real@42c80000            00000001400833fc     game.obj
 0002:00001400       __real@bf000000            0000000140083400     game.obj
 0002:00001410       __xmm@80000000800000008000000080000000 0000000140083410     game.obj
 0002:00001470       __xmm@ffffffffffffffffffffffffffffffff 0000000140083470     LIBCMT:utility.obj
 0002:00001488       _pDestructExceptionObject  0000000140083488     libvcruntime:ehhelpers.obj
 0002:00001d20       ??_C@_08EHJDFFNH@__based?$CI@ 0000000140083d20     libvcruntime:undname.obj
 0002:00001d30       ??_C@_07KOLFKCDI@__cdecl@  0000000140083d30     libvcruntime:undname.obj
 0002:00001d40       ??_C@_08GHMPAG@__pascal@   0000000140083d40     libvcruntime:undname.obj
 0002:00001d50       ??_C@_09IFJBGAPI@__stdcall@ 0000000140083d50     libvcruntime:undname.obj
 0002:00001d60       ??_C@_0L@NPHFGOKO@__thiscall@ 0000000140083d60     libvcruntime:undname.obj
 0002:00001d70       ??_C@_0L@JMKHOMEK@__fastcall@ 0000000140083d70     libvcruntime:undname.obj
 0002:00001d80       ??_C@_0N@BCKKPABJ@__vectorcall@ 0000000140083d80     libvcruntime:undname.obj
 0002:00001d90       ??_C@_09HIJEGCPM@__clrcall@ 0000000140083d90     libvcruntime:undname.obj
 0002:00001d9c       ??_C@_06GHPCKEAG@__eabi@   0000000140083d9c     libvcruntime:undname.obj
 0002:00001da8       ??_C@_09IOPIDJLG@__swift_1@ 0000000140083da8     libvcruntime:undname.obj
 0002:00001db8       ??_C@_09KFNFGKHF@__swift_2@ 0000000140083db8     libvcruntime:undname.obj
 0002:00001dc8       ??_C@_09LMMOFLDE@__swift_3@ 0000000140083dc8     libvcruntime:undname.obj
 0002:00001dd8       ??_C@_07JOMMBBKO@__ptr64@  0000000140083dd8     libvcruntime:undname.obj
 0002:00001de8       ??_C@_0L@PILCLIHE@__restrict@ 0000000140083de8     libvcruntime:undname.obj
 0002:00001df8       ??_C@_0M@GFIIJFMG@__unaligned@ 0000000140083df8     libvcruntime:undname.obj
 0002:00001e08       ??_C@_09DHDLOLLB@restrict?$CI@ 0000000140083e08     libvcruntime:undname.obj
 0002:00001e14       ??_C@_00CNPNBAHC@@         0000000140083e14     libvcruntime:undname.obj
 0002:00001e18       ??_C@_04NIHEBCM@?5new@     0000000140083e18     libvcruntime:undname.obj
 0002:00001e20       ??_C@_07FPCDHGMM@?5delete@ 0000000140083e20     libvcruntime:undname.obj
 0002:00001e2c       ??_C@_01NEMOKFLO@?$DN@     0000000140083e2c     libvcruntime:undname.obj
 0002:00001e30       ??_C@_02GPIOPFAK@?$DO?$DO@ 0000000140083e30     libvcruntime:undname.obj
 0002:00001e34       ??_C@_02FODMEDOG@?$DM?$DM@ 0000000140083e34     libvcruntime:undname.obj
 0002:00001e38       ??_C@_01DCLJPIOD@?$CB@     0000000140083e38     libvcruntime:undname.obj
 0002:00001e3c       ??_C@_02EGOFBIJA@?$DN?$DN@ 0000000140083e3c     libvcruntime:undname.obj
 0002:00001e40       ??_C@_02FDNJECIE@?$CB?$DN@ 0000000140083e40     libvcruntime:undname.obj
 0002:00001e44       ??_C@_02GPECMEKF@?$FL?$FN@ 0000000140083e44     libvcruntime:undname.obj
 0002:00001e48       ??_C@_08LHJFAFGD@operator@ 0000000140083e48     libvcruntime:undname.obj
 0002:00001e54       ??_C@_02HBOOOICD@?9?$DO@   0000000140083e54     libvcruntime:undname.obj
 0002:00001e58       ??_C@_01NBENCBCI@?$CK@     0000000140083e58     libvcruntime:undname.obj
 0002:00001e5c       ??_C@_02ECNGHCIF@?$CL?$CL@ 0000000140083e5c     libvcruntime:undname.obj
 0002:00001e60       ??_C@_02BAABKJLB@?9?9@     0000000140083e60     libvcruntime:undname.obj
 0002:00001e64       ??_C@_01JOAMLHOP@?9@       0000000140083e64     libvcruntime:undname.obj
 0002:00001e68       ??_C@_01MIFGBAGJ@?$CL@     0000000140083e68     libvcruntime:undname.obj
 0002:00001e6c       ??_C@_01HNPIGOCE@?$CG@     0000000140083e6c     libvcruntime:undname.obj
 0002:00001e70       ??_C@_03MNHNFDLC@?9?$DO?$CK@ 0000000140083e70     libvcruntime:undname.obj
 0002:00001e74       ??_C@_01KMDKNFGN@?1@       0000000140083e74     libvcruntime:undname.obj
 0002:00001e78       ??_C@_01FGNFDNOH@?$CF@     0000000140083e78     libvcruntime:undname.obj
 0002:00001e7c       ??_C@_01MNNFJEPP@?$DM@     0000000140083e7c     libvcruntime:undname.obj
 0002:00001e80       ??_C@_02EHCHHCKH@?$DM?$DN@ 0000000140083e80     libvcruntime:undname.obj
 0002:00001e84       ??_C@_01PPODPGHN@?$DO@     0000000140083e84     libvcruntime:undname.obj
 0002:00001e88       ??_C@_02EEKDKGMJ@?$DO?$DN@ 0000000140083e88     libvcruntime:undname.obj
 0002:00001e8c       ??_C@_01IHBHIGKO@?0@       0000000140083e8c     libvcruntime:undname.obj
 0002:00001e90       ??_C@_02HCKGKOFO@?$CI?$CJ@ 0000000140083e90     libvcruntime:undname.obj
 0002:00001e94       ??_C@_01PJKLJHI@?$HO@      0000000140083e94     libvcruntime:undname.obj
 0002:00001e98       ??_C@_01JKBOJNNK@?$FO@     0000000140083e98     libvcruntime:undname.obj
 0002:00001e9c       ??_C@_01DNKMNLPK@?$HM@     0000000140083e9c     libvcruntime:undname.obj
 0002:00001ea0       ??_C@_02PPKAJPJL@?$CG?$CG@ 0000000140083ea0     libvcruntime:undname.obj
 0002:00001ea4       ??_C@_02NONPIBCD@?$HM?$HM@ 0000000140083ea4     libvcruntime:undname.obj
 0002:00001ea8       ??_C@_02FPIMKNGF@?$CK?$DN@ 0000000140083ea8     libvcruntime:undname.obj
 0002:00001eac       ??_C@_02FOEOMHFC@?$CL?$DN@ 0000000140083eac     libvcruntime:undname.obj
 0002:00001eb0       ??_C@_02FKMDLLOA@?9?$DN@   0000000140083eb0     libvcruntime:undname.obj
 0002:00001eb4       ??_C@_02FJEHGPIO@?1?$DN@   0000000140083eb4     libvcruntime:undname.obj
 0002:00001eb8       ??_C@_02FENAOKFI@?$CF?$DN@ 0000000140083eb8     libvcruntime:undname.obj
 0002:00001ebc       ??_C@_03IKFCCPFF@?$DO?$DO?$DN@ 0000000140083ebc     libvcruntime:undname.obj
 0002:00001ec0       ??_C@_03CDNPDDLA@?$DM?$DM?$DN@ 0000000140083ec0     libvcruntime:undname.obj
 0002:00001ec4       ??_C@_02FGJGFEAB@?$CG?$DN@ 0000000140083ec4     libvcruntime:undname.obj
 0002:00001ec8       ??_C@_02DHLNPPGH@?$HM?$DN@ 0000000140083ec8     libvcruntime:undname.obj
 0002:00001ecc       ??_C@_02MHEGNOJ@?$FO?$DN@  0000000140083ecc     libvcruntime:undname.obj
 0002:00001ed0       ??_C@_09IFPLHPGF@?$GAvftable?8@ 0000000140083ed0     libvcruntime:undname.obj
 0002:00001ee0       ??_C@_09BLBHBJP@?$GAvbtable?8@ 0000000140083ee0     libvcruntime:undname.obj
 0002:00001ef0       ??_C@_07FEEIOKP@?$GAvcall?8@ 0000000140083ef0     libvcruntime:undname.obj
 0002:00001f00       ??_C@_08LLFFHHDJ@?$GAtypeof?8@ 0000000140083f00     libvcruntime:undname.obj
 0002:00001f10       ??_C@_0BF@KDPPACIK@?$GAlocal?5static?5guard?8@ 0000000140083f10     libvcruntime:undname.obj
 0002:00001f30       ??_C@_08OBABFOLI@?$GAstring?8@ 0000000140083f30     libvcruntime:undname.obj
 0002:00001f40       ??_C@_0BD@JDLKDPAB@?$GAvbase?5destructor?8@ 0000000140083f40     libvcruntime:undname.obj
 0002:00001f58       ??_C@_0BN@DEGPLNFK@?$GAvector?5deleting?5destructor?8@ 0000000140083f58     libvcruntime:undname.obj
 0002:00001f80       ??_C@_0BO@OBMKPJIG@?$GAdefault?5constructor?5closure?8@ 0000000140083f80     libvcruntime:undname.obj
 0002:00001fa8       ??_C@_0BN@IMDCHIKM@?$GAscalar?5deleting?5destructor?8@ 0000000140083fa8     libvcruntime:undname.obj
 0002:00001fd0       ??_C@_0BO@PFGOCPJJ@?$GAvector?5constructor?5iterator?8@ 0000000140083fd0     libvcruntime:undname.obj
 0002:00001ff8       ??_C@_0BN@LFPFMEDL@?$GAvector?5destructor?5iterator?8@ 0000000140083ff8     libvcruntime:undname.obj
 0002:00002020       ??_C@_0CE@IKBNEHA@?$GAvector?5vbase?5constructor?5itera@ 0000000140084020     libvcruntime:undname.obj
 0002:00002050       ??_C@_0BL@NILFHHPC@?$GAvirtual?5displacement?5map?8@ 0000000140084050     libvcruntime:undname.obj
 0002:00002070       ??_C@_0CB@JONCMFFK@?$GAeh?5vector?5constructor?5iterator@ 0000000140084070     libvcruntime:undname.obj
 0002:00002098       ??_C@_0CA@GCEOPDGL@?$GAeh?5vector?5destructor?5iterator?8@ 0000000140084098     libvcruntime:undname.obj
 0002:000020c0       ??_C@_0CH@OOJPLCPH@?$GAeh?5vector?5vbase?5constructor?5it@ 00000001400840c0     libvcruntime:undname.obj
 0002:000020f0       ??_C@_0BL@LLKPOHJI@?$GAcopy?5constructor?5closure?8@ 00000001400840f0     libvcruntime:undname.obj
 0002:00002110       ??_C@_0BA@KBCDOMBN@?$GAudt?5returning?8@ 0000000140084110     libvcruntime:undname.obj
 0002:00002124       ??_C@_03KLGMFNMG@?$GAEH@   0000000140084124     libvcruntime:undname.obj
 0002:00002128       ??_C@_05KHLCHHI@?$GARTTI@  0000000140084128     libvcruntime:undname.obj
 0002:00002130       ??_C@_0BA@KKLDJDLB@?$GAlocal?5vftable?8@ 0000000140084130     libvcruntime:undname.obj
 0002:00002148       ??_C@_0CE@IIHCMGGL@?$GAlocal?5vftable?5constructor?5clos@ 0000000140084148     libvcruntime:undname.obj
 0002:00002174       ??_C@_06FHBGPFGH@?5new?$FL?$FN@ 0000000140084174     libvcruntime:undname.obj
 0002:00002180       ??_C@_09LBNFPBCA@?5delete?$FL?$FN@ 0000000140084180     libvcruntime:undname.obj
 0002:00002190       ??_C@_0P@HJKNJFNN@?$GAomni?5callsig?8@ 0000000140084190     libvcruntime:undname.obj
 0002:000021a8       ??_C@_0BL@CNOONJFP@?$GAplacement?5delete?5closure?8@ 00000001400841a8     libvcruntime:undname.obj
 0002:000021c8       ??_C@_0BN@CKNJLHMB@?$GAplacement?5delete?$FL?$FN?5closure?8@ 00000001400841c8     libvcruntime:undname.obj
 0002:000021f0       ??_C@_0CG@CFDHKGGD@?$GAmanaged?5vector?5constructor?5ite@ 00000001400841f0     libvcruntime:undname.obj
 0002:00002220       ??_C@_0CF@IMGKMJNO@?$GAmanaged?5vector?5destructor?5iter@ 0000000140084220     libvcruntime:undname.obj
 0002:00002250       ??_C@_0CG@HLDDJMAG@?$GAeh?5vector?5copy?5constructor?5ite@ 0000000140084250     libvcruntime:undname.obj
 0002:00002280       ??_C@_0CM@FCBBDIGB@?$GAeh?5vector?5vbase?5copy?5construct@ 0000000140084280     libvcruntime:undname.obj
 0002:000022b8       ??_C@_0BL@CLIPGLGB@?$GAdynamic?5initializer?5for?5?8@ 00000001400842b8     libvcruntime:undname.obj
 0002:000022d8       ??_C@_0CB@PDBIFEP@?$GAdynamic?5atexit?5destructor?5for?5@ 00000001400842d8     libvcruntime:undname.obj
 0002:00002300       ??_C@_0CD@CGAJBKEJ@?$GAvector?5copy?5constructor?5iterat@ 0000000140084300     libvcruntime:undname.obj
 0002:00002330       ??_C@_0CJ@GJELGAMM@?$GAvector?5vbase?5copy?5constructor?5@ 0000000140084330     libvcruntime:undname.obj
 0002:00002368       ??_C@_0CL@FGIJHLCE@?$GAmanaged?5vector?5copy?5constructo@ 0000000140084368     libvcruntime:undname.obj
 0002:000023a0       ??_C@_0BM@PMGGMLDN@?$GAlocal?5static?5thread?5guard?8@ 00000001400843a0     libvcruntime:undname.obj
 0002:000023c8       ??_C@_0N@BDNMDMOL@operator?5?$CC?$CC?5@ 00000001400843c8     libvcruntime:undname.obj
 0002:000023d8       ??_C@_0BC@GGEBGALA@operator?5co_await@ 00000001400843d8     libvcruntime:undname.obj
 0002:000023f0       ??_C@_0M@GAAIMMOH@operator?$DM?$DN?$DO@ 00000001400843f0     libvcruntime:undname.obj
 0002:00002400       ??_C@_0BC@DAFEJGAK@?5Type?5Descriptor?8@ 0000000140084400     libvcruntime:undname.obj
 0002:00002418       ??_C@_0BM@LDKODKLH@?5Base?5Class?5Descriptor?5at?5?$CI@ 0000000140084418     libvcruntime:undname.obj
 0002:00002440       ??_C@_0BD@LGICGFMM@?5Base?5Class?5Array?8@ 0000000140084440     libvcruntime:undname.obj
 0002:00002458       ??_C@_0BN@MECKDCOJ@?5Class?5Hierarchy?5Descriptor?8@ 0000000140084458     libvcruntime:undname.obj
 0002:00002480       ??_C@_0BK@CFCOFLF@?5Complete?5Object?5Locator?8@ 0000000140084480     libvcruntime:undname.obj
 0002:000024a0       ??_C@_0BG@JNJLAMPM@?$GAanonymous?5namespace?8@ 00000001400844a0     libvcruntime:undname.obj
 0002:000024bc       ??_C@_04HEJADOOB@CV?3?5@   00000001400844bc     libvcruntime:undname.obj
 0002:000024c4       ??_C@_02MOLJINC@?3?3@      00000001400844c4     libvcruntime:undname.obj
 0002:000024c8       ??_C@_0BE@JAEOCHPE@template?9parameter?9@ 00000001400844c8     libvcruntime:undname.obj
 0002:000024e0       ??_C@_0BF@LNLGBBNL@?$GAtemplate?9parameter?9@ 00000001400844e0     libvcruntime:undname.obj
 0002:00002500       ??_C@_0O@KHGCOMHP@generic?9type?9@ 0000000140084500     libvcruntime:undname.obj
 0002:00002510       ??_C@_0P@ODDENDLM@?$GAgeneric?9type?9@ 0000000140084510     libvcruntime:undname.obj
 0002:00002524       ??_C@_02OHHJMEON@?8?8@     0000000140084524     libvcruntime:undname.obj
 0002:00002528       ??_C@_0BN@IBLMMFAP@?$GAnon?9type?9template?9parameter@ 0000000140084528     libvcruntime:undname.obj
 0002:0000254c       ??_C@_03DLDNIBIK@?$CFlf@   000000014008454c     libvcruntime:undname.obj
 0002:00002550       ??_C@_04OFALKAJ@?$DP?$DP_C@ 0000000140084550     libvcruntime:undname.obj
 0002:00002558       ??_C@_03KHICJKCI@?4?4?4@   0000000140084558     libvcruntime:undname.obj
 0002:0000255c       ??_C@_04HIBGFPH@NULL@      000000014008455c     libvcruntime:undname.obj
 0002:00002564       ??_C@_02DPKJAMEF@?$CFd@    0000000140084564     libvcruntime:undname.obj
 0002:00002568       ??_C@_0BK@IHCCFNEL@?$GAtemplate?9type?9parameter?9@ 0000000140084568     libvcruntime:undname.obj
 0002:00002588       ??_C@_0BK@OFCNNNKO@?$GAgeneric?9class?9parameter?9@ 0000000140084588     libvcruntime:undname.obj
 0002:000025a8       ??_C@_0BL@NGJBLFIL@?$GAgeneric?9method?9parameter?9@ 00000001400845a8     libvcruntime:undname.obj
 0002:000025c8       ??_C@_07OHNGEDJK@nullptr@  00000001400845c8     libvcruntime:undname.obj
 0002:000025d4       ??_C@_06COJIGPIB@lambda@   00000001400845d4     libvcruntime:undname.obj
 0002:000025dc       ??_C@_04GKJNKENE@void@     00000001400845dc     libvcruntime:undname.obj
 0002:000025e8       ??_C@_0BE@EODMJLIF@?$GAtemplate?9parameter@ 00000001400845e8     libvcruntime:undname.obj
 0002:00002600       ??_C@_03OPGICMGF@?$HN?8?5@ 0000000140084600     libvcruntime:undname.obj
 0002:00002604       ??_C@_02IGFCGPIL@?$HN?8@   0000000140084604     libvcruntime:undname.obj
 0002:00002608       ??_C@_0N@CBHHHENL@?$GAvtordispex?$HL@ 0000000140084608     libvcruntime:undname.obj
 0002:00002618       ??_C@_0L@GHPFDFH@?$GAvtordisp?$HL@ 0000000140084618     libvcruntime:undname.obj
 0002:00002628       ??_C@_0L@HNGCOGAE@?$GAadjustor?$HL@ 0000000140084628     libvcruntime:undname.obj
 0002:00002638       ??_C@_0CB@KJDOOODE@?$GAlocal?5static?5destructor?5helper@ 0000000140084638     libvcruntime:undname.obj
 0002:00002660       ??_C@_0DB@ILEFOCIJ@?$GAtemplate?5static?5data?5member?5co@ 0000000140084660     libvcruntime:undname.obj
 0002:000026a0       ??_C@_0DA@HGFJFBBE@?$GAtemplate?5static?5data?5member?5de@ 00000001400846a0     libvcruntime:undname.obj
 0002:000026e0       ??_C@_07PGOEDBHP@static?5@ 00000001400846e0     libvcruntime:undname.obj
 0002:000026f0       ??_C@_08NIEOINHE@virtual?5@ 00000001400846f0     libvcruntime:undname.obj
 0002:00002700       ??_C@_09LAPHOOG@private?3?5@ 0000000140084700     libvcruntime:undname.obj
 0002:00002710       ??_C@_0M@GAIFPFIP@protected?3?5@ 0000000140084710     libvcruntime:undname.obj
 0002:00002720       ??_C@_08GPDDCMKI@public?3?5@ 0000000140084720     libvcruntime:undname.obj
 0002:00002730       ??_C@_08KJLFOPNE@?$FLthunk?$FN?3@ 0000000140084730     libvcruntime:undname.obj
 0002:00002740       ??_C@_0M@DHNBOJMP@extern?5?$CCC?$CC?5@ 0000000140084740     libvcruntime:undname.obj
 0002:00002750       ??_C@_02KCKGHPCA@?$CJ?5@   0000000140084750     libvcruntime:undname.obj
 0002:00002754       ??_C@_05CIHEBHNO@char?5@   0000000140084754     libvcruntime:undname.obj
 0002:0000275c       ??_C@_06EHJMALKF@short?5@  000000014008475c     libvcruntime:undname.obj
 0002:00002764       ??_C@_04LAHKHJMA@int?5@    0000000140084764     libvcruntime:undname.obj
 0002:0000276c       ??_C@_05CJIMAING@long?5@   000000014008476c     libvcruntime:undname.obj
 0002:00002778       ??_C@_09EBBEKKIH@unsigned?5@ 0000000140084778     libvcruntime:undname.obj
 0002:00002784       ??_C@_05BEFAKPML@void?5@   0000000140084784     libvcruntime:undname.obj
 0002:00002790       ??_C@_09GAIEOBLP@volatile?5@ 0000000140084790     libvcruntime:undname.obj
 0002:000027a0       ??_C@_08PABEKFH@volatile@  00000001400847a0     libvcruntime:undname.obj
 0002:000027b0       ??_C@_0BA@LKIJLKPP@std?3?3nullptr_t?5@ 00000001400847b0     libvcruntime:undname.obj
 0002:000027c8       ??_C@_0P@GCOCNKDM@std?3?3nullptr_t@ 00000001400847c8     libvcruntime:undname.obj
 0002:000027e0       ??_C@_0L@EGPHHEKN@?$DMellipsis?$DO@ 00000001400847e0     libvcruntime:undname.obj
 0002:000027f0       ??_C@_04EENFHACM@?0?4?4?4@ 00000001400847f0     libvcruntime:undname.obj
 0002:000027f8       ??_C@_0M@ELJOJFFH@?0?$DMellipsis?$DO@ 00000001400847f8     libvcruntime:undname.obj
 0002:00002808       ??_C@_09DNHFEOJI@?5noexcept@ 0000000140084808     libvcruntime:undname.obj
 0002:00002814       ??_C@_03PBJBJNON@cpu@      0000000140084814     libvcruntime:undname.obj
 0002:00002818       ??_C@_03DCBBJBAA@amp@      0000000140084818     libvcruntime:undname.obj
 0002:0000281c       ??_C@_02KEGNLNML@?0?5@     000000014008481c     libvcruntime:undname.obj
 0002:00002820       ??_C@_04ENMBGAPA@char@     0000000140084820     libvcruntime:undname.obj
 0002:00002828       ??_C@_05BFKKPKCG@short@    0000000140084828     libvcruntime:undname.obj
 0002:00002830       ??_C@_03JBIPMCLC@int@      0000000140084830     libvcruntime:undname.obj
 0002:00002834       ??_C@_04GOKPGOLB@long@     0000000140084834     libvcruntime:undname.obj
 0002:0000283c       ??_C@_05KNFBNCOH@float@    000000014008483c     libvcruntime:undname.obj
 0002:00002844       ??_C@_06BNJCAIGJ@double@   0000000140084844     libvcruntime:undname.obj
 0002:0000284c       ??_C@_04DDKJGDCM@bool@     000000014008484c     libvcruntime:undname.obj
 0002:00002854       ??_C@_06EBGKOKIG@__int8@   0000000140084854     libvcruntime:undname.obj
 0002:00002860       ??_C@_07ICFHOGAF@__int16@  0000000140084860     libvcruntime:undname.obj
 0002:00002870       ??_C@_07OFLPPHGP@__int32@  0000000140084870     libvcruntime:undname.obj
 0002:00002880       ??_C@_07LFCOJCAC@__int64@  0000000140084880     libvcruntime:undname.obj
 0002:00002890       ??_C@_08GAHOLHEO@__int128@ 0000000140084890     libvcruntime:undname.obj
 0002:000028a0       ??_C@_09EEKGDCPH@?$DMunknown?$DO@ 00000001400848a0     libvcruntime:undname.obj
 0002:000028b0       ??_C@_07CFHGOPCN@char8_t@  00000001400848b0     libvcruntime:undname.obj
 0002:000028c0       ??_C@_08HBIPOFJB@char16_t@ 00000001400848c0     libvcruntime:undname.obj
 0002:000028d0       ??_C@_08IECNCBKG@char32_t@ 00000001400848d0     libvcruntime:undname.obj
 0002:000028e0       ??_C@_07CLGGIAMF@wchar_t@  00000001400848e0     libvcruntime:undname.obj
 0002:000028ec       ??_C@_04HAPDLBFF@auto@     00000001400848ec     libvcruntime:undname.obj
 0002:000028f8       ??_C@_0P@LHCGKIGK@decltype?$CIauto?$CJ@ 00000001400848f8     libvcruntime:undname.obj
 0002:0000290c       ??_C@_05PCNBGHCF@this?5@   000000014008490c     libvcruntime:undname.obj
 0002:00002914       ??_C@_06GCICPBLB@__w64?5@  0000000140084914     libvcruntime:undname.obj
 0002:00002920       ??_C@_07NFANNNEC@UNKNOWN@  0000000140084920     libvcruntime:undname.obj
 0002:00002930       ??_C@_07EDHNAJHC@signed?5@ 0000000140084930     libvcruntime:undname.obj
 0002:0000293c       ??_C@_05BNCCCJPP@const@    000000014008493c     libvcruntime:undname.obj
 0002:00002948       ??_C@_09EFNPDFFP@?5volatile@ 0000000140084948     libvcruntime:undname.obj
 0002:00002958       ??_C@_0P@GCIFDJCJ@?$GAunknown?5ecsu?8@ 0000000140084958     libvcruntime:undname.obj
 0002:0000296c       ??_C@_06MOJHIBMG@union?5@  000000014008496c     libvcruntime:undname.obj
 0002:00002978       ??_C@_07DIBCDNGL@struct?5@ 0000000140084978     libvcruntime:undname.obj
 0002:00002984       ??_C@_06LJBABKPM@class?5@  0000000140084984     libvcruntime:undname.obj
 0002:00002990       ??_C@_08KOFANOFK@coclass?5@ 0000000140084990     libvcruntime:undname.obj
 0002:000029a0       ??_C@_0N@DLIEFKNA@cointerface?5@ 00000001400849a0     libvcruntime:undname.obj
 0002:000029b0       ??_C@_05LJGMCFOG@enum?5@   00000001400849b0     libvcruntime:undname.obj
 0002:000029b8       ??_C@_06LIJLOJAG@const?5@  00000001400849b8     libvcruntime:undname.obj
 0002:000029c0       ??_C@_02KJPKDIBN@?$CG?5@   00000001400849c0     libvcruntime:undname.obj
 0002:000029c4       ??_C@_03PCKGMOPB@?$CG?$CG?5@ 00000001400849c4     libvcruntime:undname.obj
 0002:000029c8       ??_C@_0M@EALIELKG@cli?3?3array?$DM@ 00000001400849c8     libvcruntime:undname.obj
 0002:000029d8       ??_C@_0O@GKABPPIF@cli?3?3pin_ptr?$DM@ 00000001400849d8     libvcruntime:undname.obj
 0002:000029e8       ??_C@_02GOGNNPBN@?$CJ?$FL@ 00000001400849e8     libvcruntime:undname.obj
 0002:000029ec       ??_C@_06EEGAIFAK@?$HLflat?$HN@ 00000001400849ec     libvcruntime:undname.obj
 0002:000029f4       ??_C@_05JIBOFOHK@?$HLfor?5@ 00000001400849f4     libvcruntime:undname.obj
 0002:000029fc       ??_C@_02MDINNEEG@s?5@      00000001400849fc     libvcruntime:undname.obj
 0002:00002a08       ??_7DNameNode@@6B@         0000000140084a08     libvcruntime:undname.obj
 0002:00002a38       ??_7charNode@@6B@          0000000140084a38     libvcruntime:undname.obj
 0002:00002a68       ??_7pcharNode@@6B@         0000000140084a68     libvcruntime:undname.obj
 0002:00002a98       ??_7pDNameNode@@6B@        0000000140084a98     libvcruntime:undname.obj
 0002:00002ac8       ??_7DNameStatusNode@@6B@   0000000140084ac8     libvcruntime:undname.obj
 0002:00002af8       ??_7pairNode@@6B@          0000000140084af8     libvcruntime:undname.obj
 0002:00002c54       ??_C@_04OKOHEJBO@?5?$DP?$DP?5@ 0000000140084c54     libvcruntime:undname.obj
 0002:00002c60       ?nodes@?1??make@DNameStatusNode@@SAPEBV2@W4DNameStatus@@@Z@4QBV2@B 0000000140084c60     libvcruntime:undname.obj
 0002:00002cd0       ??_C@_1DM@KHCHBNEB@?$AAa?$AAp?$AAi?$AA?9?$AAm?$AAs?$AA?9?$AAw?$AAi?$AAn?$AA?9?$AAc?$AAo?$AAr?$AAe@ 0000000140084cd0     libvcruntime:winapi_downlevel.obj
 0002:00002d18       ??_C@_1DK@LPPGFMPP@?$AAa?$AAp?$AAi?$AA?9?$AAm?$AAs?$AA?9?$AAw?$AAi?$AAn?$AA?9?$AAc?$AAo?$AAr?$AAe@ 0000000140084d18     libvcruntime:winapi_downlevel.obj
 0002:00002d60       ??_C@_1BC@GDMECMAK@?$AAk?$AAe?$AAr?$AAn?$AAe?$AAl?$AA3?$AA2@ 0000000140084d60     libvcruntime:winapi_downlevel.obj
 0002:00002d78       ??_C@_1BA@PFFKHIOG@?$AAa?$AAp?$AAi?$AA?9?$AAm?$AAs?$AA?9@ 0000000140084d78     libvcruntime:winapi_downlevel.obj
 0002:00002da0       ??_C@_08KNHFBNJ@FlsAlloc@  0000000140084da0     libvcruntime:winapi_downlevel.obj
 0002:00002dc0       ??_C@_07PEJMOBNF@FlsFree@  0000000140084dc0     libvcruntime:winapi_downlevel.obj
 0002:00002de0       ??_C@_0M@GDNOONDI@FlsGetValue@ 0000000140084de0     libvcruntime:winapi_downlevel.obj
 0002:00002e00       ??_C@_0M@JCPCPOEF@FlsSetValue@ 0000000140084e00     libvcruntime:winapi_downlevel.obj
 0002:00002e20       ??_C@_0BM@HCFOFFN@InitializeCriticalSectionEx@ 0000000140084e20     libvcruntime:winapi_downlevel.obj
 0002:00002e48       ?s_negLengthTab@FH4@@3QBCB 0000000140084e48     libvcruntime:risctrnsctrl.obj
 0002:00002e60       ?s_shiftTab@FH4@@3QBEB     0000000140084e60     libvcruntime:risctrnsctrl.obj
 0002:00003000       ??_7exception@std@@6B@     0000000140085000     libvcruntime:frame.obj
 0002:00003018       ??_C@_0BC@EOODALEL@Unknown?5exception@ 0000000140085018     libvcruntime:frame.obj
 0002:00003038       ??_7bad_exception@std@@6B@ 0000000140085038     libvcruntime:frame.obj
 0002:00003050       ??_C@_0O@DPKOEFFH@bad?5exception@ 0000000140085050     libvcruntime:frame.obj
 0002:00003060       _Fenv1                     0000000140085060     libucrt:atox.obj
 0002:00003070       ??_C@_0CK@CFPGFGGO@Assertion?5failed?3?5?$CFTs?0?5file?5?$CFTs@ 0000000140085070     libucrt:assert.obj
 0002:000030b0       ??_C@_1FE@LHBLIKM@?$AAA?$AAs?$AAs?$AAe?$AAr?$AAt?$AAi?$AAo?$AAn?$AA?5?$AAf?$AAa?$AAi?$AAl?$AAe@ 00000001400850b0     libucrt:assert.obj
 0002:00003118       ??_C@_0CF@GOGNBNAK@Microsoft?5Visual?5C?$CL?$CL?5Runtime?5Li@ 0000000140085118     libucrt:assert.obj
 0002:00003150       ??_C@_1EK@MBDPDCGA@?$AAM?$AAi?$AAc?$AAr?$AAo?$AAs?$AAo?$AAf?$AAt?$AA?5?$AAV?$AAi?$AAs?$AAu?$AAa@ 0000000140085150     libucrt:assert.obj
 0002:000031a8       ??_C@_0BC@LAIDCHCH@Assertion?5failed?$CB@ 00000001400851a8     libucrt:assert.obj
 0002:000031c0       ??_C@_1CE@OJBNHDMO@?$AAA?$AAs?$AAs?$AAe?$AAr?$AAt?$AAi?$AAo?$AAn?$AA?5?$AAf?$AAa?$AAi?$AAl?$AAe@ 00000001400851c0     libucrt:assert.obj
 0002:000031f0       ??_C@_09KLGCKDOD@Program?3?5@ 00000001400851f0     libucrt:assert.obj
 0002:00003200       ??_C@_1BE@PHKBBGE@?$AAP?$AAr?$AAo?$AAg?$AAr?$AAa?$AAm?$AA?3?$AA?5@ 0000000140085200     libucrt:assert.obj
 0002:00003218       ??_C@_06IGPBOHMJ@File?3?5@ 0000000140085218     libucrt:assert.obj
 0002:00003220       ??_C@_1O@HEMHKNDC@?$AAF?$AAi?$AAl?$AAe?$AA?3?$AA?5@ 0000000140085220     libucrt:assert.obj
 0002:00003230       ??_C@_06FIEBOLOH@Line?3?5@ 0000000140085230     libucrt:assert.obj
 0002:00003238       ??_C@_1O@KCAFKHJE@?$AAL?$AAi?$AAn?$AAe?$AA?3?$AA?5@ 0000000140085238     libucrt:assert.obj
 0002:00003248       ??_C@_0N@MEECIJGN@Expression?3?5@ 0000000140085248     libucrt:assert.obj
 0002:00003258       ??_C@_1BK@PEDCIPMA@?$AAE?$AAx?$AAp?$AAr?$AAe?$AAs?$AAs?$AAi?$AAo?$AAn?$AA?3?$AA?5@ 0000000140085258     libucrt:assert.obj
 0002:00003280       ??_C@_0HA@OJHAGA@For?5information?5on?5how?5your?5pro@ 0000000140085280     libucrt:assert.obj
 0002:00003310       ??_C@_1OA@EGMLFBHJ@?$AAF?$AAo?$AAr?$AA?5?$AAi?$AAn?$AAf?$AAo?$AAr?$AAm?$AAa?$AAt?$AAi?$AAo?$AAn@ 0000000140085310     libucrt:assert.obj
 0002:00003420       ??_C@_0DN@EBBNMLME@?$CIPress?5Retry?5to?5debug?5the?5appli@ 0000000140085420     libucrt:assert.obj
 0002:00003470       ??_C@_1HK@POCJMFGK@?$AA?$CI?$AAP?$AAr?$AAe?$AAs?$AAs?$AA?5?$AAR?$AAe?$AAt?$AAr?$AAy?$AA?5?$AAt?$AAo@ 0000000140085470     libucrt:assert.obj
 0002:00003508       ??_C@_17LGKOMLJ@?$AA?4?$AA?4?$AA?4@ 0000000140085508     libucrt:assert.obj
 0002:00003514       ??_C@_01EEMJAFIK@?6@       0000000140085514     libucrt:assert.obj
 0002:00003518       ??_C@_13LBAGMAIH@?$AA?6@   0000000140085518     libucrt:assert.obj
 0002:0000351c       ??_C@_02PHMGELLB@?6?6@     000000014008551c     libucrt:assert.obj
 0002:00003520       ??_C@_15IABLJNFO@?$AA?6?$AA?6@ 0000000140085520     libucrt:assert.obj
 0002:00003528       ??_C@_0BH@DNAGHKFM@?$DMprogram?5name?5unknown?$DO@ 0000000140085528     libucrt:assert.obj
 0002:00003548       ??_C@_1CO@EAEJAADC@?$AA?$DM?$AAp?$AAr?$AAo?$AAg?$AAr?$AAa?$AAm?$AA?5?$AAn?$AAa?$AAm?$AAe?$AA?5?$AAu@ 0000000140085548     libucrt:assert.obj
 0002:00003580       ?standard_lookup_table_spectre@__crt_stdio_output@@3V?$spectre_mitigated_lookup_table@Ustate_transition_pair@__crt_stdio_output@@$0IA@@1@B 0000000140085580     libucrt:output.obj
 0002:000036c0       ?format_validation_lookup_table_spectre@__crt_stdio_output@@3V?$spectre_mitigated_lookup_table@Ustate_transition_pair@__crt_stdio_output@@$0IA@@1@B 00000001400856c0     libucrt:output.obj
 0002:000037f8       ??_C@_1O@CEDCILHN@?$AA?$CI?$AAn?$AAu?$AAl?$AAl?$AA?$CJ@ 00000001400857f8     libucrt:output.obj
 0002:00003808       ??_C@_06OJHGLDPL@?$CInull?$CJ@ 0000000140085808     libucrt:output.obj
 0002:00003810       __acrt_exception_action_table 0000000140085810     libucrt:exception_filter.obj
 0002:000038f8       __acrt_signal_action_table_count 00000001400858f8     libucrt:exception_filter.obj
 0002:00003908       __acrt_signal_action_table_size 0000000140085908     libucrt:exception_filter.obj
 0002:00003918       __acrt_signal_action_first_fpe_index 0000000140085918     libucrt:exception_filter.obj
 0002:00003928       __acrt_signal_action_fpe_count 0000000140085928     libucrt:exception_filter.obj
 0002:00003938       ??_C@_1DE@JNGNBFGO@?$AAR?$AAu?$AAn?$AAt?$AAi?$AAm?$AAe?$AA?5?$AAE?$AAr?$AAr?$AAo?$AAr?$AA?$CB?$AA?6@ 0000000140085938     libucrt:report_runtime_error.obj
 0002:00003a08       RtlNtPathSeperatorString   0000000140085a08     libucrt:exit.obj
 0002:00003a1c       ??_C@_13FPGAJAPJ@?$AA?2@   0000000140085a1c     libucrt:exit.obj
 0002:00003a20       RtlDosPathSeperatorsString 0000000140085a20     libucrt:exit.obj
 0002:00003a34       ??_C@_15MNCACJLI@?$AA?2?$AA?1@ 0000000140085a34     libucrt:exit.obj
 0002:00003a40       RtlAlternateDosPathSeperatorString 0000000140085a40     libucrt:exit.obj
 0002:00003a54       ??_C@_13CGOKJPIL@?$AA?1@   0000000140085a54     libucrt:exit.obj
 0002:00003ae8       ??_C@_1BI@BGOHAHKC@?$AAm?$AAs?$AAc?$AAo?$AAr?$AAe?$AAe?$AA?4?$AAd?$AAl?$AAl@ 0000000140085ae8     libucrt:exit.obj
 0002:00003b08       ??_C@_0P@MIGLKIOC@CorExitProcess@ 0000000140085b08     libucrt:exit.obj
 0002:00003bc0       __lc_category              0000000140085bc0     libucrt:wsetlocale.obj
 0002:00003c70       ??_C@_1O@GIFLHMA@?$AAL?$AAC?$AA_?$AAA?$AAL?$AAL@ 0000000140085c70     libucrt:wsetlocale.obj
 0002:00003c80       ??_C@_1BG@PPOMIBNJ@?$AAL?$AAC?$AA_?$AAC?$AAO?$AAL?$AAL?$AAA?$AAT?$AAE@ 0000000140085c80     libucrt:wsetlocale.obj
 0002:00003ca0       ??_C@_1BC@FFJGAPJM@?$AAL?$AAC?$AA_?$AAC?$AAT?$AAY?$AAP?$AAE@ 0000000140085ca0     libucrt:wsetlocale.obj
 0002:00003cb8       ??_C@_1BI@PCKFNJFB@?$AAL?$AAC?$AA_?$AAM?$AAO?$AAN?$AAE?$AAT?$AAA?$AAR?$AAY@ 0000000140085cb8     libucrt:wsetlocale.obj
 0002:00003cd8       ??_C@_1BG@ENIEDKID@?$AAL?$AAC?$AA_?$AAN?$AAU?$AAM?$AAE?$AAR?$AAI?$AAC@ 0000000140085cd8     libucrt:wsetlocale.obj
 0002:00003cf8       ??_C@_1BA@HAAOMIIG@?$AAL?$AAC?$AA_?$AAT?$AAI?$AAM?$AAE@ 0000000140085cf8     libucrt:wsetlocale.obj
 0002:00003d0c       ??_C@_15NBPDDFIP@?$AA?$DN?$AA?$DL@ 0000000140085d0c     libucrt:wsetlocale.obj
 0002:00003d14       ??_C@_13PJJBFPED@?$AA?$DL@ 0000000140085d14     libucrt:wsetlocale.obj
 0002:00003d18       ??_C@_13NMPKAAJP@?$AA?$DN@ 0000000140085d18     libucrt:wsetlocale.obj
 0002:00003d1c       ??_C@_13IMODFHAA@?$AA?9@   0000000140085d1c     libucrt:wsetlocale.obj
 0002:00003d20       ??_C@_17EFJLDFDO@?$AA?9?$AA_?$AA?4@ 0000000140085d20     libucrt:wsetlocale.obj
 0002:00003d2c       ??_C@_13FHBKNHDA@?$AAC@    0000000140085d2c     libucrt:wsetlocale.obj
 0002:00003d30       ??_C@_17MBJJLFDM@?$AA_?$AA?4?$AA?0@ 0000000140085d30     libucrt:wsetlocale.obj
 0002:00003d3c       ??_C@_13ENNFDPBH@?$AA_@    0000000140085d3c     libucrt:wsetlocale.obj
 0002:00003d40       ??_C@_13JOFGPIOO@?$AA?4@   0000000140085d40     libucrt:wsetlocale.obj
 0002:00003ef0       __newctype                 0000000140085ef0     libucrt:ctype.obj
 0002:00004290       __newclmap                 0000000140086290     libucrt:ctype.obj
 0002:00004460       __newcumap                 0000000140086460     libucrt:ctype.obj
 0002:00004630       _wctype                    0000000140086630     libucrt:ctype.obj
 0002:00004a50       __lc_time_c                0000000140086a50     libucrt:nlsdata.obj
 0002:00004d9c       ??_C@_03KOEHGMDN@Sun@      0000000140086d9c     libucrt:nlsdata.obj
 0002:00004da0       ??_C@_03PDAGKDH@Mon@       0000000140086da0     libucrt:nlsdata.obj
 0002:00004da4       ??_C@_03NAGEINEP@Tue@      0000000140086da4     libucrt:nlsdata.obj
 0002:00004da8       ??_C@_03MHOMLAJA@Wed@      0000000140086da8     libucrt:nlsdata.obj
 0002:00004dac       ??_C@_03IOFIKPDN@Thu@      0000000140086dac     libucrt:nlsdata.obj
 0002:00004db0       ??_C@_03IDIOELNC@Fri@      0000000140086db0     libucrt:nlsdata.obj
 0002:00004db4       ??_C@_03FEFJNEK@Sat@       0000000140086db4     libucrt:nlsdata.obj
 0002:00004db8       ??_C@_06OOPIFAJ@Sunday@    0000000140086db8     libucrt:nlsdata.obj
 0002:00004dc0       ??_C@_06JLEDEDGH@Monday@   0000000140086dc0     libucrt:nlsdata.obj
 0002:00004dc8       ??_C@_07BAAGCFCM@Tuesday@  0000000140086dc8     libucrt:nlsdata.obj
 0002:00004dd8       ??_C@_09DLIGFAKA@Wednesday@ 0000000140086dd8     libucrt:nlsdata.obj
 0002:00004de8       ??_C@_08HACCIKIA@Thursday@ 0000000140086de8     libucrt:nlsdata.obj
 0002:00004df4       ??_C@_06JECMNKMI@Friday@   0000000140086df4     libucrt:nlsdata.obj
 0002:00004e00       ??_C@_08INBOOONO@Saturday@ 0000000140086e00     libucrt:nlsdata.obj
 0002:00004e0c       ??_C@_03JIHJHPIE@Jan@      0000000140086e0c     libucrt:nlsdata.obj
 0002:00004e10       ??_C@_03HJBDCHOM@Feb@      0000000140086e10     libucrt:nlsdata.obj
 0002:00004e14       ??_C@_03ODNJBKGA@Mar@      0000000140086e14     libucrt:nlsdata.obj
 0002:00004e18       ??_C@_03LEOLGMJP@Apr@      0000000140086e18     libucrt:nlsdata.obj
 0002:00004e1c       ??_C@_03CNMDKL@May@        0000000140086e1c     libucrt:nlsdata.obj
 0002:00004e20       ??_C@_03IDFGHECI@Jun@      0000000140086e20     libucrt:nlsdata.obj
 0002:00004e24       ??_C@_03LBGABGKK@Jul@      0000000140086e24     libucrt:nlsdata.obj
 0002:00004e28       ??_C@_03IFJFEIGA@Aug@      0000000140086e28     libucrt:nlsdata.obj
 0002:00004e2c       ??_C@_03GGCAPAJC@Sep@      0000000140086e2c     libucrt:nlsdata.obj
 0002:00004e30       ??_C@_03BMAOKBAD@Oct@      0000000140086e30     libucrt:nlsdata.obj
 0002:00004e34       ??_C@_03JPJOFNIA@Nov@      0000000140086e34     libucrt:nlsdata.obj
 0002:00004e38       ??_C@_03MKABNOCG@Dec@      0000000140086e38     libucrt:nlsdata.obj
 0002:00004e40       ??_C@_07CGJPFGJA@January@  0000000140086e40     libucrt:nlsdata.obj
 0002:00004e50       ??_C@_08GNJGEPFN@February@ 0000000140086e50     libucrt:nlsdata.obj
 0002:00004e5c       ??_C@_05HPCKOFNC@March@    0000000140086e5c     libucrt:nlsdata.obj
 0002:00004e64       ??_C@_05DMJDNLEJ@April@    0000000140086e64     libucrt:nlsdata.obj
 0002:00004e6c       ??_C@_04CNLMGBGM@June@     0000000140086e6c     libucrt:nlsdata.obj
 0002:00004e74       ??_C@_04MIEPOIFP@July@     0000000140086e74     libucrt:nlsdata.obj
 0002:00004e7c       ??_C@_06LBBHFDDG@August@   0000000140086e7c     libucrt:nlsdata.obj
 0002:00004e88       ??_C@_09BHHEALKD@September@ 0000000140086e88     libucrt:nlsdata.obj
 0002:00004e98       ??_C@_07JJNFCEND@October@  0000000140086e98     libucrt:nlsdata.obj
 0002:00004ea8       ??_C@_08HCHEGEOA@November@ 0000000140086ea8     libucrt:nlsdata.obj
 0002:00004eb8       ??_C@_08EDHMEBNP@December@ 0000000140086eb8     libucrt:nlsdata.obj
 0002:00004ec4       ??_C@_02DEDBPAFC@AM@       0000000140086ec4     libucrt:nlsdata.obj
 0002:00004ec8       ??_C@_02CJNFDJBF@PM@       0000000140086ec8     libucrt:nlsdata.obj
 0002:00004ed0       ??_C@_08BPBNCDIB@MM?1dd?1yy@ 0000000140086ed0     libucrt:nlsdata.obj
 0002:00004ee0       ??_C@_0BE@CKGJFCPC@dddd?0?5MMMM?5dd?0?5yyyy@ 0000000140086ee0     libucrt:nlsdata.obj
 0002:00004ef8       ??_C@_08JCCMCCIL@HH?3mm?3ss@ 0000000140086ef8     libucrt:nlsdata.obj
 0002:00004f08       ??_C@_17MBGCMIPB@?$AAS?$AAu?$AAn@ 0000000140086f08     libucrt:nlsdata.obj
 0002:00004f18       ??_C@_17KBOMKBF@?$AAM?$AAo?$AAn@ 0000000140086f18     libucrt:nlsdata.obj
 0002:00004f28       ??_C@_17BMKGEGOJ@?$AAT?$AAu?$AAe@ 0000000140086f28     libucrt:nlsdata.obj
 0002:00004f38       ??_C@_17CJEDCEPE@?$AAW?$AAe?$AAd@ 0000000140086f38     libucrt:nlsdata.obj
 0002:00004f48       ??_C@_17PDPHAADD@?$AAT?$AAh?$AAu@ 0000000140086f48     libucrt:nlsdata.obj
 0002:00004f58       ??_C@_17HFOLPPLP@?$AAF?$AAr?$AAi@ 0000000140086f58     libucrt:nlsdata.obj
 0002:00004f68       ??_C@_17GGIBDPIH@?$AAS?$AAa?$AAt@ 0000000140086f68     libucrt:nlsdata.obj
 0002:00004f78       ??_C@_1O@IHNHDHPB@?$AAS?$AAu?$AAn?$AAd?$AAa?$AAy@ 0000000140086f78     libucrt:nlsdata.obj
 0002:00004f88       ??_C@_1O@MMNBFLIA@?$AAM?$AAo?$AAn?$AAd?$AAa?$AAy@ 0000000140086f88     libucrt:nlsdata.obj
 0002:00004f98       ??_C@_1BA@ENFBFFEK@?$AAT?$AAu?$AAe?$AAs?$AAd?$AAa?$AAy@ 0000000140086f98     libucrt:nlsdata.obj
 0002:00004fb0       ??_C@_1BE@EBOGMDOH@?$AAW?$AAe?$AAd?$AAn?$AAe?$AAs?$AAd?$AAa?$AAy@ 0000000140086fb0     libucrt:nlsdata.obj
 0002:00004fc8       ??_C@_1BC@HHMNLIHE@?$AAT?$AAh?$AAu?$AAr?$AAs?$AAd?$AAa?$AAy@ 0000000140086fc8     libucrt:nlsdata.obj
 0002:00004fe0       ??_C@_1O@PDICJHAG@?$AAF?$AAr?$AAi?$AAd?$AAa?$AAy@ 0000000140086fe0     libucrt:nlsdata.obj
 0002:00004ff0       ??_C@_1BC@ENMNNPAJ@?$AAS?$AAa?$AAt?$AAu?$AAr?$AAd?$AAa?$AAy@ 0000000140086ff0     libucrt:nlsdata.obj
 0002:00005008       ??_C@_17DKNBKCHM@?$AAJ?$AAa?$AAn@ 0000000140087008     libucrt:nlsdata.obj
 0002:00005018       ??_C@_17LMDJEKJN@?$AAF?$AAe?$AAb@ 0000000140087018     libucrt:nlsdata.obj
 0002:00005028       ??_C@_17CKNLEDEC@?$AAM?$AAa?$AAr@ 0000000140087028     libucrt:nlsdata.obj
 0002:00005038       ??_C@_17LFPOIHDD@?$AAA?$AAp?$AAr@ 0000000140087038     libucrt:nlsdata.obj
 0002:00005048       ??_C@_17PNNKMEED@?$AAM?$AAa?$AAy@ 0000000140087048     libucrt:nlsdata.obj
 0002:00005058       ??_C@_17KCJGOCPB@?$AAJ?$AAu?$AAn@ 0000000140087058     libucrt:nlsdata.obj
 0002:00005068       ??_C@_17IJPCKHK@?$AAJ?$AAu?$AAl@ 0000000140087068     libucrt:nlsdata.obj
 0002:00005078       ??_C@_17ICPELBCN@?$AAA?$AAu?$AAg@ 0000000140087078     libucrt:nlsdata.obj
 0002:00005088       ??_C@_17HCHCOKMG@?$AAS?$AAe?$AAp@ 0000000140087088     libucrt:nlsdata.obj
 0002:00005098       ??_C@_17FNLKOI@?$AAO?$AAc?$AAt@ 0000000140087098     libucrt:nlsdata.obj
 0002:000050a8       ??_C@_17BBDMLCIG@?$AAN?$AAo?$AAv@ 00000001400870a8     libucrt:nlsdata.obj
 0002:000050b8       ??_C@_17EGKACKIF@?$AAD?$AAe?$AAc@ 00000001400870b8     libucrt:nlsdata.obj
 0002:000050c8       ??_C@_1BA@EFMEIEBA@?$AAJ?$AAa?$AAn?$AAu?$AAa?$AAr?$AAy@ 00000001400870c8     libucrt:nlsdata.obj
 0002:000050e0       ??_C@_1BC@JGDDFFAM@?$AAF?$AAe?$AAb?$AAr?$AAu?$AAa?$AAr?$AAy@ 00000001400870e0     libucrt:nlsdata.obj
 0002:000050f8       ??_C@_1M@IKEENEDF@?$AAM?$AAa?$AAr?$AAc?$AAh@ 00000001400870f8     libucrt:nlsdata.obj
 0002:00005108       ??_C@_1M@GJNLMHFD@?$AAA?$AAp?$AAr?$AAi?$AAl@ 0000000140087108     libucrt:nlsdata.obj
 0002:00005118       ??_C@_19EPFLPGAP@?$AAJ?$AAu?$AAn?$AAe@ 0000000140087118     libucrt:nlsdata.obj
 0002:00005128       ??_C@_19BIFMLPCD@?$AAJ?$AAu?$AAl?$AAy@ 0000000140087128     libucrt:nlsdata.obj
 0002:00005138       ??_C@_1O@PAHLKOAC@?$AAA?$AAu?$AAg?$AAu?$AAs?$AAt@ 0000000140087138     libucrt:nlsdata.obj
 0002:00005148       ??_C@_1BE@DKAAMBJL@?$AAS?$AAe?$AAp?$AAt?$AAe?$AAm?$AAb?$AAe?$AAr@ 0000000140087148     libucrt:nlsdata.obj
 0002:00005160       ??_C@_1BA@EPANDLNG@?$AAO?$AAc?$AAt?$AAo?$AAb?$AAe?$AAr@ 0000000140087160     libucrt:nlsdata.obj
 0002:00005178       ??_C@_1BC@BGLIFPF@?$AAN?$AAo?$AAv?$AAe?$AAm?$AAb?$AAe?$AAr@ 0000000140087178     libucrt:nlsdata.obj
 0002:00005190       ??_C@_1BC@FEMKIFH@?$AAD?$AAe?$AAc?$AAe?$AAm?$AAb?$AAe?$AAr@ 0000000140087190     libucrt:nlsdata.obj
 0002:000051a8       ??_C@_15ODEHAHHF@?$AAA?$AAM@ 00000001400871a8     libucrt:nlsdata.obj
 0002:000051b0       ??_C@_15CLMNNGEL@?$AAP?$AAM@ 00000001400871b0     libucrt:nlsdata.obj
 0002:000051b8       ??_C@_1BC@IEBCMHCM@?$AAM?$AAM?$AA?1?$AAd?$AAd?$AA?1?$AAy?$AAy@ 00000001400871b8     libucrt:nlsdata.obj
 0002:000051d0       ??_C@_1CI@KNAKOEBC@?$AAd?$AAd?$AAd?$AAd?$AA?0?$AA?5?$AAM?$AAM?$AAM?$AAM?$AA?5?$AAd?$AAd?$AA?0?$AA?5@ 00000001400871d0     libucrt:nlsdata.obj
 0002:00005200       ??_C@_1BC@GDGBMEMK@?$AAH?$AAH?$AA?3?$AAm?$AAm?$AA?3?$AAs?$AAs@ 0000000140087200     libucrt:nlsdata.obj
 0002:00005218       ??_C@_1M@BMHNFIME@?$AAe?$AAn?$AA?9?$AAU?$AAS@ 0000000140087218     libucrt:nlsdata.obj
 0002:000052f0       ??_C@_1EA@JGEFHKEI@?$AAa?$AAp?$AAi?$AA?9?$AAm?$AAs?$AA?9?$AAw?$AAi?$AAn?$AA?9?$AAc?$AAo?$AAr?$AAe@ 00000001400872f0     libucrt:winapi_thunks.obj
 0002:00005340       ??_C@_1DI@IJCEHOCB@?$AAa?$AAp?$AAi?$AA?9?$AAm?$AAs?$AA?9?$AAw?$AAi?$AAn?$AA?9?$AAc?$AAo?$AAr?$AAe@ 0000000140087340     libucrt:winapi_thunks.obj
 0002:00005390       ??_C@_1EI@MPIAOHOC@?$AAa?$AAp?$AAi?$AA?9?$AAm?$AAs?$AA?9?$AAw?$AAi?$AAn?$AA?9?$AAc?$AAo?$AAr?$AAe@ 0000000140087390     libucrt:winapi_thunks.obj
 0002:000053f0       ??_C@_1FK@FPHCKFIE@?$AAa?$AAp?$AAi?$AA?9?$AAm?$AAs?$AA?9?$AAw?$AAi?$AAn?$AA?9?$AAc?$AAo?$AAr?$AAe@ 00000001400873f0     libucrt:winapi_thunks.obj
 0002:00005460       ??_C@_1EM@DILCGIIO@?$AAa?$AAp?$AAi?$AA?9?$AAm?$AAs?$AA?9?$AAw?$AAi?$AAn?$AA?9?$AAc?$AAo?$AAr?$AAe@ 0000000140087460     libucrt:winapi_thunks.obj
 0002:000054c0       ??_C@_1DM@LNCGDDPN@?$AAa?$AAp?$AAi?$AA?9?$AAm?$AAs?$AA?9?$AAw?$AAi?$AAn?$AA?9?$AAc?$AAo?$AAr?$AAe@ 00000001400874c0     libucrt:winapi_thunks.obj
 0002:00005508       ??_C@_1DO@FPAPJEMD@?$AAa?$AAp?$AAi?$AA?9?$AAm?$AAs?$AA?9?$AAw?$AAi?$AAn?$AA?9?$AAc?$AAo?$AAr?$AAe@ 0000000140087508     libucrt:winapi_thunks.obj
 0002:00005558       ??_C@_1DK@NDHNAHIO@?$AAa?$AAp?$AAi?$AA?9?$AAm?$AAs?$AA?9?$AAw?$AAi?$AAn?$AA?9?$AAc?$AAo?$AAr?$AAe@ 0000000140087558     libucrt:winapi_thunks.obj
 0002:000055a0       ??_C@_1DM@KGHDGBCM@?$AAa?$AAp?$AAi?$AA?9?$AAm?$AAs?$AA?9?$AAw?$AAi?$AAn?$AA?9?$AAc?$AAo?$AAr?$AAe@ 00000001400875a0     libucrt:winapi_thunks.obj
 0002:000055f0       ??_C@_1EO@IJIOEFOH@?$AAa?$AAp?$AAi?$AA?9?$AAm?$AAs?$AA?9?$AAw?$AAi?$AAn?$AA?9?$AAr?$AAt?$AAc?$AAo@ 00000001400875f0     libucrt:winapi_thunks.obj
 0002:00005650       ??_C@_1FG@HHGEKANL@?$AAa?$AAp?$AAi?$AA?9?$AAm?$AAs?$AA?9?$AAw?$AAi?$AAn?$AA?9?$AAs?$AAe?$AAc?$AAu@ 0000000140087650     libucrt:winapi_thunks.obj
 0002:000056c0       ??_C@_1EG@DBIOJECG@?$AAe?$AAx?$AAt?$AA?9?$AAm?$AAs?$AA?9?$AAw?$AAi?$AAn?$AA?9?$AAn?$AAt?$AAu?$AAs@ 00000001400876c0     libucrt:winapi_thunks.obj
 0002:00005720       ??_C@_1EO@FIHMJCLF@?$AAe?$AAx?$AAt?$AA?9?$AAm?$AAs?$AA?9?$AAw?$AAi?$AAn?$AA?9?$AAn?$AAt?$AAu?$AAs@ 0000000140087720     libucrt:winapi_thunks.obj
 0002:00005780       ??_C@_1BC@DNHGCMLG@?$AAa?$AAd?$AAv?$AAa?$AAp?$AAi?$AA3?$AA2@ 0000000140087780     libucrt:winapi_thunks.obj
 0002:00005798       ??_C@_1M@OAIMIKLP@?$AAn?$AAt?$AAd?$AAl?$AAl@ 0000000140087798     libucrt:winapi_thunks.obj
 0002:000057b0       ??_C@_1EG@DPGNFKGC@?$AAa?$AAp?$AAi?$AA?9?$AAm?$AAs?$AA?9?$AAw?$AAi?$AAn?$AA?9?$AAa?$AAp?$AAp?$AAm@ 00000001400877b0     libucrt:winapi_thunks.obj
 0002:00005808       ??_C@_1O@BCCLBEOE@?$AAu?$AAs?$AAe?$AAr?$AA3?$AA2@ 0000000140087808     libucrt:winapi_thunks.obj
 0002:00005818       ??_C@_1BA@IAIFMGEF@?$AAe?$AAx?$AAt?$AA?9?$AAm?$AAs?$AA?9@ 0000000140087818     libucrt:winapi_thunks.obj
 0002:00005830       ??_C@_0BA@FHFNEAED@AreFileApisANSI@ 0000000140087830     libucrt:winapi_thunks.obj
 0002:00005858       ??_C@_0BA@IHGNDAEB@CompareStringEx@ 0000000140087858     libucrt:winapi_thunks.obj
 0002:00005880       ??_C@_0BE@LJANKFHF@EnumSystemLocalesEx@ 0000000140087880     libucrt:winapi_thunks.obj
 0002:000058a8       ??_C@_0BA@HNOPNCHB@GetActiveWindow@ 00000001400878a8     libucrt:winapi_thunks.obj
 0002:000058d0       ??_C@_0BA@EPCJIIPD@GetDateFormatEx@ 00000001400878d0     libucrt:winapi_thunks.obj
 0002:000058f8       ??_C@_0BJ@DIBIJBHA@GetEnabledXStateFeatures@ 00000001400878f8     libucrt:winapi_thunks.obj
 0002:00005928       ??_C@_0BD@HHGDFDBJ@GetLastActivePopup@ 0000000140087928     libucrt:winapi_thunks.obj
 0002:00005950       ??_C@_0BA@ONOKGCMP@GetLocaleInfoEx@ 0000000140087950     libucrt:winapi_thunks.obj
 0002:00005978       ??_C@_0BI@DFKBFLJE@GetProcessWindowStation@ 0000000140087978     libucrt:winapi_thunks.obj
 0002:00005998       ??_C@_0BP@FPNJPEJC@GetSystemTimePreciseAsFileTime@ 0000000140087998     libucrt:winapi_thunks.obj
 0002:000059d0       ??_C@_0BA@CIJJKCJJ@GetTimeFormatEx@ 00000001400879d0     libucrt:winapi_thunks.obj
 0002:000059f8       ??_C@_0BJ@PBCCBIPI@GetUserDefaultLocaleName@ 00000001400879f8     libucrt:winapi_thunks.obj
 0002:00005a28       ??_C@_0BK@DEKFELLI@GetUserObjectInformationW@ 0000000140087a28     libucrt:winapi_thunks.obj
 0002:00005a58       ??_C@_0BG@IKLDMBLM@GetXStateFeaturesMask@ 0000000140087a58     libucrt:winapi_thunks.obj
 0002:00005a98       ??_C@_0BC@CELBKLLA@IsValidLocaleName@ 0000000140087a98     libucrt:winapi_thunks.obj
 0002:00005ac0       ??_C@_0O@KKBNKAPF@LCMapStringEx@ 0000000140087ac0     libucrt:winapi_thunks.obj
 0002:00005ae0       ??_C@_0BB@CDHDDLLP@LCIDToLocaleName@ 0000000140087ae0     libucrt:winapi_thunks.obj
 0002:00005b08       ??_C@_0BB@HBDEELFH@LocaleNameToLCID@ 0000000140087b08     libucrt:winapi_thunks.obj
 0002:00005b30       ??_C@_0BE@KINNKFDA@LocateXStateFeature@ 0000000140087b30     libucrt:winapi_thunks.obj
 0002:00005b58       ??_C@_0M@CHKKJDAI@MessageBoxA@ 0000000140087b58     libucrt:winapi_thunks.obj
 0002:00005b78       ??_C@_0M@DLDCCGNP@MessageBoxW@ 0000000140087b78     libucrt:winapi_thunks.obj
 0002:00005b90       ??_C@_0N@PPOMPGGK@RoInitialize@ 0000000140087b90     libucrt:winapi_thunks.obj
 0002:00005ba8       ??_C@_0P@LLFHBIJD@RoUninitialize@ 0000000140087ba8     libucrt:winapi_thunks.obj
 0002:00005bc0       ??_C@_0CF@OJOFEIGO@AppPolicyGetProcessTerminationM@ 0000000140087bc0     libucrt:winapi_thunks.obj
 0002:00005bf0       ??_C@_0CF@NNDFDCOC@AppPolicyGetThreadInitializatio@ 0000000140087bf0     libucrt:winapi_thunks.obj
 0002:00005c20       ??_C@_0CE@OICFMIKE@AppPolicyGetShowDeveloperDiagno@ 0000000140087c20     libucrt:winapi_thunks.obj
 0002:00005c50       ??_C@_0BL@ODDJNEDA@AppPolicyGetWindowingModel@ 0000000140087c50     libucrt:winapi_thunks.obj
 0002:00005c80       ??_C@_0BI@BKLFFAPO@SetThreadStackGuarantee@ 0000000140087c80     libucrt:winapi_thunks.obj
 0002:00005cb0       ??_C@_0BC@JEAENNKH@SystemFunction036@ 0000000140087cb0     libucrt:winapi_thunks.obj
 0002:00005d6c       ??_C@_03OEIAHPBN@INF@      0000000140087d6c     libucrt:cvt.obj
 0002:00005d70       ??_C@_03OJHLLCGB@inf@      0000000140087d70     libucrt:cvt.obj
 0002:00005d74       ??_C@_03LKNCIKJB@NAN@      0000000140087d74     libucrt:cvt.obj
 0002:00005d78       ??_C@_03LHCJEHON@nan@      0000000140087d78     libucrt:cvt.obj
 0002:00005d80       ??_C@_09OFJJIMPC@NAN?$CISNAN?$CJ@ 0000000140087d80     libucrt:cvt.obj
 0002:00005d90       ??_C@_09IPFBKMDL@nan?$CIsnan?$CJ@ 0000000140087d90     libucrt:cvt.obj
 0002:00005da0       ??_C@_08IKHNHAJ@NAN?$CIIND?$CJ@ 0000000140087da0     libucrt:cvt.obj
 0002:00005db0       ??_C@_08OFCDMILK@nan?$CIind?$CJ@ 0000000140087db0     libucrt:cvt.obj
 0002:00005dbc       ??_C@_05KLBDPFGC@e?$CL000@ 0000000140087dbc     libucrt:cvt.obj
 0002:00005df0       ??_C@_1M@HPNHIDJI@?$AAj?$AAa?$AA?9?$AAJ?$AAP@ 0000000140087df0     libucrt:mbctype.obj
 0002:00005e00       ??_C@_1M@BIBDDEMK@?$AAz?$AAh?$AA?9?$AAC?$AAN@ 0000000140087e00     libucrt:mbctype.obj
 0002:00005e10       ??_C@_1M@JLOOOEGK@?$AAk?$AAo?$AA?9?$AAK?$AAR@ 0000000140087e10     libucrt:mbctype.obj
 0002:00005e20       ??_C@_1M@CLNBBOPM@?$AAz?$AAh?$AA?9?$AAT?$AAW@ 0000000140087e20     libucrt:mbctype.obj
 0002:00005e30       __acrt_rg_language         0000000140087e30     libucrt:get_qualified_locale.obj
 0002:00006310       __acrt_rg_language_count   0000000140088310     libucrt:get_qualified_locale.obj
 0002:00006320       __acrt_rg_country          0000000140088320     libucrt:get_qualified_locale.obj
 0002:000064e0       __acrt_rg_country_count    00000001400884e0     libucrt:get_qualified_locale.obj
 0002:000064f0       ??_C@_1BC@LLOKLNP@?$AAa?$AAm?$AAe?$AAr?$AAi?$AAc?$AAa?$AAn@ 00000001400884f0     libucrt:get_qualified_locale.obj
 0002:00006508       ??_C@_1CC@HEIGCDGG@?$AAa?$AAm?$AAe?$AAr?$AAi?$AAc?$AAa?$AAn?$AA?5?$AAe?$AAn?$AAg?$AAl?$AAi?$AAs@ 0000000140088508     libucrt:get_qualified_locale.obj
 0002:00006530       ??_C@_1CC@IHCNOMIN@?$AAa?$AAm?$AAe?$AAr?$AAi?$AAc?$AAa?$AAn?$AA?9?$AAe?$AAn?$AAg?$AAl?$AAi?$AAs@ 0000000140088530     libucrt:get_qualified_locale.obj
 0002:00006558       ??_C@_1BG@GKAGPCGG@?$AAa?$AAu?$AAs?$AAt?$AAr?$AAa?$AAl?$AAi?$AAa?$AAn@ 0000000140088558     libucrt:get_qualified_locale.obj
 0002:00006578       ??_C@_1BA@GMENCENF@?$AAb?$AAe?$AAl?$AAg?$AAi?$AAa?$AAn@ 0000000140088578     libucrt:get_qualified_locale.obj
 0002:00006590       ??_C@_1BC@PJMIIAAN@?$AAc?$AAa?$AAn?$AAa?$AAd?$AAi?$AAa?$AAn@ 0000000140088590     libucrt:get_qualified_locale.obj
 0002:000065a8       ??_C@_17NOIMNFBF@?$AAc?$AAh?$AAh@ 00000001400885a8     libucrt:get_qualified_locale.obj
 0002:000065b8       ??_C@_17GGDALCHA@?$AAc?$AAh?$AAi@ 00000001400885b8     libucrt:get_qualified_locale.obj
 0002:000065c8       ??_C@_1BA@NPNJKIBL@?$AAc?$AAh?$AAi?$AAn?$AAe?$AAs?$AAe@ 00000001400885c8     libucrt:get_qualified_locale.obj
 0002:000065e0       ??_C@_1CC@DINBAMMJ@?$AAc?$AAh?$AAi?$AAn?$AAe?$AAs?$AAe?$AA?9?$AAh?$AAo?$AAn?$AAg?$AAk?$AAo?$AAn@ 00000001400885e0     libucrt:get_qualified_locale.obj
 0002:00006608       ??_C@_1CG@IOBJPACO@?$AAc?$AAh?$AAi?$AAn?$AAe?$AAs?$AAe?$AA?9?$AAs?$AAi?$AAm?$AAp?$AAl?$AAi?$AAf@ 0000000140088608     libucrt:get_qualified_locale.obj
 0002:00006638       ??_C@_1CE@GAJNDCKG@?$AAc?$AAh?$AAi?$AAn?$AAe?$AAs?$AAe?$AA?9?$AAs?$AAi?$AAn?$AAg?$AAa?$AAp?$AAo@ 0000000140088638     libucrt:get_qualified_locale.obj
 0002:00006668       ??_C@_1CI@PAJPIOOD@?$AAc?$AAh?$AAi?$AAn?$AAe?$AAs?$AAe?$AA?9?$AAt?$AAr?$AAa?$AAd?$AAi?$AAt?$AAi@ 0000000140088668     libucrt:get_qualified_locale.obj
 0002:00006698       ??_C@_1BM@NILJBMMD@?$AAd?$AAu?$AAt?$AAc?$AAh?$AA?9?$AAb?$AAe?$AAl?$AAg?$AAi?$AAa?$AAn@ 0000000140088698     libucrt:get_qualified_locale.obj
 0002:000066c0       ??_C@_1CC@OOJPJNEJ@?$AAe?$AAn?$AAg?$AAl?$AAi?$AAs?$AAh?$AA?9?$AAa?$AAm?$AAe?$AAr?$AAi?$AAc?$AAa@ 00000001400886c0     libucrt:get_qualified_locale.obj
 0002:000066e8       ??_C@_1BI@IOLFEEM@?$AAe?$AAn?$AAg?$AAl?$AAi?$AAs?$AAh?$AA?9?$AAa?$AAu?$AAs@ 00000001400886e8     libucrt:get_qualified_locale.obj
 0002:00006708       ??_C@_1BO@HFFNLENJ@?$AAe?$AAn?$AAg?$AAl?$AAi?$AAs?$AAh?$AA?9?$AAb?$AAe?$AAl?$AAi?$AAz?$AAe@ 0000000140088708     libucrt:get_qualified_locale.obj
 0002:00006730       ??_C@_1BI@HAPKJMPO@?$AAe?$AAn?$AAg?$AAl?$AAi?$AAs?$AAh?$AA?9?$AAc?$AAa?$AAn@ 0000000140088730     libucrt:get_qualified_locale.obj
 0002:00006750       ??_C@_1CE@HLNDMIOJ@?$AAe?$AAn?$AAg?$AAl?$AAi?$AAs?$AAh?$AA?9?$AAc?$AAa?$AAr?$AAi?$AAb?$AAb?$AAe@ 0000000140088750     libucrt:get_qualified_locale.obj
 0002:00006780       ??_C@_1BI@LDHJHHAC@?$AAe?$AAn?$AAg?$AAl?$AAi?$AAs?$AAh?$AA?9?$AAi?$AAr?$AAe@ 0000000140088780     libucrt:get_qualified_locale.obj
 0002:000067a0       ??_C@_1CA@NJMMCFOC@?$AAe?$AAn?$AAg?$AAl?$AAi?$AAs?$AAh?$AA?9?$AAj?$AAa?$AAm?$AAa?$AAi?$AAc?$AAa@ 00000001400887a0     libucrt:get_qualified_locale.obj
 0002:000067c8       ??_C@_1BG@BHJEBBGG@?$AAe?$AAn?$AAg?$AAl?$AAi?$AAs?$AAh?$AA?9?$AAn?$AAz@ 00000001400887c8     libucrt:get_qualified_locale.obj
 0002:000067e8       ??_C@_1CK@FGOEJJCO@?$AAe?$AAn?$AAg?$AAl?$AAi?$AAs?$AAh?$AA?9?$AAs?$AAo?$AAu?$AAt?$AAh?$AA?5?$AAa@ 00000001400887e8     libucrt:get_qualified_locale.obj
 0002:00006820       ??_C@_1DE@PDBJPCJ@?$AAe?$AAn?$AAg?$AAl?$AAi?$AAs?$AAh?$AA?9?$AAt?$AAr?$AAi?$AAn?$AAi?$AAd?$AAa@ 0000000140088820     libucrt:get_qualified_locale.obj
 0002:00006860       ??_C@_1BG@JGCANDME@?$AAe?$AAn?$AAg?$AAl?$AAi?$AAs?$AAh?$AA?9?$AAu?$AAk@ 0000000140088860     libucrt:get_qualified_locale.obj
 0002:00006880       ??_C@_1BG@DINKMLE@?$AAe?$AAn?$AAg?$AAl?$AAi?$AAs?$AAh?$AA?9?$AAu?$AAs@ 0000000140088880     libucrt:get_qualified_locale.obj
 0002:000068a0       ??_C@_1BI@NMFDBHJE@?$AAe?$AAn?$AAg?$AAl?$AAi?$AAs?$AAh?$AA?9?$AAu?$AAs?$AAa@ 00000001400888a0     libucrt:get_qualified_locale.obj
 0002:000068c0       ??_C@_1BO@OIHKJKII@?$AAf?$AAr?$AAe?$AAn?$AAc?$AAh?$AA?9?$AAb?$AAe?$AAl?$AAg?$AAi?$AAa?$AAn@ 00000001400888c0     libucrt:get_qualified_locale.obj
 0002:000068e8       ??_C@_1CA@NKAELJKI@?$AAf?$AAr?$AAe?$AAn?$AAc?$AAh?$AA?9?$AAc?$AAa?$AAn?$AAa?$AAd?$AAi?$AAa?$AAn@ 00000001400888e8     libucrt:get_qualified_locale.obj
 0002:00006910       ??_C@_1CE@MGKCNLGN@?$AAf?$AAr?$AAe?$AAn?$AAc?$AAh?$AA?9?$AAl?$AAu?$AAx?$AAe?$AAm?$AAb?$AAo?$AAu@ 0000000140088910     libucrt:get_qualified_locale.obj
 0002:00006940       ??_C@_1BK@CEGEAILM@?$AAf?$AAr?$AAe?$AAn?$AAc?$AAh?$AA?9?$AAs?$AAw?$AAi?$AAs?$AAs@ 0000000140088940     libucrt:get_qualified_locale.obj
 0002:00006960       ??_C@_1CA@PAFKEOCC@?$AAg?$AAe?$AAr?$AAm?$AAa?$AAn?$AA?9?$AAa?$AAu?$AAs?$AAt?$AAr?$AAi?$AAa?$AAn@ 0000000140088960     libucrt:get_qualified_locale.obj
 0002:00006988       ??_C@_1CI@HCFHGOFD@?$AAg?$AAe?$AAr?$AAm?$AAa?$AAn?$AA?9?$AAl?$AAi?$AAc?$AAh?$AAt?$AAe?$AAn?$AAs@ 0000000140088988     libucrt:get_qualified_locale.obj
 0002:000069b8       ??_C@_1CE@FEDDNPDG@?$AAg?$AAe?$AAr?$AAm?$AAa?$AAn?$AA?9?$AAl?$AAu?$AAx?$AAe?$AAm?$AAb?$AAo?$AAu@ 00000001400889b8     libucrt:get_qualified_locale.obj
 0002:000069e8       ??_C@_1BK@LIMINNMN@?$AAg?$AAe?$AAr?$AAm?$AAa?$AAn?$AA?9?$AAs?$AAw?$AAi?$AAs?$AAs@ 00000001400889e8     libucrt:get_qualified_locale.obj
 0002:00006a08       ??_C@_1BM@LGMDBEPD@?$AAi?$AAr?$AAi?$AAs?$AAh?$AA?9?$AAe?$AAn?$AAg?$AAl?$AAi?$AAs?$AAh@ 0000000140088a08     libucrt:get_qualified_locale.obj
 0002:00006a30       ??_C@_1BM@NNCFBAEE@?$AAi?$AAt?$AAa?$AAl?$AAi?$AAa?$AAn?$AA?9?$AAs?$AAw?$AAi?$AAs?$AAs@ 0000000140088a30     libucrt:get_qualified_locale.obj
 0002:00006a58       ??_C@_1BE@FEDJNPIB@?$AAn?$AAo?$AAr?$AAw?$AAe?$AAg?$AAi?$AAa?$AAn@ 0000000140088a58     libucrt:get_qualified_locale.obj
 0002:00006a70       ??_C@_1CC@CILKDEIE@?$AAn?$AAo?$AAr?$AAw?$AAe?$AAg?$AAi?$AAa?$AAn?$AA?9?$AAb?$AAo?$AAk?$AAm?$AAa@ 0000000140088a70     libucrt:get_qualified_locale.obj
 0002:00006a98       ??_C@_1CE@DHMMHEPL@?$AAn?$AAo?$AAr?$AAw?$AAe?$AAg?$AAi?$AAa?$AAn?$AA?9?$AAn?$AAy?$AAn?$AAo?$AAr@ 0000000140088a98     libucrt:get_qualified_locale.obj
 0002:00006ac8       ??_C@_1CK@OPNMHECD@?$AAp?$AAo?$AAr?$AAt?$AAu?$AAg?$AAu?$AAe?$AAs?$AAe?$AA?9?$AAb?$AAr?$AAa?$AAz@ 0000000140088ac8     libucrt:get_qualified_locale.obj
 0002:00006b00       ??_C@_1CE@KEEHCDB@?$AAs?$AAp?$AAa?$AAn?$AAi?$AAs?$AAh?$AA?9?$AAa?$AAr?$AAg?$AAe?$AAn?$AAt?$AAi@ 0000000140088b00     libucrt:get_qualified_locale.obj
 0002:00006b30       ??_C@_1CA@GIAOLHJD@?$AAs?$AAp?$AAa?$AAn?$AAi?$AAs?$AAh?$AA?9?$AAb?$AAo?$AAl?$AAi?$AAv?$AAi?$AAa@ 0000000140088b30     libucrt:get_qualified_locale.obj
 0002:00006b58       ??_C@_1BM@OJNDFNPD@?$AAs?$AAp?$AAa?$AAn?$AAi?$AAs?$AAh?$AA?9?$AAc?$AAh?$AAi?$AAl?$AAe@ 0000000140088b58     libucrt:get_qualified_locale.obj
 0002:00006b80       ??_C@_1CC@OCOLPALL@?$AAs?$AAp?$AAa?$AAn?$AAi?$AAs?$AAh?$AA?9?$AAc?$AAo?$AAl?$AAo?$AAm?$AAb?$AAi@ 0000000140088b80     libucrt:get_qualified_locale.obj
 0002:00006ba8       ??_C@_1CG@BPOFMKBB@?$AAs?$AAp?$AAa?$AAn?$AAi?$AAs?$AAh?$AA?9?$AAc?$AAo?$AAs?$AAt?$AAa?$AA?5?$AAr@ 0000000140088ba8     libucrt:get_qualified_locale.obj
 0002:00006bd8       ??_C@_1DG@IGOBAPBB@?$AAs?$AAp?$AAa?$AAn?$AAi?$AAs?$AAh?$AA?9?$AAd?$AAo?$AAm?$AAi?$AAn?$AAi?$AAc@ 0000000140088bd8     libucrt:get_qualified_locale.obj
 0002:00006c18       ??_C@_1CA@JHAPGEGI@?$AAs?$AAp?$AAa?$AAn?$AAi?$AAs?$AAh?$AA?9?$AAe?$AAc?$AAu?$AAa?$AAd?$AAo?$AAr@ 0000000140088c18     libucrt:get_qualified_locale.obj
 0002:00006c40       ??_C@_1CI@LAPALJPP@?$AAs?$AAp?$AAa?$AAn?$AAi?$AAs?$AAh?$AA?9?$AAe?$AAl?$AA?5?$AAs?$AAa?$AAl?$AAv@ 0000000140088c40     libucrt:get_qualified_locale.obj
 0002:00006c70       ??_C@_1CE@PDGBOFOM@?$AAs?$AAp?$AAa?$AAn?$AAi?$AAs?$AAh?$AA?9?$AAg?$AAu?$AAa?$AAt?$AAe?$AAm?$AAa@ 0000000140088c70     libucrt:get_qualified_locale.obj
 0002:00006ca0       ??_C@_1CC@NBEBAODI@?$AAs?$AAp?$AAa?$AAn?$AAi?$AAs?$AAh?$AA?9?$AAh?$AAo?$AAn?$AAd?$AAu?$AAr?$AAa@ 0000000140088ca0     libucrt:get_qualified_locale.obj
 0002:00006cc8       ??_C@_1CA@LLKGHBMF@?$AAs?$AAp?$AAa?$AAn?$AAi?$AAs?$AAh?$AA?9?$AAm?$AAe?$AAx?$AAi?$AAc?$AAa?$AAn@ 0000000140088cc8     libucrt:get_qualified_locale.obj
 0002:00006cf0       ??_C@_1BO@LKNDOIGD@?$AAs?$AAp?$AAa?$AAn?$AAi?$AAs?$AAh?$AA?9?$AAm?$AAo?$AAd?$AAe?$AAr?$AAn@ 0000000140088cf0     libucrt:get_qualified_locale.obj
 0002:00006d18       ??_C@_1CE@NMDMOEEB@?$AAs?$AAp?$AAa?$AAn?$AAi?$AAs?$AAh?$AA?9?$AAn?$AAi?$AAc?$AAa?$AAr?$AAa?$AAg@ 0000000140088d18     libucrt:get_qualified_locale.obj
 0002:00006d48       ??_C@_1BO@LLCBEJGB@?$AAs?$AAp?$AAa?$AAn?$AAi?$AAs?$AAh?$AA?9?$AAp?$AAa?$AAn?$AAa?$AAm?$AAa@ 0000000140088d48     libucrt:get_qualified_locale.obj
 0002:00006d70       ??_C@_1CC@FKPGGIHO@?$AAs?$AAp?$AAa?$AAn?$AAi?$AAs?$AAh?$AA?9?$AAp?$AAa?$AAr?$AAa?$AAg?$AAu?$AAa@ 0000000140088d70     libucrt:get_qualified_locale.obj
 0002:00006d98       ??_C@_1BK@CDEIHOOP@?$AAs?$AAp?$AAa?$AAn?$AAi?$AAs?$AAh?$AA?9?$AAp?$AAe?$AAr?$AAu@ 0000000140088d98     libucrt:get_qualified_locale.obj
 0002:00006db8       ??_C@_1CI@GAHAKKGP@?$AAs?$AAp?$AAa?$AAn?$AAi?$AAs?$AAh?$AA?9?$AAp?$AAu?$AAe?$AAr?$AAt?$AAo?$AA?5@ 0000000140088db8     libucrt:get_qualified_locale.obj
 0002:00006de8       ??_C@_1CA@NKJBCAGP@?$AAs?$AAp?$AAa?$AAn?$AAi?$AAs?$AAh?$AA?9?$AAu?$AAr?$AAu?$AAg?$AAu?$AAa?$AAy@ 0000000140088de8     libucrt:get_qualified_locale.obj
 0002:00006e10       ??_C@_1CE@ODILCONM@?$AAs?$AAp?$AAa?$AAn?$AAi?$AAs?$AAh?$AA?9?$AAv?$AAe?$AAn?$AAe?$AAz?$AAu?$AAe@ 0000000140088e10     libucrt:get_qualified_locale.obj
 0002:00006e40       ??_C@_1CA@OBNMCGFO@?$AAs?$AAw?$AAe?$AAd?$AAi?$AAs?$AAh?$AA?9?$AAf?$AAi?$AAn?$AAl?$AAa?$AAn?$AAd@ 0000000140088e40     libucrt:get_qualified_locale.obj
 0002:00006e68       ??_C@_1M@PIPDDPPI@?$AAs?$AAw?$AAi?$AAs?$AAs@ 0000000140088e68     libucrt:get_qualified_locale.obj
 0002:00006e78       ??_C@_15PJPFLCCM@?$AAu?$AAk@ 0000000140088e78     libucrt:get_qualified_locale.obj
 0002:00006e80       ??_C@_15GMFIMNFM@?$AAu?$AAs@ 0000000140088e80     libucrt:get_qualified_locale.obj
 0002:00006e88       ??_C@_17HAEBFAGL@?$AAu?$AAs?$AAa@ 0000000140088e88     libucrt:get_qualified_locale.obj
 0002:00006e98       ??_C@_1BA@DPFJEPHB@?$AAa?$AAm?$AAe?$AAr?$AAi?$AAc?$AAa@ 0000000140088e98     libucrt:get_qualified_locale.obj
 0002:00006eb0       ??_C@_1BA@ELOGGFK@?$AAb?$AAr?$AAi?$AAt?$AAa?$AAi?$AAn@ 0000000140088eb0     libucrt:get_qualified_locale.obj
 0002:00006ec8       ??_C@_1M@GHBGIGDA@?$AAc?$AAh?$AAi?$AAn?$AAa@ 0000000140088ec8     libucrt:get_qualified_locale.obj
 0002:00006ed8       ??_C@_1M@NCHEJOPO@?$AAc?$AAz?$AAe?$AAc?$AAh@ 0000000140088ed8     libucrt:get_qualified_locale.obj
 0002:00006ee8       ??_C@_1BA@BKPAPBLA@?$AAe?$AAn?$AAg?$AAl?$AAa?$AAn?$AAd@ 0000000140088ee8     libucrt:get_qualified_locale.obj
 0002:00006f00       ??_C@_1BM@HKBCKIPC@?$AAg?$AAr?$AAe?$AAa?$AAt?$AA?5?$AAb?$AAr?$AAi?$AAt?$AAa?$AAi?$AAn@ 0000000140088f00     libucrt:get_qualified_locale.obj
 0002:00006f28       ??_C@_1BA@PPCHPGJB@?$AAh?$AAo?$AAl?$AAl?$AAa?$AAn?$AAd@ 0000000140088f28     libucrt:get_qualified_locale.obj
 0002:00006f40       ??_C@_1BE@JBMPEGDG@?$AAh?$AAo?$AAn?$AAg?$AA?9?$AAk?$AAo?$AAn?$AAg@ 0000000140088f40     libucrt:get_qualified_locale.obj
 0002:00006f58       ??_C@_1BI@KOELBBPJ@?$AAn?$AAe?$AAw?$AA?9?$AAz?$AAe?$AAa?$AAl?$AAa?$AAn?$AAd@ 0000000140088f58     libucrt:get_qualified_locale.obj
 0002:00006f74       ??_C@_15HIEBHAIO@?$AAn?$AAz@ 0000000140088f74     libucrt:get_qualified_locale.obj
 0002:00006f80       ??_C@_1BC@CHBCPFPI@?$AAp?$AAr?$AA?5?$AAc?$AAh?$AAi?$AAn?$AAa@ 0000000140088f80     libucrt:get_qualified_locale.obj
 0002:00006f98       ??_C@_1BC@JAOIIFKD@?$AAp?$AAr?$AA?9?$AAc?$AAh?$AAi?$AAn?$AAa@ 0000000140088f98     libucrt:get_qualified_locale.obj
 0002:00006fb0       ??_C@_1BI@BEHPPHKC@?$AAp?$AAu?$AAe?$AAr?$AAt?$AAo?$AA?9?$AAr?$AAi?$AAc?$AAo@ 0000000140088fb0     libucrt:get_qualified_locale.obj
 0002:00006fd0       ??_C@_1O@PAEOFKDI@?$AAs?$AAl?$AAo?$AAv?$AAa?$AAk@ 0000000140088fd0     libucrt:get_qualified_locale.obj
 0002:00006fe0       ??_C@_1BK@FIHMCKAM@?$AAs?$AAo?$AAu?$AAt?$AAh?$AA?5?$AAa?$AAf?$AAr?$AAi?$AAc?$AAa@ 0000000140088fe0     libucrt:get_qualified_locale.obj
 0002:00007000       ??_C@_1BI@NAEOODKB@?$AAs?$AAo?$AAu?$AAt?$AAh?$AA?5?$AAk?$AAo?$AAr?$AAe?$AAa@ 0000000140089000     libucrt:get_qualified_locale.obj
 0002:00007020       ??_C@_1BK@FBDGGIFF@?$AAs?$AAo?$AAu?$AAt?$AAh?$AA?9?$AAa?$AAf?$AAr?$AAi?$AAc?$AAa@ 0000000140089020     libucrt:get_qualified_locale.obj
 0002:00007040       ??_C@_1BI@GHLEJDPK@?$AAs?$AAo?$AAu?$AAt?$AAh?$AA?9?$AAk?$AAo?$AAr?$AAe?$AAa@ 0000000140089040     libucrt:get_qualified_locale.obj
 0002:00007060       ??_C@_1CE@PLHLOMJF@?$AAt?$AAr?$AAi?$AAn?$AAi?$AAd?$AAa?$AAd?$AA?5?$AA?$CG?$AA?5?$AAt?$AAo?$AAb?$AAa@ 0000000140089060     libucrt:get_qualified_locale.obj
 0002:00007090       ??_C@_1BO@MODIMHHI@?$AAu?$AAn?$AAi?$AAt?$AAe?$AAd?$AA?9?$AAk?$AAi?$AAn?$AAg?$AAd?$AAo?$AAm@ 0000000140089090     libucrt:get_qualified_locale.obj
 0002:000070b8       ??_C@_1BM@FFHJONBJ@?$AAu?$AAn?$AAi?$AAt?$AAe?$AAd?$AA?9?$AAs?$AAt?$AAa?$AAt?$AAe?$AAs@ 00000001400890b8     libucrt:get_qualified_locale.obj
 0002:000070e0       ??_C@_19MPDNHKDG@?$AAu?$AAt?$AAf?$AA8@ 00000001400890e0     libucrt:get_qualified_locale.obj
 0002:000070f0       ??_C@_17DNCLJFIF@?$AAA?$AAC?$AAP@ 00000001400890f0     libucrt:get_qualified_locale.obj
 0002:00007100       ??_C@_1M@FPEIIFAM@?$AAu?$AAt?$AAf?$AA?9?$AA8@ 0000000140089100     libucrt:get_qualified_locale.obj
 0002:00007110       ??_C@_17CIKBIHLH@?$AAO?$AAC?$AAP@ 0000000140089110     libucrt:get_qualified_locale.obj
 0002:00007120       __rglangidNotDefault       0000000140089120     libucrt:getqloc_downlevel.obj
 0002:0000828c       ??_C@_15EMKDOKLE@?$AAa?$AAr@ 000000014008a28c     libucrt:lcidtoname_downlevel.obj
 0002:00008294       ??_C@_15KNPADPLH@?$AAb?$AAg@ 000000014008a294     libucrt:lcidtoname_downlevel.obj
 0002:0000829c       ??_C@_15EDMHLDMO@?$AAc?$AAa@ 000000014008a29c     libucrt:lcidtoname_downlevel.obj
 0002:000082a8       ??_C@_1O@BPEAJADD@?$AAz?$AAh?$AA?9?$AAC?$AAH?$AAS@ 000000014008a2a8     libucrt:lcidtoname_downlevel.obj
 0002:000082b8       ??_C@_15LJNHCMNK@?$AAc?$AAs@ 000000014008a2b8     libucrt:lcidtoname_downlevel.obj
 0002:000082c0       ??_C@_15FOMCIDHG@?$AAd?$AAa@ 000000014008a2c0     libucrt:lcidtoname_downlevel.obj
 0002:000082c8       ??_C@_15NBKABECB@?$AAd?$AAe@ 000000014008a2c8     libucrt:lcidtoname_downlevel.obj
 0002:000082d0       ??_C@_15GHPEIIAO@?$AAe?$AAl@ 000000014008a2d0     libucrt:lcidtoname_downlevel.obj
 0002:000082d8       ??_C@_15MNPNEAIF@?$AAe?$AAn@ 000000014008a2d8     libucrt:lcidtoname_downlevel.obj
 0002:000082e0       ??_C@_15GPIOMPMH@?$AAe?$AAs@ 000000014008a2e0     libucrt:lcidtoname_downlevel.obj
 0002:000082e8       ??_C@_15NGLOAKJC@?$AAf?$AAi@ 000000014008a2e8     libucrt:lcidtoname_downlevel.obj
 0002:000082f0       ??_C@_15FBKGNKAM@?$AAf?$AAr@ 000000014008a2f0     libucrt:lcidtoname_downlevel.obj
 0002:000082f8       ??_C@_15KGGCNEFK@?$AAh?$AAe@ 000000014008a2f8     libucrt:lcidtoname_downlevel.obj
 0002:00008300       ??_C@_15PGHLIDMF@?$AAh?$AAu@ 000000014008a300     libucrt:lcidtoname_downlevel.obj
 0002:00008308       ??_C@_15BIEMAPLM@?$AAi?$AAs@ 000000014008a308     libucrt:lcidtoname_downlevel.obj
 0002:00008310       ??_C@_15IFJLDHAF@?$AAi?$AAt@ 000000014008a310     libucrt:lcidtoname_downlevel.obj
 0002:00008318       ??_C@_15GEMIOCAG@?$AAj?$AAa@ 000000014008a318     libucrt:lcidtoname_downlevel.obj
 0002:00008320       ??_C@_15EPELEGJA@?$AAk?$AAo@ 000000014008a320     libucrt:lcidtoname_downlevel.obj
 0002:00008328       ??_C@_15NDDHIMN@?$AAn?$AAl@ 000000014008a328     libucrt:lcidtoname_downlevel.obj
 0002:00008330       ??_C@_15BPIGNHCD@?$AAn?$AAo@ 000000014008a330     libucrt:lcidtoname_downlevel.obj
 0002:00008338       ??_C@_15DEOPBLCG@?$AAp?$AAl@ 000000014008a338     libucrt:lcidtoname_downlevel.obj
 0002:00008340       ??_C@_15KBECGEFG@?$AAp?$AAt@ 000000014008a340     libucrt:lcidtoname_downlevel.obj
 0002:00008348       ??_C@_15GLJCBFMD@?$AAr?$AAo@ 000000014008a348     libucrt:lcidtoname_downlevel.obj
 0002:00008350       ??_C@_15FEDGKCDI@?$AAr?$AAu@ 000000014008a350     libucrt:lcidtoname_downlevel.obj
 0002:00008358       ??_C@_15GLKMLLHM@?$AAh?$AAr@ 000000014008a358     libucrt:lcidtoname_downlevel.obj
 0002:00008360       ??_C@_15CPKMFBDB@?$AAs?$AAk@ 000000014008a360     libucrt:lcidtoname_downlevel.obj
 0002:00008368       ??_C@_15BAAIOGMK@?$AAs?$AAq@ 000000014008a368     libucrt:lcidtoname_downlevel.obj
 0002:00008370       ??_C@_15INNPNOHD@?$AAs?$AAv@ 000000014008a370     libucrt:lcidtoname_downlevel.obj
 0002:00008378       ??_C@_15CABMMOGH@?$AAt?$AAh@ 000000014008a378     libucrt:lcidtoname_downlevel.obj
 0002:00008380       ??_C@_15BPLIHJJM@?$AAt?$AAr@ 000000014008a380     libucrt:lcidtoname_downlevel.obj
 0002:00008388       ??_C@_15NEOEKKDJ@?$AAu?$AAr@ 000000014008a388     libucrt:lcidtoname_downlevel.obj
 0002:00008390       ??_C@_15NFICGAJK@?$AAi?$AAd@ 000000014008a390     libucrt:lcidtoname_downlevel.obj
 0002:00008398       ??_C@_15HPJPHDM@?$AAb?$AAe@ 000000014008a398     libucrt:lcidtoname_downlevel.obj
 0002:000083a0       ??_C@_15LCHLGJII@?$AAs?$AAl@ 000000014008a3a0     libucrt:lcidtoname_downlevel.obj
 0002:000083a8       ??_C@_15PCFJPHHO@?$AAe?$AAt@ 000000014008a3a8     libucrt:lcidtoname_downlevel.obj
 0002:000083b0       ??_C@_15HPFPGODN@?$AAl?$AAv@ 000000014008a3b0     libucrt:lcidtoname_downlevel.obj
 0002:000083b8       ??_C@_15NFFGKGLG@?$AAl?$AAt@ 000000014008a3b8     libucrt:lcidtoname_downlevel.obj
 0002:000083c0       ??_C@_15BDAKCCHN@?$AAf?$AAa@ 000000014008a3c0     libucrt:lcidtoname_downlevel.obj
 0002:000083c8       ??_C@_15NFGIAIAJ@?$AAv?$AAi@ 000000014008a3c8     libucrt:lcidtoname_downlevel.obj
 0002:000083d0       ??_C@_15LMKNDMHN@?$AAh?$AAy@ 000000014008a3d0     libucrt:lcidtoname_downlevel.obj
 0002:000083d8       ??_C@_15IJBHMCFL@?$AAa?$AAz@ 000000014008a3d8     libucrt:lcidtoname_downlevel.obj
 0002:000083e0       ??_C@_15EKOFJABL@?$AAe?$AAu@ 000000014008a3e0     libucrt:lcidtoname_downlevel.obj
 0002:000083e8       ??_C@_15BGHADCNK@?$AAm?$AAk@ 000000014008a3e8     libucrt:lcidtoname_downlevel.obj
 0002:000083f0       ??_C@_15JDNICKHM@?$AAa?$AAf@ 000000014008a3f0     libucrt:lcidtoname_downlevel.obj
 0002:000083f8       ??_C@_15KPJEDBKD@?$AAk?$AAa@ 000000014008a3f8     libucrt:lcidtoname_downlevel.obj
 0002:00008400       ??_C@_15PDNFFFEO@?$AAf?$AAo@ 000000014008a400     libucrt:lcidtoname_downlevel.obj
 0002:00008408       ??_C@_15OMLEGLOC@?$AAh?$AAi@ 000000014008a408     libucrt:lcidtoname_downlevel.obj
 0002:00008410       ??_C@_15IDNNENKK@?$AAm?$AAs@ 000000014008a410     libucrt:lcidtoname_downlevel.obj
 0002:00008418       ??_C@_15MACJNBMH@?$AAk?$AAk@ 000000014008a418     libucrt:lcidtoname_downlevel.obj
 0002:00008420       ??_C@_15DKDJEOND@?$AAk?$AAy@ 000000014008a420     libucrt:lcidtoname_downlevel.obj
 0002:00008428       ??_C@_15DFGDLJBG@?$AAs?$AAw@ 000000014008a428     libucrt:lcidtoname_downlevel.obj
 0002:00008430       ??_C@_15BBFAICNG@?$AAu?$AAz@ 000000014008a430     libucrt:lcidtoname_downlevel.obj
 0002:00008438       ??_C@_15DKNDCGEA@?$AAt?$AAt@ 000000014008a438     libucrt:lcidtoname_downlevel.obj
 0002:00008440       ??_C@_15MGIFMDPL@?$AAp?$AAa@ 000000014008a440     libucrt:lcidtoname_downlevel.obj
 0002:00008448       ??_C@_15HCNDBBA@?$AAg?$AAu@ 000000014008a448     libucrt:lcidtoname_downlevel.obj
 0002:00008450       ??_C@_15FNBEIBON@?$AAt?$AAa@ 000000014008a450     libucrt:lcidtoname_downlevel.obj
 0002:00008458       ??_C@_15NCHGBGLK@?$AAt?$AAe@ 000000014008a458     libucrt:lcidtoname_downlevel.obj
 0002:00008460       ??_C@_15PHPHCBPF@?$AAk?$AAn@ 000000014008a460     libucrt:lcidtoname_downlevel.obj
 0002:00008468       ??_C@_15DLGBCKMP@?$AAm?$AAr@ 000000014008a468     libucrt:lcidtoname_downlevel.obj
 0002:00008470       ??_C@_15EABBLBFF@?$AAs?$AAa@ 000000014008a470     libucrt:lcidtoname_downlevel.obj
 0002:00008478       ??_C@_15CBKOMCOI@?$AAm?$AAn@ 000000014008a478     libucrt:lcidtoname_downlevel.obj
 0002:00008480       ??_C@_15CKDMCJAF@?$AAg?$AAl@ 000000014008a480     libucrt:lcidtoname_downlevel.obj
 0002:00008488       ??_C@_17CNJFBPG@?$AAk?$AAo?$AAk@ 000000014008a488     libucrt:lcidtoname_downlevel.obj
 0002:00008498       ??_C@_17FFBJICPL@?$AAs?$AAy?$AAr@ 000000014008a498     libucrt:lcidtoname_downlevel.obj
 0002:000084a8       ??_C@_17KPNDCPAF@?$AAd?$AAi?$AAv@ 000000014008a4a8     libucrt:lcidtoname_downlevel.obj
 0002:000084b4       ??_C@_11LOCGONAA@@         000000014008a4b4     libucrt:lcidtoname_downlevel.obj
 0002:000084b8       ??_C@_1M@OKAHONE@?$AAa?$AAr?$AA?9?$AAS?$AAA@ 000000014008a4b8     libucrt:lcidtoname_downlevel.obj
 0002:000084c8       ??_C@_1M@FFFIGIGK@?$AAb?$AAg?$AA?9?$AAB?$AAG@ 000000014008a4c8     libucrt:lcidtoname_downlevel.obj
 0002:000084d8       ??_C@_1M@BJNKEDC@?$AAc?$AAa?$AA?9?$AAE?$AAS@ 000000014008a4d8     libucrt:lcidtoname_downlevel.obj
 0002:000084e8       ??_C@_1M@IJJHFJHA@?$AAc?$AAs?$AA?9?$AAC?$AAZ@ 000000014008a4e8     libucrt:lcidtoname_downlevel.obj
 0002:000084f8       ??_C@_1M@CLPEOBGI@?$AAd?$AAa?$AA?9?$AAD?$AAK@ 000000014008a4f8     libucrt:lcidtoname_downlevel.obj
 0002:00008508       ??_C@_1M@MCMADGCB@?$AAd?$AAe?$AA?9?$AAD?$AAE@ 000000014008a508     libucrt:lcidtoname_downlevel.obj
 0002:00008518       ??_C@_1M@OOCKEMAM@?$AAe?$AAl?$AA?9?$AAG?$AAR@ 000000014008a518     libucrt:lcidtoname_downlevel.obj
 0002:00008528       ??_C@_1M@DDNJFGID@?$AAf?$AAi?$AA?9?$AAF?$AAI@ 000000014008a528     libucrt:lcidtoname_downlevel.obj
 0002:00008538       ??_C@_1M@GLIPPMAC@?$AAf?$AAr?$AA?9?$AAF?$AAR@ 000000014008a538     libucrt:lcidtoname_downlevel.obj
 0002:00008548       ??_C@_1M@GFMCHPE@?$AAh?$AAe?$AA?9?$AAI?$AAL@ 000000014008a548     libucrt:lcidtoname_downlevel.obj
 0002:00008558       ??_C@_1M@MHLPGNKM@?$AAh?$AAu?$AA?9?$AAH?$AAU@ 000000014008a558     libucrt:lcidtoname_downlevel.obj
 0002:00008568       ??_C@_1M@LPDDNNPN@?$AAi?$AAs?$AA?9?$AAI?$AAS@ 000000014008a568     libucrt:lcidtoname_downlevel.obj
 0002:00008578       ??_C@_1M@MADIPODN@?$AAi?$AAt?$AA?9?$AAI?$AAT@ 000000014008a578     libucrt:lcidtoname_downlevel.obj
 0002:00008588       ??_C@_1M@IHBJJGG@?$AAn?$AAl?$AA?9?$AAN?$AAL@ 000000014008a588     libucrt:lcidtoname_downlevel.obj
 0002:00008598       ??_C@_1M@EANAGDL@?$AAn?$AAb?$AA?9?$AAN?$AAO@ 000000014008a598     libucrt:lcidtoname_downlevel.obj
 0002:000085a8       ??_C@_1M@NEIEMEGP@?$AAp?$AAl?$AA?9?$AAP?$AAL@ 000000014008a5a8     libucrt:lcidtoname_downlevel.obj
