 game

 Timestamp is 644152f7 (Thu Apr 20 11:57:59 2023)

 Preferred load address is 0000000140000000

 Start         Length     Name                   Class
 0001:00000000 00085700H .text$mn                CODE
 0001:00085700 00001040H .text$mn$00             CODE
 0001:00086740 00001cb4H .text$x                 CODE
 0002:00000000 00000110H .CRT$XCA                DATA
 0002:00000110 00000110H .CRT$XCAA               DATA
 0002:00000220 00000110H .CRT$XCZ                DATA
 0002:00000330 00000110H .CRT$XIA                DATA
 0002:00000440 00000110H .CRT$XIAA               DATA
 0002:00000550 00000110H .CRT$XIAC               DATA
 0002:00000660 00000140H .CRT$XIC                DATA
 0002:000007a0 00000110H .CRT$XIZ                DATA
 0002:000008b0 00000110H .CRT$XPA                DATA
 0002:000009c0 00000120H .CRT$XPX                DATA
 0002:00000ae0 00000110H .CRT$XPXA               DATA
 0002:00000bf0 00000110H .CRT$XPZ                DATA
 0002:00000d00 00000110H .CRT$XTA                DATA
 0002:00000e10 00000110H .CRT$XTZ                DATA
 0002:00000f20 0000e160H .rdata                  DATA
 0002:0000f080 00000200H .rdata$CastGuardVftablesA DATA
 0002:0000f280 000001a0H .rdata$CastGuardVftablesC DATA
 0002:0000f420 0000060cH .rdata$r                DATA
 0002:0000fa2c 00000164H .rdata$zzzdbg           DATA
 0002:0000fb90 00000110H .rtc$IAA                DATA
 0002:0000fca0 00000110H .rtc$IZZ                DATA
 0002:0000fdb0 00000110H .rtc$TAA                DATA
 0002:0000fec0 00000110H .rtc$TZZ                DATA
 0002:0000ffd0 000072c8H .xdata                  DATA
 0002:00017298 00000196H .xdata$x                DATA
 0002:0001742e 00000000H .edata                  DATA
 0003:00000000 00000db0H .data                   DATA
 0003:00000db0 00000190H .data$r                 DATA
 0003:00000f40 00000230H .data$rs                DATA
 0003:00001170 000286d1H .bss                    DATA
 0004:00000000 000052d4H .pdata                  DATA
 0005:00000000 00000610H .idata$5                DATA
 0005:00000610 00000028H .idata$2                DATA
 0005:00000638 00000018H .idata$3                DATA
 0005:00000650 00000610H .idata$4                DATA
 0005:00000c60 0000136fH .idata$6                DATA
 0006:00000000 00000175H .00cfg                  DATA
 0007:00000000 0000029fH _RDATA                  DATA

  Address         Publics by Value              Rva+Base               Lib:Object

 0000:00000000       __AbsoluteZero             0000000000000000     <absolute>
 0000:00000000       ___safe_se_handler_count   0000000000000000     <absolute>
 0000:00000000       ___safe_se_handler_table   0000000000000000     <absolute>
 0000:00000000       __arm64x_extra_rfe_table   0000000000000000     <absolute>
 0000:00000000       __arm64x_extra_rfe_table_size 0000000000000000     <absolute>
 0000:00000000       __arm64x_native_entrypoint 0000000000000000     <absolute>
 0000:00000000       __arm64x_redirection_metadata 0000000000000000     <absolute>
 0000:00000000       __arm64x_redirection_metadata_count 0000000000000000     <absolute>
 0000:00000000       __dynamic_value_reloc_table 0000000000000000     <absolute>
 0000:00000000       __enclave_config           0000000000000000     <absolute>
 0000:00000000       __guard_check_icall_a64n_fptr 0000000000000000     <absolute>
 0000:00000000       __guard_eh_cont_count      0000000000000000     <absolute>
 0000:00000000       __guard_eh_cont_table      0000000000000000     <absolute>
 0000:00000000       __guard_fids_count         0000000000000000     <absolute>
 0000:00000000       __guard_fids_table         0000000000000000     <absolute>
 0000:00000000       __guard_iat_count          0000000000000000     <absolute>
 0000:00000000       __guard_iat_table          0000000000000000     <absolute>
 0000:00000000       __guard_longjmp_count      0000000000000000     <absolute>
 0000:00000000       __guard_longjmp_table      0000000000000000     <absolute>
 0000:00000000       __hybrid_auxiliary_iat     0000000000000000     <absolute>
 0000:00000000       __hybrid_auxiliary_iat_copy 0000000000000000     <absolute>
 0000:00000000       __hybrid_code_map          0000000000000000     <absolute>
 0000:00000000       __hybrid_code_map_count    0000000000000000     <absolute>
 0000:00000000       __volatile_metadata        0000000000000000     <absolute>
 0000:00000000       __x64_code_ranges_to_entry_points 0000000000000000     <absolute>
 0000:00000000       __x64_code_ranges_to_entry_points_count 0000000000000000     <absolute>
 0000:00000100       __guard_flags              0000000000000100     <absolute>
 0000:00000000       __ImageBase                0000000140000000     <linker-defined>
 0001:000064d0       ?TestAABBAABB@@YAHUAABB@@0@Z 00000001400074d0 f   collision.obj
 0001:000065d0       ?TestCircleCircle@@YAHUCircle@@0@Z 00000001400075d0 f   collision.obj
 0001:00006660       ?TestCircleAABB@@YAHUCircle@@UAABB@@@Z 0000000140007660 f   collision.obj
 0001:00006710       ?TestPointAABB@@YAHUTMVec2@@UAABB@@@Z 0000000140007710 f   collision.obj
 0001:000067b0       ?TestPointCircle@@YAHUTMVec2@@UCircle@@@Z 00000001400077b0 f   collision.obj
 0001:00006830       ?IntersectMovingAABBAABB@@YAHUAABB@@0UTMVec2@@1AEAM2@Z 0000000140007830 f   collision.obj
 0001:00006d20       ?IntersectMovingCircleAABB@@YAHUCircle@@UTMVec2@@UAABB@@AEAM@Z 0000000140007d20 f   collision.obj
 0001:00007050       ?ClosestPtPointAABB@@YAXUTMVec2@@UAABB@@AEAU1@@Z 0000000140008050 f   collision.obj
 0001:00007130       ?RayAABB@@YAHUTMVec2@@0UAABB@@AEAMAEAU1@@Z 0000000140008130 f   collision.obj
 0001:00007390       ?RayCircle@@YAHUTMVec2@@0UCircle@@AEAMAEAU1@@Z 0000000140008390 f   collision.obj
 0001:00007500       ?ClosestPtPointCircle@@YAXUTMVec2@@UCircle@@AEAU1@@Z 0000000140008500 f   collision.obj
 0001:00007590       ?ClosestPtSegmentSegment@@YAMUTMVec2@@000AEAM1AEAU1@2@Z 0000000140008590 f   collision.obj
 0001:00007a50       ?ClosestPtPointSegement@@YAXUTMVec2@@00AEAMAEAU1@@Z 0000000140008a50 f   collision.obj
 0001:00007b90       ?VorornoiRegionAABB@@YAHUCircle@@UAABB@@@Z 0000000140008b90 f   collision.obj
 0001:00007c50       ?IntersectSegmentCircle@@YAHUSegment@@UCircle@@AEAMAEAUTMVec2@@@Z 0000000140008c50 f   collision.obj
 0001:00007df0       ?IntersectSegmentCapsule@@YAHUSegment@@UTMVec2@@1MAEAMAEAU2@@Z 0000000140008df0 f   collision.obj
 0001:00008750       ??ATMVec2@@QEAAMI@Z        0000000140009750 f i collision.obj
 0001:00008770       fabsf                      0000000140009770 f i collision.obj
 0001:000087a0       ?EntitySystemInitialize@@YAXH@Z 00000001400097a0 f   entity.obj
 0001:00008830       ?EntitySystemShutdown@@YAXXZ 0000000140009830 f   entity.obj
 0001:00008880       ?EntityCreate@@YAPEAUEntity@@XZ 0000000140009880 f   entity.obj
 0001:000088e0       ?EntityDestroy@@YAXPEAUEntity@@@Z 00000001400098e0 f   entity.obj
 0001:000089a0       ?EntityAddGraphicsComponent@@YAXPEAUEntity@@UTMVec2@@1UTMVec4@@@Z 00000001400099a0 f   entity.obj
 0001:00008a40       ?EntityAddPhysicsComponent@@YAXPEAUEntity@@UTMVec2@@11M@Z 0000000140009a40 f   entity.obj
 0001:00008af0       ?EntityAddInputComponent@@YAXPEAUEntity@@@Z 0000000140009af0 f   entity.obj
 0001:00008b40       ?EntityAddCollisionComponent@@YAXPEAUEntity@@W4CollisionType@@UAABB@@@Z 0000000140009b40 f   entity.obj
 0001:00008bd0       ?EntityAddCollisionComponent@@YAXPEAUEntity@@W4CollisionType@@UOBB@@@Z 0000000140009bd0 f   entity.obj
 0001:00008c60       ?EntityAddCollisionComponent@@YAXPEAUEntity@@W4CollisionType@@UCircle@@@Z 0000000140009c60 f   entity.obj
 0001:00008cf0       ?EntityAddCollisionComponent@@YAXPEAUEntity@@W4CollisionType@@UCapsule@@@Z 0000000140009cf0 f   entity.obj
 0001:00008ef0       ?GameInitialize@@YAXPEAUGameState@@PEAUTMWindow@@@Z 0000000140009ef0 f   game.obj
 0001:0000a5f0       ?GameUpdate@@YAXPEAUGameState@@M@Z 000000014000b5f0 f   game.obj
 0001:0000a690       ?GameFixUpdate@@YAXPEAUGameState@@M@Z 000000014000b690 f   game.obj
 0001:0000a6d0       ?GamePostUpdate@@YAXPEAUGameState@@M@Z 000000014000b6d0 f   game.obj
 0001:0000a730       ?GameRender@@YAXPEAUGameState@@@Z 000000014000b730 f   game.obj
 0001:0000a8b0       ?GameShutdown@@YAXPEAUGameState@@@Z 000000014000b8b0 f   game.obj
 0001:0000a9a0       ?UpdateCameraToFollowTarget@@YAXPEAUGameState@@PEAUEntity@@@Z 000000014000b9a0 f   game.obj
 0001:0000b1c0       main                       000000014000c1c0 f   main.obj
 0001:0000b610       __local_stdio_printf_options 000000014000c610 f i main.obj
 0001:0000b620       _vfprintf_l                000000014000c620 f i main.obj
 0001:0000b680       printf                     000000014000c680 f i main.obj
 0001:0000b6f0       ?MessageSystemInitialize@@YAXXZ 000000014000c6f0 f   message.obj
 0001:0000b720       ?MessageSystemShoutdown@@YAXXZ 000000014000c720 f   message.obj
 0001:0000b780       ?MessageRegister@@YA_NW4MessageType@@PEAXP6AX011UMessage@@@Z@Z 000000014000c780 f   message.obj
 0001:0000b8e0       ?MessageFireSpread@@YAXW4MessageType@@PEAXUMessage@@@Z 000000014000c8e0 f   message.obj
 0001:0000b9d0       ?MessageFireFirstHit@@YAXW4MessageType@@PEAXUMessage@@@Z 000000014000c9d0 f   message.obj
 0001:0000cce0       ?CollisionSystemOnMessage@@YAXW4MessageType@@PEAX1UMessage@@@Z 000000014000dce0 f   collision_sys.obj
 0001:0000d0d0       ?CollisionSystemInitialize@@YAXXZ 000000014000e0d0 f   collision_sys.obj
 0001:0000d110       ?CollisionSystemShutdown@@YAXXZ 000000014000e110 f   collision_sys.obj
 0001:0000d120       ?CollisionSystemUpdate@@YAXPEAPEAUEntity@@@Z 000000014000e120 f   collision_sys.obj
 0001:0000d760       ?GraphicsSystemOnMessage@@YAXW4MessageType@@PEAX1UMessage@@@Z 000000014000e760 f   graphics_sys.obj
 0001:0000d7d0       ?GraphicsSystemInitialize@@YAXXZ 000000014000e7d0 f   graphics_sys.obj
 0001:0000d800       ?GraphicsSystemShutdown@@YAXXZ 000000014000e800 f   graphics_sys.obj
 0001:0000d810       ?GraphicsSystemDraw@@YAXPEAUTMRenderBatch@@PEAPEAUEntity@@@Z 000000014000e810 f   graphics_sys.obj
 0001:0000e0b0       ?InputSystemUpdate@@YAXPEAPEAUEntity@@@Z 000000014000f0b0 f   input_sys.obj
 0001:0000e830       ?PhysicSystemOnMessage@@YAXW4MessageType@@PEAX1UMessage@@@Z 000000014000f830 f   physics_sys.obj
 0001:0000ea60       ?PhysicSystemInitialize@@YAXXZ 000000014000fa60 f   physics_sys.obj
 0001:0000eac0       ?PhysicSystemShutdown@@YAXXZ 000000014000fac0 f   physics_sys.obj
 0001:0000ead0       ?PhysicSystemUpdate@@YAXPEAPEAUEntity@@M@Z 000000014000fad0 f   physics_sys.obj
 0001:0000ed10       ?PhysicSystemFixUpdate@@YAXPEAPEAUEntity@@M@Z 000000014000fd10 f   physics_sys.obj
 0001:0000ee60       ?PhysicSystemPostUpdate@@YAXPEAPEAUEntity@@M@Z 000000014000fe60 f   physics_sys.obj
 0001:0000f267       ??H@YA?AUTMVec2@@U0@0@Z    0000000140010267 f   tmlib:tmlib.dll
 0001:0000f26d       ??G@YA?AUTMVec2@@U0@0@Z    000000014001026d f   tmlib:tmlib.dll
 0001:0000f273       ??D@YA?AUTMVec2@@U0@M@Z    0000000140010273 f   tmlib:tmlib.dll
 0001:0000f279       ?TMVec2Dot@@YAMUTMVec2@@0@Z 0000000140010279 f   tmlib:tmlib.dll
 0001:0000f27f       ?TMVec2LenSq@@YAMUTMVec2@@@Z 000000014001027f f   tmlib:tmlib.dll
 0001:0000f285       ?TMVec2Normalized@@YA?AUTMVec2@@U1@@Z 0000000140010285 f   tmlib:tmlib.dll
 0001:0000f28b       ?TMMemoryPoolCreate@@YAPEAUTMMemoryPool@@II@Z 000000014001028b f   tmlib:tmlib.dll
 0001:0000f291       ?TMMemoryPoolDestroy@@YAXPEAUTMMemoryPool@@@Z 0000000140010291 f   tmlib:tmlib.dll
 0001:0000f297       ?TMMemoryPoolAlloc@@YAPEAXPEAUTMMemoryPool@@@Z 0000000140010297 f   tmlib:tmlib.dll
 0001:0000f29d       ?TMMemoryPoolFree@@YAXPEAUTMMemoryPool@@PEAX@Z 000000014001029d f   tmlib:tmlib.dll
 0001:0000f2a3       ??H@YA?AUTMVec3@@U0@0@Z    00000001400102a3 f   tmlib:tmlib.dll
 0001:0000f2a9       ?TMMat4Ortho@@YA?AUTMMat4@@MMMMMM@Z 00000001400102a9 f   tmlib:tmlib.dll
 0001:0000f2af       ?TMMat4Identity@@YA?AUTMMat4@@XZ 00000001400102af f   tmlib:tmlib.dll
 0001:0000f2b5       ?TMMat4LookAt@@YA?AUTMMat4@@UTMVec3@@00@Z 00000001400102b5 f   tmlib:tmlib.dll
 0001:0000f2bb       ?TMRendererCreate@@YAPEAUTMRenderer@@PEAUTMWindow@@@Z 00000001400102bb f   tmlib:tmlib.dll
 0001:0000f2c1       ?TMRendererDestroy@@YAXPEAUTMRenderer@@@Z 00000001400102c1 f   tmlib:tmlib.dll
 0001:0000f2c7       ?TMRendererDepthTestDisable@@YAXPEAUTMRenderer@@@Z 00000001400102c7 f   tmlib:tmlib.dll
 0001:0000f2cd       ?TMRendererFaceCulling@@YAXPEAUTMRenderer@@_NI@Z 00000001400102cd f   tmlib:tmlib.dll
 0001:0000f2d3       ?TMRendererGetWidth@@YAHPEAUTMRenderer@@@Z 00000001400102d3 f   tmlib:tmlib.dll
 0001:0000f2d9       ?TMRendererGetHeight@@YAHPEAUTMRenderer@@@Z 00000001400102d9 f   tmlib:tmlib.dll
 0001:0000f2df       ?TMRendererClear@@YAXPEAUTMRenderer@@MMMMI@Z 00000001400102df f   tmlib:tmlib.dll
 0001:0000f2e5       ?TMRendererPresent@@YAXPEAUTMRenderer@@H@Z 00000001400102e5 f   tmlib:tmlib.dll
 0001:0000f2eb       ?TMRendererShaderCreate@@YAPEAUTMShader@@PEAUTMRenderer@@PEBD1@Z 00000001400102eb f   tmlib:tmlib.dll
 0001:0000f2f1       ?TMRendererShaderDestroy@@YAXPEAUTMRenderer@@PEAUTMShader@@@Z 00000001400102f1 f   tmlib:tmlib.dll
 0001:0000f2f7       ?TMRendererBindShader@@YAXPEAUTMRenderer@@PEAUTMShader@@@Z 00000001400102f7 f   tmlib:tmlib.dll
 0001:0000f2fd       ?TMRendererShaderBufferCreate@@YAPEAUTMShaderBuffer@@PEAUTMRenderer@@PEAX_KI@Z 00000001400102fd f   tmlib:tmlib.dll
 0001:0000f303       ?TMRendererShaderBufferDestroy@@YAXPEAUTMRenderer@@PEAUTMShaderBuffer@@@Z 0000000140010303 f   tmlib:tmlib.dll
 0001:0000f309       ?TMRendererShaderBufferUpdate@@YAXPEAUTMRenderer@@PEAUTMShaderBuffer@@PEAX@Z 0000000140010309 f   tmlib:tmlib.dll
 0001:0000f30f       ?TMRendererTextureCreate@@YAPEAUTMTexture@@PEAUTMRenderer@@PEBD@Z 000000014001030f f   tmlib:tmlib.dll
 0001:0000f315       ?TMRendererTextureDestroy@@YAXPEAUTMRenderer@@PEAUTMTexture@@@Z 0000000140010315 f   tmlib:tmlib.dll
 0001:0000f31b       ?TMRendererRenderBatchCreate@@YAPEAUTMRenderBatch@@PEAUTMRenderer@@PEAUTMShader@@PEAUTMTexture@@_K@Z 000000014001031b f   tmlib:tmlib.dll
 0001:0000f321       ?TMRendererRenderBatchDestroy@@YAXPEAUTMRenderer@@PEAUTMRenderBatch@@@Z 0000000140010321 f   tmlib:tmlib.dll
 0001:0000f327       ?TMDarrayCreate_@@YAPEAXPEAXII@Z 0000000140010327 f   tmlib:tmlib.dll
 0001:0000f32d       ?TMDarraySize_@@YAIPEAX@Z  000000014001032d f   tmlib:tmlib.dll
 0001:0000f333       ?TMDebugRendererInitialize_@@YAXPEAUTMRenderer@@_K@Z 0000000140010333 f   tmlib:tmlib.dll
 0001:0000f339       ?TMDebugRendererShutdown_@@YAXXZ 0000000140010339 f   tmlib:tmlib.dll
 0001:0000f33f       ?TMDebugRendererDrawCircle_@@YAXMMMII@Z 000000014001033f f   tmlib:tmlib.dll
 0001:0000f345       ?TMDebugRenderDraw_@@YAXXZ 0000000140010345 f   tmlib:tmlib.dll
 0001:0000f34b       ?TMWindowCreate@@YAPEAUTMWindow@@HHPEBD@Z 000000014001034b f   tmlib:tmlib.dll
 0001:0000f351       ?TMWindowDestroy@@YAXPEAUTMWindow@@@Z 0000000140010351 f   tmlib:tmlib.dll
 0001:0000f357       ?TMWindowShouldClose@@YA_NPEAUTMWindow@@@Z 0000000140010357 f   tmlib:tmlib.dll
 0001:0000f35d       ?TMWindowFlushEventQueue@@YAXPEAUTMWindow@@@Z 000000014001035d f   tmlib:tmlib.dll
 0001:0000f363       ?TMWindowPresent@@YAXPEAUTMWindow@@@Z 0000000140010363 f   tmlib:tmlib.dll
 0001:0000f369       ?TMSleep@@YAXM@Z           0000000140010369 f   tmlib:tmlib.dll
 0001:0000f36f       ?TMTimerStart@@YAXPEAUTMTimer@@@Z 000000014001036f f   tmlib:tmlib.dll
 0001:0000f375       ?TMTimerGetCurrentTime@@YA_KPEAUTMTimer@@@Z 0000000140010375 f   tmlib:tmlib.dll
 0001:0000f37b       ?TMDarrayDestroy_@@YAXPEAX@Z 000000014001037b f   tmlib:tmlib.dll
 0001:0000f381       ?TMVec2Len@@YAMUTMVec2@@@Z 0000000140010381 f   tmlib:tmlib.dll
 0001:0000f387       ?TMDebugRendererDrawLine_@@YAXMMMMI@Z 0000000140010387 f   tmlib:tmlib.dll
 0001:0000f38d       ?TMRendererRenderBatchAdd@@YAXPEAUTMRenderBatch@@MMMMMMMMMM@Z 000000014001038d f   tmlib:tmlib.dll
 0001:0000f393       ?TMRendererRenderBatchDraw@@YAXPEAUTMRenderBatch@@@Z 0000000140010393 f   tmlib:tmlib.dll
 0001:0000f399       ?TMDebugRendererDrawQuad_@@YAXMMMMMI@Z 0000000140010399 f   tmlib:tmlib.dll
 0001:0000f39f       ?TMDebugRendererDrawCapsule_@@YAXMMMMMII@Z 000000014001039f f   tmlib:tmlib.dll
 0001:0000f3a5       ?TMInputKeyboardKeyIsDown@@YA_NI@Z 00000001400103a5 f   tmlib:tmlib.dll
 0001:0000f3ab       ?TMInputKeyboardKeyJustDown@@YA_NI@Z 00000001400103ab f   tmlib:tmlib.dll
 0001:0000f3b1       ?TMVec2Project@@YA?AUTMVec2@@U1@0@Z 00000001400103b1 f   tmlib:tmlib.dll
 0001:0000f3b8       __GSHandlerCheck           00000001400103b8 f   LIBCMT:gshandler.obj
 0001:0000f3dc       __GSHandlerCheckCommon     00000001400103dc f   LIBCMT:gshandler.obj
 0001:0000f460       __security_check_cookie    0000000140010460 f   LIBCMT:amdsecgs.obj
 0001:0000f798       ?configure_argv@__scrt_narrow_argv_policy@@SAHXZ 0000000140010798 f i LIBCMT:exe_main.obj
 0001:0000f7b4       ?initialize_environment@__scrt_narrow_environment_policy@@SAHXZ 00000001400107b4 f i LIBCMT:exe_main.obj
 0001:0000f800       ?set_app_type@__scrt_main_policy@@SAXXZ 0000000140010800 f i LIBCMT:exe_main.obj
 0001:0000f80c       ?set_commode@__scrt_file_policy@@SAXXZ 000000014001080c f i LIBCMT:exe_main.obj
 0001:0000f82c       ?set_fmode@__scrt_file_policy@@SAXXZ 000000014001082c f i LIBCMT:exe_main.obj
 0001:0000f848       mainCRTStartup             0000000140010848 f   LIBCMT:exe_main.obj
 0001:0000f860       __raise_securityfailure    0000000140010860 f   LIBCMT:gs_report.obj
 0001:0000f8a4       __report_gsfailure         00000001400108a4 f   LIBCMT:gs_report.obj
 0001:0000f9ac       __report_rangecheckfailure 00000001400109ac f   LIBCMT:gs_report.obj
 0001:0000f9c4       __report_securityfailure   00000001400109c4 f   LIBCMT:gs_report.obj
 0001:0000fa88       __report_securityfailureEx 0000000140010a88 f   LIBCMT:gs_report.obj
 0001:0000fd8c       NtCurrentTeb               0000000140010d8c f i LIBCMT:utility.obj
 0001:0000fd98       __scrt_acquire_startup_lock 0000000140010d98 f   LIBCMT:utility.obj
 0001:0000fde0       __scrt_dllmain_after_initialize_c 0000000140010de0 f   LIBCMT:utility.obj
 0001:0000fe24       __scrt_dllmain_before_initialize_c 0000000140010e24 f   LIBCMT:utility.obj
 0001:0000fe40       __scrt_dllmain_crt_thread_attach 0000000140010e40 f   LIBCMT:utility.obj
 0001:0000fe74       __scrt_dllmain_crt_thread_detach 0000000140010e74 f   LIBCMT:utility.obj
 0001:0000fe90       __scrt_dllmain_exception_filter 0000000140010e90 f   LIBCMT:utility.obj
 0001:0000ff08       __scrt_dllmain_uninitialize_c 0000000140010f08 f   LIBCMT:utility.obj
 0001:0000ff44       __scrt_dllmain_uninitialize_critical 0000000140010f44 f   LIBCMT:utility.obj
 0001:0000ff60       __scrt_initialize_crt      0000000140010f60 f   LIBCMT:utility.obj
 0001:0000ffbc       __scrt_initialize_onexit_tables 0000000140010fbc f   LIBCMT:utility.obj
 0001:0001006c       __scrt_is_nonwritable_in_current_image 000000014001106c f   LIBCMT:utility.obj
 0001:0001012c       __scrt_release_startup_lock 000000014001112c f   LIBCMT:utility.obj
 0001:0001015c       __scrt_uninitialize_crt    000000014001115c f   LIBCMT:utility.obj
 0001:00010190       _onexit                    0000000140011190 f   LIBCMT:utility.obj
 0001:000101d8       at_quick_exit              00000001400111d8 f   LIBCMT:utility.obj
 0001:000101fc       atexit                     00000001400111fc f   LIBCMT:utility.obj
 0001:000102a0       __security_init_cookie     00000001400112a0 f   LIBCMT:gs_support.obj
 0001:00010378       _matherr                   0000000140011378 f   LIBCMT:matherr.obj
 0001:0001037c       _get_startup_argv_mode     000000014001137c f   LIBCMT:argv_mode.obj
 0001:00010384       _get_startup_commit_mode   0000000140011384 f   LIBCMT:commit_mode.obj
 0001:00010388       _get_startup_file_mode     0000000140011388 f   LIBCMT:file_mode.obj
 0001:00010390       _get_startup_new_mode      0000000140011390 f   LIBCMT:new_mode.obj
 0001:00010394       _get_startup_thread_locale_mode 0000000140011394 f   LIBCMT:thread_locale.obj
 0001:00010398       ?__scrt_initialize_type_info@@YAXXZ 0000000140011398 f   LIBCMT:tncleanup.obj
 0001:000103ac       ?__scrt_uninitialize_type_info@@YAXXZ 00000001400113ac f   LIBCMT:tncleanup.obj
 0001:000103bc       _should_initialize_environment 00000001400113bc f   LIBCMT:env_mode.obj
 0001:000103c0       _initialize_invalid_parameter_handler 00000001400113c0 f   LIBCMT:invalid_parameter_handler.obj
 0001:000103c4       _initialize_denormal_control 00000001400113c4 f   LIBCMT:denormal_control.obj
 0001:000103c8       __local_stdio_scanf_options 00000001400113c8 f i LIBCMT:default_local_stdio_options.obj
 0001:000103d4       __scrt_initialize_default_local_stdio_options 00000001400113d4 f   LIBCMT:default_local_stdio_options.obj
 0001:000103f8       __scrt_is_user_matherr_present 00000001400113f8 f   LIBCMT:matherr_detection.obj
 0001:00010408       __scrt_get_dyn_tls_init_callback 0000000140011408 f   LIBCMT:dyn_tls_init.obj
 0001:00010414       __scrt_get_dyn_tls_dtor_callback 0000000140011414 f   LIBCMT:dyn_tls_dtor.obj
 0001:00010420       __crt_debugger_hook        0000000140011420 f   LIBCMT:utility_desktop.obj
 0001:0001042c       __scrt_fastfail            000000014001142c f   LIBCMT:utility_desktop.obj
 0001:000105cc       __scrt_get_show_window_mode 00000001400115cc f   LIBCMT:utility_desktop.obj
 0001:00010614       __scrt_initialize_mta      0000000140011614 f   LIBCMT:utility_desktop.obj
 0001:0001061c       __scrt_initialize_winrt    000000014001161c f   LIBCMT:utility_desktop.obj
 0001:00010620       __scrt_is_managed_app      0000000140011620 f   LIBCMT:utility_desktop.obj
 0001:00010688       __scrt_set_unhandled_exception_filter 0000000140011688 f   LIBCMT:utility_desktop.obj
 0001:0001069c       __scrt_exe_initialize_mta  000000014001169c f   LIBCMT:utility_desktop.obj
 0001:0001069c       __scrt_stub_for_initialize_mta 000000014001169c f   LIBCMT:utility_desktop.obj
 0001:000106a0       __scrt_unhandled_exception_filter 00000001400116a0 f   LIBCMT:utility_desktop.obj
 0001:00010714       _RTC_Initialize            0000000140011714 f   LIBCMT:initsect.obj
 0001:00010760       _RTC_Terminate             0000000140011760 f   LIBCMT:initsect.obj
 0001:000107ac       _guard_check_icall_nop     00000001400117ac f i LIBCMT:guard_support.obj
 0001:000107b0       ReadNoFence64              00000001400117b0 f i LIBCMT:guard_support.obj
 0001:000107b4       ReadPointerNoFence         00000001400117b4 f i LIBCMT:guard_support.obj
 0001:000107b8       __castguard_check_failure_debugbreak 00000001400117b8 f i LIBCMT:guard_support.obj
 0001:000107dc       __castguard_check_failure_fastfail 00000001400117dc f i LIBCMT:guard_support.obj
 0001:00010808       __castguard_check_failure_nop 0000000140011808 f i LIBCMT:guard_support.obj
 0001:0001080c       __castguard_check_failure_os_handled 000000014001180c f i LIBCMT:guard_support.obj
 0001:000108a0       __castguard_slow_path_check_debugbreak 00000001400118a0 f i LIBCMT:guard_support.obj
 0001:000108e4       __castguard_slow_path_check_fastfail 00000001400118e4 f i LIBCMT:guard_support.obj
 0001:0001092c       __castguard_slow_path_check_nop 000000014001192c f i LIBCMT:guard_support.obj
 0001:00010930       __castguard_slow_path_check_os_handled 0000000140011930 f i LIBCMT:guard_support.obj
 0001:000109b8       _guard_icall_checks_enforced 00000001400119b8 f i LIBCMT:guard_support.obj
 0001:000109d4       _guard_rf_checks_enforced  00000001400119d4 f i LIBCMT:guard_support.obj
 0001:000109d8       __isa_available_init       00000001400119d8 f   LIBCMT:cpu_disp.obj
 0001:00010bf0       __scrt_is_ucrt_dll_in_use  0000000140011bf0 f   LIBCMT:ucrt_detection.obj
 0001:00010c00       RtlCaptureContext          0000000140011c00 f   kernel32:KERNEL32.dll
 0001:00010c06       RtlLookupFunctionEntry     0000000140011c06 f   kernel32:KERNEL32.dll
 0001:00010c0c       RtlVirtualUnwind           0000000140011c0c f   kernel32:KERNEL32.dll
 0001:00010c12       UnhandledExceptionFilter   0000000140011c12 f   kernel32:KERNEL32.dll
 0001:00010c18       SetUnhandledExceptionFilter 0000000140011c18 f   kernel32:KERNEL32.dll
 0001:00010c1e       GetCurrentProcess          0000000140011c1e f   kernel32:KERNEL32.dll
 0001:00010c24       TerminateProcess           0000000140011c24 f   kernel32:KERNEL32.dll
 0001:00010c2a       IsProcessorFeaturePresent  0000000140011c2a f   kernel32:KERNEL32.dll
 0001:00010c30       QueryPerformanceCounter    0000000140011c30 f   kernel32:KERNEL32.dll
 0001:00010c36       GetCurrentProcessId        0000000140011c36 f   kernel32:KERNEL32.dll
 0001:00010c3c       GetCurrentThreadId         0000000140011c3c f   kernel32:KERNEL32.dll
 0001:00010c42       GetSystemTimeAsFileTime    0000000140011c42 f   kernel32:KERNEL32.dll
 0001:00010c48       InitializeSListHead        0000000140011c48 f   kernel32:KERNEL32.dll
 0001:00010c4e       IsDebuggerPresent          0000000140011c4e f   kernel32:KERNEL32.dll
 0001:00010c54       GetStartupInfoW            0000000140011c54 f   kernel32:KERNEL32.dll
 0001:00010c5a       GetModuleHandleW           0000000140011c5a f   kernel32:KERNEL32.dll
 0001:00010c70       memset_repstos             0000000140011c70 f   libvcruntime:memset.obj
 0001:00010c90       memset                     0000000140011c90 f   libvcruntime:memset.obj
 0001:00011108       __C_specific_handler       0000000140012108 f   libvcruntime:riscchandler.obj
 0001:0001137c       __vcrt_initialize          000000014001237c f   libvcruntime:initialization.obj
 0001:000113b0       __vcrt_thread_attach       00000001400123b0 f   libvcruntime:initialization.obj
 0001:000113cc       __vcrt_thread_detach       00000001400123cc f   libvcruntime:initialization.obj
 0001:000113e4       __vcrt_uninitialize        00000001400123e4 f   libvcruntime:initialization.obj
 0001:00011404       __vcrt_uninitialize_critical 0000000140012404 f   libvcruntime:initialization.obj
 0001:0001142c       ??$?RD@__crt_internal_free_policy@@QEBAXQEBD@Z 000000014001242c f i libvcruntime:std_type_info.obj
 0001:00011438       ??$?RX@__crt_internal_free_policy@@QEBAXQEBX@Z 0000000140012438 f i libvcruntime:std_type_info.obj
 0001:00011444       ??$__crt_interlocked_compare_exchange_pointer@$$CBDPEAD$$T@@YAPEBDPEDSEBDQEAD$$T@Z 0000000140012444 f i libvcruntime:std_type_info.obj
 0001:00011450       ??$__crt_interlocked_read_pointer@$$CBD@@YAPEBDPEDSEBD@Z 0000000140012450 f i libvcruntime:std_type_info.obj
 0001:00011458       ??0?$__crt_unique_heap_ptr@DU__crt_internal_free_policy@@@@QEAA@QEAD@Z 0000000140012458 f i libvcruntime:std_type_info.obj
 0001:00011460       ??0?$__crt_unique_heap_ptr@XU__crt_internal_free_policy@@@@QEAA@QEAX@Z 0000000140012460 f i libvcruntime:std_type_info.obj
 0001:00011468       ??1?$__crt_unique_heap_ptr@DU__crt_internal_free_policy@@@@QEAA@XZ 0000000140012468 f i libvcruntime:std_type_info.obj
 0001:0001148c       ??1?$__crt_unique_heap_ptr@XU__crt_internal_free_policy@@@@QEAA@XZ 000000014001248c f i libvcruntime:std_type_info.obj
 0001:000114b0       ??B?$__crt_unique_heap_ptr@DU__crt_internal_free_policy@@@@QEBA_NXZ 00000001400124b0 f i libvcruntime:std_type_info.obj
 0001:000114bc       ??B?$__crt_unique_heap_ptr@XU__crt_internal_free_policy@@@@QEBA_NXZ 00000001400124bc f i libvcruntime:std_type_info.obj
 0001:000114e0       ?__crt_interlocked_read_64@@YA_JPED_J@Z 00000001400124e0 f i libvcruntime:std_type_info.obj
 0001:000114e8       ?detach@?$__crt_unique_heap_ptr@XU__crt_internal_free_policy@@@@QEAAPEAXXZ 00000001400124e8 f i libvcruntime:std_type_info.obj
 0001:000114f4       ?get@?$__crt_unique_heap_ptr@DU__crt_internal_free_policy@@@@QEBAPEADXZ 00000001400124f4 f i libvcruntime:std_type_info.obj
 0001:000114f8       ?get@?$__crt_unique_heap_ptr@XU__crt_internal_free_policy@@@@QEBAPEAXXZ 00000001400124f8 f i libvcruntime:std_type_info.obj
 0001:000114fc       ?is_valid@?$__crt_unique_heap_ptr@DU__crt_internal_free_policy@@@@QEBA_NXZ 00000001400124fc f i libvcruntime:std_type_info.obj
 0001:00011508       ?is_valid@?$__crt_unique_heap_ptr@XU__crt_internal_free_policy@@@@QEBA_NXZ 0000000140012508 f i libvcruntime:std_type_info.obj
 0001:00011514       ?release@?$__crt_unique_heap_ptr@DU__crt_internal_free_policy@@@@QEAAXXZ 0000000140012514 f i libvcruntime:std_type_info.obj
 0001:00011538       ?release@?$__crt_unique_heap_ptr@XU__crt_internal_free_policy@@@@QEAAXXZ 0000000140012538 f i libvcruntime:std_type_info.obj
 0001:0001155c       __std_type_info_compare    000000014001255c f   libvcruntime:std_type_info.obj
 0001:0001158c       __std_type_info_destroy_list 000000014001258c f   libvcruntime:std_type_info.obj
 0001:000115c0       __std_type_info_hash       00000001400125c0 f   libvcruntime:std_type_info.obj
 0001:00011608       __std_type_info_name       0000000140012608 f   libvcruntime:std_type_info.obj
 0001:00011768       __DestructExceptionObject  0000000140012768 f   libvcruntime:ehhelpers.obj
 0001:000117f0       ?_CallMemberFunction0@@YAXQEAX0@Z 00000001400127f0 f i libvcruntime:ehhelpers.obj
 0001:00011864       ?raw_name@type_info@@QEBAPEBDXZ 0000000140012864 f i libvcruntime:ehhelpers.obj
 0001:0001186c       _IsExceptionObjectToBeDestroyed 000000014001286c f   libvcruntime:ehhelpers.obj
 0001:000118a8       _SetWinRTOutOfMemoryExceptionCallback 00000001400128a8 f   libvcruntime:ehhelpers.obj
 0001:000118b4       __AdjustPointer            00000001400128b4 f   libvcruntime:ehhelpers.obj
 0001:000118e0       __FrameUnwindFilter        00000001400128e0 f   libvcruntime:ehhelpers.obj
 0001:00011960       __GetPlatformExceptionInfo 0000000140012960 f   libvcruntime:ehhelpers.obj
 0001:000119d4       __current_exception        00000001400129d4 f   libvcruntime:ehhelpers.obj
 0001:000119ec       __current_exception_context 00000001400129ec f   libvcruntime:ehhelpers.obj
 0001:00011a04       __processing_throw         0000000140012a04 f   libvcruntime:ehhelpers.obj
 0001:00011a1c       __std_terminate            0000000140012a1c f   libvcruntime:ehhelpers.obj
 0001:00011a28       _is_exception_typeof       0000000140012a28 f   libvcruntime:ehhelpers.obj
 0001:00011b10       _NLG_Notify                0000000140012b10 f   libvcruntime:notify.obj
 0001:00011b30       __NLG_Dispatch2            0000000140012b30 f   libvcruntime:notify.obj
 0001:00011b40       __NLG_Return2              0000000140012b40 f   libvcruntime:notify.obj
 0001:00011b5c       __except_validate_context_record 0000000140012b5c f   libvcruntime:jbcxrval.obj
 0001:00011ba0       __except_validate_jump_buffer 0000000140012ba0 f   libvcruntime:jbcxrval.obj
 0001:00011bf0       __except_validate_jump_buffer_common 0000000140012bf0 f i libvcruntime:jbcxrval.obj
 0001:00011c64       ??$?RU__vcrt_ptd@@@__crt_internal_free_policy@@QEBAXQEBU__vcrt_ptd@@@Z 0000000140012c64 f i libvcruntime:per_thread_data.obj
 0001:00011c70       ??0?$__crt_unique_heap_ptr@U__vcrt_ptd@@U__crt_internal_free_policy@@@@QEAA@QEAU__vcrt_ptd@@@Z 0000000140012c70 f i libvcruntime:per_thread_data.obj
 0001:00011c98       ??1?$__crt_unique_heap_ptr@U__vcrt_ptd@@U__crt_internal_free_policy@@@@QEAA@XZ 0000000140012c98 f i libvcruntime:per_thread_data.obj
 0001:00011cc8       ??B?$__crt_unique_heap_ptr@U__vcrt_ptd@@U__crt_internal_free_policy@@@@QEBA_NXZ 0000000140012cc8 f i libvcruntime:per_thread_data.obj
 0001:00011cd4       ?detach@?$__crt_unique_heap_ptr@U__vcrt_ptd@@U__crt_internal_free_policy@@@@QEAAPEAU__vcrt_ptd@@XZ 0000000140012cd4 f i libvcruntime:per_thread_data.obj
 0001:00011ce0       ?get@?$__crt_unique_heap_ptr@U__vcrt_ptd@@U__crt_internal_free_policy@@@@QEBAPEAU__vcrt_ptd@@XZ 0000000140012ce0 f i libvcruntime:per_thread_data.obj
 0001:00011ce4       ?is_valid@?$__crt_unique_heap_ptr@U__vcrt_ptd@@U__crt_internal_free_policy@@@@QEBA_NXZ 0000000140012ce4 f i libvcruntime:per_thread_data.obj
 0001:00011cf0       ?release@?$__crt_unique_heap_ptr@U__vcrt_ptd@@U__crt_internal_free_policy@@@@QEAAXXZ 0000000140012cf0 f i libvcruntime:per_thread_data.obj
 0001:00011d48       __vcrt_freefls             0000000140012d48 f   libvcruntime:per_thread_data.obj
 0001:00011d70       __vcrt_freeptd             0000000140012d70 f   libvcruntime:per_thread_data.obj
 0001:00011dd0       __vcrt_getptd              0000000140012dd0 f   libvcruntime:per_thread_data.obj
 0001:00011df0       __vcrt_getptd_noexit       0000000140012df0 f   libvcruntime:per_thread_data.obj
 0001:00011ee0       __vcrt_getptd_noinit       0000000140012ee0 f   libvcruntime:per_thread_data.obj
 0001:00011f40       __vcrt_initialize_ptd      0000000140012f40 f   libvcruntime:per_thread_data.obj
 0001:00011f98       __vcrt_uninitialize_ptd    0000000140012f98 f   libvcruntime:per_thread_data.obj
 0001:00011fc4       __vcrt_initialize_locks    0000000140012fc4 f   libvcruntime:locks.obj
 0001:0001201c       __vcrt_lock                000000014001301c f   libvcruntime:locks.obj
 0001:0001203c       __vcrt_uninitialize_locks  000000014001303c f   libvcruntime:locks.obj
 0001:00012080       __vcrt_unlock              0000000140013080 f   libvcruntime:locks.obj
 0001:000120a0       ??$?0$00@DName@@QEAA@PEBDU?$StringLifeSelector@$00@@@Z 00000001400130a0 f i libvcruntime:undname.obj
 0001:000120f0       ??$?0$00@pcharNode@@QEAA@PEBDHU?$StringLifeSelector@$00@@@Z 00000001400130f0 f i libvcruntime:undname.obj
 0001:0001210c       ??$?0$01@DName@@QEAA@PEBDU?$StringLifeSelector@$01@@@Z 000000014001310c f i libvcruntime:undname.obj
 0001:0001215c       ??$?0$01@pcharNode@@QEAA@PEBDHU?$StringLifeSelector@$01@@@Z 000000014001315c f i libvcruntime:undname.obj
 0001:000121ec       ??$?0$0A@@DName@@QEAA@PEBDU?$StringLifeSelector@$0A@@@@Z 00000001400131ec f i libvcruntime:undname.obj
 0001:0001223c       ??$?0$0A@@pcharNode@@QEAA@PEBDHU?$StringLifeSelector@$0A@@@@Z 000000014001323c f i libvcruntime:undname.obj
 0001:000122cc       ??$?0_K$0A@@?$optional@_K@std@@QEAA@$$QEA_K@Z 00000001400132cc f i libvcruntime:undname.obj
 0001:000122e0       ??$?0_K@?$_Optional_construct_base@_K@std@@QEAA@Uin_place_t@1@$$QEA_K@Z 00000001400132e0 f i libvcruntime:undname.obj
 0001:000122f4       ??$?0_K@?$_Optional_destruct_base@_K$00@std@@QEAA@Uin_place_t@1@$$QEA_K@Z 00000001400132f4 f i libvcruntime:undname.obj
 0001:00012308       ??$append@VDNameNode@@@DName@@AEAAXPEBVDNameNode@@@Z 0000000140013308 f i libvcruntime:undname.obj
 0001:00012384       ??$append@VDNameStatusNode@@@DName@@AEAAXPEBVDNameStatusNode@@@Z 0000000140013384 f i libvcruntime:undname.obj
 0001:00012400       ??$append@VcharNode@@@DName@@AEAAXPEBVcharNode@@@Z 0000000140013400 f i libvcruntime:undname.obj
 0001:0001247c       ??$append@VpDNameNode@@@DName@@AEAAXPEBVpDNameNode@@@Z 000000014001347c f i libvcruntime:undname.obj
 0001:000124f8       ??$append@VpcharNode@@@DName@@AEAAXPEBVpcharNode@@@Z 00000001400134f8 f i libvcruntime:undname.obj
 0001:00012574       ??$doPchar@$00@DName@@AEAAXPEBDH@Z 0000000140013574 f i libvcruntime:undname.obj
 0001:00012640       ??$doPchar@$01@DName@@AEAAXPEBDH@Z 0000000140013640 f i libvcruntime:undname.obj
 0001:000126fc       ??$doPchar@$0A@@DName@@AEAAXPEBDH@Z 00000001400136fc f i libvcruntime:undname.obj
 0001:000127b8       ??$forward@_K@std@@YA$$QEA_KAEA_K@Z 00000001400137b8 f i libvcruntime:undname.obj
 0001:0001291c       ??$size@D$04@std@@YA_KAEAY04$$CBD@Z 000000014001391c f i libvcruntime:undname.obj
 0001:00012924       ??0?$_Optional_construct_base@_K@std@@QEAA@XZ 0000000140013924 f i libvcruntime:undname.obj
 0001:00012930       ??0?$_Optional_destruct_base@_K$00@std@@QEAA@XZ 0000000140013930 f i libvcruntime:undname.obj
 0001:0001293c       ??0?$optional@_K@std@@QEAA@XZ 000000014001393c f i libvcruntime:undname.obj
 0001:00012948       ??0Block@_HeapManager@@QEAA@XZ 0000000140013948 f i libvcruntime:undname.obj
 0001:00012954       ??0DName@@QEAA@AEAPEBDD@Z  0000000140013954 f   libvcruntime:undname.obj
 0001:00012a30       ??0DName@@QEAA@AEBUStringLiteral@@@Z 0000000140013a30 f   libvcruntime:undname.obj
 0001:00012a68       ??0DName@@QEAA@AEBV0@@Z    0000000140013a68 f i libvcruntime:undname.obj
 0001:00012a7c       ??0DName@@QEAA@D@Z         0000000140013a7c f   libvcruntime:undname.obj
 0001:00012aa4       ??0DName@@QEAA@PEAV0@@Z    0000000140013aa4 f   libvcruntime:undname.obj
 0001:00012b48       ??0DName@@QEAA@W4DNameStatus@@@Z 0000000140013b48 f   libvcruntime:undname.obj
 0001:00012b80       ??0DName@@QEAA@XZ          0000000140013b80 f i libvcruntime:undname.obj
 0001:00012b90       ??0DName@@QEAA@_J@Z        0000000140013b90 f   libvcruntime:undname.obj
 0001:00012c60       ??0DName@@QEAA@_K@Z        0000000140013c60 f   libvcruntime:undname.obj
 0001:00012d0c       ??0DNameNode@@IEAA@XZ      0000000140013d0c f i libvcruntime:undname.obj
 0001:00012d20       ??0Replicator@@QEAA@XZ     0000000140013d20 f i libvcruntime:undname.obj
 0001:00012d34       ??0UnDecorator@@QEAA@PEBDP6APEADJ@ZK@Z 0000000140013d34 f i libvcruntime:undname.obj
 0001:00012d98       ??0_Nontrivial_dummy_type@std@@QEAA@XZ 0000000140013d98 f i libvcruntime:undname.obj
 0001:00012d9c       ??0charNode@@QEAA@D@Z      0000000140013d9c f i libvcruntime:undname.obj
 0001:00012db4       ??0pDNameNode@@QEAA@PEAVDName@@@Z 0000000140013db4 f   libvcruntime:undname.obj
 0001:00012de4       ??0pairNode@@QEAA@PEBVDNameNode@@0@Z 0000000140013de4 f i libvcruntime:undname.obj
 0001:00012e0c       ??2@YAPEAX_KAEAV_HeapManager@@H@Z 0000000140013e0c f   libvcruntime:undname.obj
 0001:00012e40       ??4DName@@QEAAAEAV0@AEBUStringLiteral@@@Z 0000000140013e40 f   libvcruntime:undname.obj
 0001:00012e70       ??4DName@@QEAAAEAV0@AEBV0@@Z 0000000140013e70 f   libvcruntime:undname.obj
 0001:00012e84       ??4DName@@QEAAAEAV0@D@Z    0000000140013e84 f i libvcruntime:undname.obj
 0001:00012eac       ??4DName@@QEAAAEAV0@PEAV0@@Z 0000000140013eac f   libvcruntime:undname.obj
 0001:00012f40       ??4DName@@QEAAAEAV0@W4DNameStatus@@@Z 0000000140013f40 f   libvcruntime:undname.obj
 0001:00012f7c       ??AReplicator@@QEBA?AVDName@@H@Z 0000000140013f7c f   libvcruntime:undname.obj
 0001:00012fcc       ??B?$optional@_K@std@@QEBA_NXZ 0000000140013fcc f i libvcruntime:undname.obj
 0001:00012fd0       ??D?$_Optional_construct_base@_K@std@@QEGAAAEA_KXZ 0000000140013fd0 f i libvcruntime:undname.obj
 0001:00012fd4       ??H@YA?AVDName@@AEBUStringLiteral@@AEBV0@@Z 0000000140013fd4 f i libvcruntime:undname.obj
 0001:00013018       ??H@YA?AVDName@@DAEBV0@@Z  0000000140014018 f i libvcruntime:undname.obj
 0001:0001306c       ??H@YA?AVDName@@W4DNameStatus@@AEBV0@@Z 000000014001406c f i libvcruntime:undname.obj
 0001:000130c8       ??HDName@@QEBA?AV0@AEBUStringLiteral@@@Z 00000001400140c8 f   libvcruntime:undname.obj
 0001:000130fc       ??HDName@@QEBA?AV0@AEBV0@@Z 00000001400140fc f   libvcruntime:undname.obj
 0001:00013130       ??HDName@@QEBA?AV0@D@Z     0000000140014130 f   libvcruntime:undname.obj
 0001:00013164       ??HDName@@QEBA?AV0@PEAV0@@Z 0000000140014164 f   libvcruntime:undname.obj
 0001:00013198       ??HDName@@QEBA?AV0@W4DNameStatus@@@Z 0000000140014198 f   libvcruntime:undname.obj
 0001:000131cc       ??HStringLiteral@@QEBA?AU0@H@Z 00000001400141cc f i libvcruntime:undname.obj
 0001:000131e8       ??YDName@@QEAAAEAV0@AEBUStringLiteral@@@Z 00000001400141e8 f   libvcruntime:undname.obj
 0001:00013288       ??YDName@@QEAAAEAV0@AEBV0@@Z 0000000140014288 f   libvcruntime:undname.obj
 0001:000132f8       ??YDName@@QEAAAEAV0@D@Z    00000001400142f8 f   libvcruntime:undname.obj
 0001:00013380       ??YDName@@QEAAAEAV0@PEAV0@@Z 0000000140014380 f   libvcruntime:undname.obj
 0001:00013438       ??YDName@@QEAAAEAV0@W4DNameStatus@@@Z 0000000140014438 f   libvcruntime:undname.obj
 0001:000134a4       ??YReplicator@@QEAAAEAV0@AEBVDName@@@Z 00000001400144a4 f   libvcruntime:undname.obj
 0001:00013514       ??_5DName@@QEAAAEAV0@AEBV0@@Z 0000000140014514 f   libvcruntime:undname.obj
 0001:00013534       ??__K_l@@YA?AUStringLiteral@@PEBD_K@Z 0000000140014534 f i libvcruntime:undname.obj
 0001:00013544       ?Constructor@_HeapManager@@QEAAXP6APEAX_K@ZP6AXPEAX@Z@Z 0000000140014544 f i libvcruntime:undname.obj
 0001:00013560       ?Destructor@_HeapManager@@QEAAXXZ 0000000140014560 f i libvcruntime:undname.obj
 0001:000135bc       ?UScore@UnDecorator@@SA?AUStringLiteral@@W4Tokens@@@Z 00000001400145bc f   libvcruntime:undname.obj
 0001:0001361c       ?composeDeclaration@UnDecorator@@CA?AVDName@@AEBV2@@Z 000000014001461c f i libvcruntime:undname.obj
 0001:000148cc       ?doAccessSpecifiers@UnDecorator@@SAHXZ 00000001400158cc f i libvcruntime:undname.obj
 0001:000148e0       ?doAllocationLanguage@UnDecorator@@SAHXZ 00000001400158e0 f i libvcruntime:undname.obj
 0001:000148f4       ?doAllocationModel@UnDecorator@@SAHXZ 00000001400158f4 f i libvcruntime:undname.obj
 0001:00014908       ?doEcsu@UnDecorator@@SAHXZ 0000000140015908 f i libvcruntime:undname.obj
 0001:0001491c       ?doEllipsis@UnDecorator@@SAHXZ 000000014001591c f i libvcruntime:undname.obj
 0001:00014930       ?doFunctionReturns@UnDecorator@@SAHXZ 0000000140015930 f i libvcruntime:undname.obj
 0001:00014944       ?doMSKeywords@UnDecorator@@SAHXZ 0000000140015944 f i libvcruntime:undname.obj
 0001:00014958       ?doMemberTypes@UnDecorator@@SAHXZ 0000000140015958 f i libvcruntime:undname.obj
 0001:0001496c       ?doNameOnly@UnDecorator@@SAHXZ 000000014001596c f i libvcruntime:undname.obj
 0001:0001497c       ?doNoIdentCharCheck@UnDecorator@@SAHXZ 000000014001597c f i libvcruntime:undname.obj
 0001:0001498c       ?doPchar@DName@@AEAAXD@Z   000000014001598c f   libvcruntime:undname.obj
 0001:000149f0       ?doPtr64@UnDecorator@@SAHXZ 00000001400159f0 f i libvcruntime:undname.obj
 0001:00014a04       ?doRestrictionSpec@UnDecorator@@SAHXZ 0000000140015a04 f i libvcruntime:undname.obj
 0001:00014a18       ?doThisTypes@UnDecorator@@SAHXZ 0000000140015a18 f i libvcruntime:undname.obj
 0001:00014a30       ?doThrowTypes@UnDecorator@@SAHXZ 0000000140015a30 f i libvcruntime:undname.obj
 0001:00014a44       ?doTypeOnly@UnDecorator@@SAHXZ 0000000140015a44 f i libvcruntime:undname.obj
 0001:00014a54       ?doUnderScore@UnDecorator@@SAHXZ 0000000140015a54 f i libvcruntime:undname.obj
 0001:00014a64       ?getAddressOf@UnDecorator@@CA?AVDName@@XZ 0000000140015a64 f   libvcruntime:undname.obj
 0001:00014b18       ?getArgumentList@UnDecorator@@CA?AVDName@@XZ 0000000140015b18 f   libvcruntime:undname.obj
 0001:00014d3c       ?getArgumentTypes@UnDecorator@@CA?AVDName@@XZ 0000000140015d3c f   libvcruntime:undname.obj
 0001:00014edc       ?getArrayAccess@UnDecorator@@CA?AVDName@@XZ 0000000140015edc f   libvcruntime:undname.obj
 0001:00014f9c       ?getArrayObject@UnDecorator@@CA?AVDName@@XZ 0000000140015f9c f   libvcruntime:undname.obj
 0001:00015084       ?getArrayType@UnDecorator@@CA?AVDName@@AEBV2@@Z 0000000140016084 f i libvcruntime:undname.obj
 0001:0001535c       ?getBasedType@UnDecorator@@CA?AVDName@@XZ 000000014001635c f   libvcruntime:undname.obj
 0001:00015490       ?getBasicDataType@UnDecorator@@CA?AVDName@@AEBV2@@Z 0000000140016490 f   libvcruntime:undname.obj
 0001:00015c14       ?getCHPEName@UnDecorator@@QEAAPEADPEADH@Z 0000000140016c14 f i libvcruntime:undname.obj
 0001:00015d78       ?getCallIndex@UnDecorator@@CA?AVDName@@XZ 0000000140016d78 f i libvcruntime:undname.obj
 0001:00015d98       ?getCallingConvention@UnDecorator@@CA?AVDName@@XZ 0000000140016d98 f   libvcruntime:undname.obj
 0001:00015f20       ?getDataIndirectType@UnDecorator@@CA?AVDName@@AEBV2@W4IndirectionKind@@0H@Z 0000000140016f20 f   libvcruntime:undname.obj
 0001:00016a90       ?getDataIndirectType@UnDecorator@@CA?AVDName@@XZ 0000000140017a90 f i libvcruntime:undname.obj
 0001:00016ad8       ?getDataType@UnDecorator@@CA?AVDName@@PEAV2@@Z 0000000140017ad8 f   libvcruntime:undname.obj
 0001:00016c30       ?getDecoratedName@UnDecorator@@CA?AVDName@@XZ 0000000140017c30 f   libvcruntime:undname.obj
 0001:00016fd0       ?getDimension@UnDecorator@@CA?AVDName@@_N@Z 0000000140017fd0 f   libvcruntime:undname.obj
 0001:00017168       ?getDispatchTarget@UnDecorator@@CA?AVDName@@XZ 0000000140018168 f   libvcruntime:undname.obj
 0001:000171dc       ?getDisplacement@UnDecorator@@CA?AVDName@@XZ 00000001400181dc f i libvcruntime:undname.obj
 0001:000171fc       ?getECSUDataType@UnDecorator@@CA?AVDName@@XZ 00000001400181fc f   libvcruntime:undname.obj
 0001:00017474       ?getECSUName@UnDecorator@@CA?AVDName@@XZ 0000000140018474 f i libvcruntime:undname.obj
 0001:00017490       ?getEnumType@UnDecorator@@CA?AVDName@@XZ 0000000140018490 f i libvcruntime:undname.obj
 0001:0001760c       ?getExtendedDataIndirectType@UnDecorator@@CA?AVDName@@AEAW4IndirectionKind@@AEA_NH@Z 000000014001860c f   libvcruntime:undname.obj
 0001:00017890       ?getExternalDataType@UnDecorator@@CA?AVDName@@AEBV2@@Z 0000000140018890 f i libvcruntime:undname.obj
 0001:00017980       ?getFloatingPoint@UnDecorator@@CA?AVDName@@H@Z 0000000140018980 f   libvcruntime:undname.obj
 0001:00017b40       ?getFunctionIndirectType@UnDecorator@@CA?AVDName@@AEBV2@@Z 0000000140018b40 f   libvcruntime:undname.obj
 0001:000181c4       ?getGuardNumber@UnDecorator@@CA?AVDName@@XZ 00000001400191c4 f i libvcruntime:undname.obj
 0001:000181e4       ?getLastChar@DName@@QEBADXZ 00000001400191e4 f i libvcruntime:undname.obj
 0001:00018204       ?getLastChar@DNameStatusNode@@UEBADXZ 0000000140019204 f i libvcruntime:undname.obj
 0001:00018214       ?getLastChar@charNode@@UEBADXZ 0000000140019214 f i libvcruntime:undname.obj
 0001:00018218       ?getLastChar@pDNameNode@@UEBADXZ 0000000140019218 f i libvcruntime:undname.obj
 0001:0001824c       ?getLastChar@pairNode@@UEBADXZ 000000014001924c f i libvcruntime:undname.obj
 0001:00018290       ?getLastChar@pcharNode@@UEBADXZ 0000000140019290 f i libvcruntime:undname.obj
 0001:000182ac       ?getLexicalFrame@UnDecorator@@CA?AVDName@@XZ 00000001400192ac f i libvcruntime:undname.obj
 0001:00018328       ?getMemberAccess@UnDecorator@@CA?AVDName@@XZ 0000000140019328 f   libvcruntime:undname.obj
 0001:000183e0       ?getMemoryWithBuffer@_HeapManager@@QEAAPEAX_K@Z 00000001400193e0 f   libvcruntime:undname.obj
 0001:00018494       ?getMemoryWithoutBuffer@_HeapManager@@QEAAPEAX_K@Z 0000000140019494 f   libvcruntime:undname.obj
 0001:000184ac       ?getNoexcept@UnDecorator@@CA?AVDName@@XZ 00000001400194ac f   libvcruntime:undname.obj
 0001:00018528       ?getNumberOfDimensions@UnDecorator@@CAHXZ 0000000140019528 f   libvcruntime:undname.obj
 0001:000185a8       ?getOperatorName@UnDecorator@@CA?AVDName@@_NPEA_N@Z 00000001400195a8 f i libvcruntime:undname.obj
 0001:000191c4       ?getPointerToMember@UnDecorator@@CA?AVDName@@XZ 000000014001a1c4 f   libvcruntime:undname.obj
 0001:000192f8       ?getPointerType@UnDecorator@@CA?AVDName@@AEBV2@0@Z 000000014001a2f8 f i libvcruntime:undname.obj
 0001:0001931c       ?getPointerTypeArray@UnDecorator@@CA?AVDName@@AEBV2@0@Z 000000014001a31c f i libvcruntime:undname.obj
 0001:0001933c       ?getPrimaryDataType@UnDecorator@@CA?AVDName@@AEBV2@@Z 000000014001a33c f   libvcruntime:undname.obj
 0001:000196a4       ?getPtrRefDataType@UnDecorator@@CA?AVDName@@AEBV2@H@Z 000000014001a6a4 f   libvcruntime:undname.obj
 0001:000198e4       ?getPtrRefType@UnDecorator@@CA?AVDName@@AEBV2@0W4IndirectionKind@@@Z 000000014001a8e4 f   libvcruntime:undname.obj
 0001:00019b30       ?getReferenceType@UnDecorator@@CA?AVDName@@AEBV2@0W4IndirectionKind@@@Z 000000014001ab30 f i libvcruntime:undname.obj
 0001:00019b4c       ?getRestrictionSpec@UnDecorator@@CA?AVDName@@XZ 000000014001ab4c f   libvcruntime:undname.obj
 0001:00019d9c       ?getReturnType@UnDecorator@@CA?AVDName@@PEAV2@@Z 000000014001ad9c f   libvcruntime:undname.obj
 0001:00019de0       ?getScope@UnDecorator@@CA?AVDName@@XZ 000000014001ade0 f   libvcruntime:undname.obj
 0001:0001a3c8       ?getScopedName@UnDecorator@@CA?AVDName@@XZ 000000014001b3c8 f   libvcruntime:undname.obj
 0001:0001a554       ?getSignedDimension@UnDecorator@@CA?AVDName@@XZ 000000014001b554 f   libvcruntime:undname.obj
 0001:0001a5fc       ?getStorageConvention@UnDecorator@@CA?AVDName@@XZ 000000014001b5fc f i libvcruntime:undname.obj
 0001:0001a644       ?getString@DName@@QEBAPEADPEAD0@Z 000000014001b644 f i libvcruntime:undname.obj
 0001:0001a664       ?getString@DName@@QEBAPEADPEADH@Z 000000014001b664 f i libvcruntime:undname.obj
 0001:0001a71c       ?getString@DNameStatusNode@@UEBAPEADPEAD0@Z 000000014001b71c f i libvcruntime:undname.obj
 0001:0001a774       ?getString@charNode@@UEBAPEADPEAD0@Z 000000014001b774 f i libvcruntime:undname.obj
 0001:0001a78c       ?getString@pDNameNode@@UEBAPEADPEAD0@Z 000000014001b78c f i libvcruntime:undname.obj
 0001:0001a7c4       ?getString@pairNode@@UEBAPEADPEAD0@Z 000000014001b7c4 f i libvcruntime:undname.obj
 0001:0001a824       ?getString@pcharNode@@UEBAPEADPEAD0@Z 000000014001b824 f i libvcruntime:undname.obj
 0001:0001a868       ?getStringEncoding@UnDecorator@@CA?AVDName@@W4PrefixKind@@H@Z 000000014001b868 f   libvcruntime:undname.obj
 0001:0001a9b8       ?getStringHelper@@YAPEADPEADPEBD1H@Z 000000014001b9b8 f i libvcruntime:undname.obj
 0001:0001a9f0       ?getStringObject@UnDecorator@@CA?AVDName@@XZ 000000014001b9f0 f   libvcruntime:undname.obj
 0001:0001aa74       ?getSymbolName@UnDecorator@@CA?AVDName@@XZ 000000014001ba74 f i libvcruntime:undname.obj
 0001:0001aad4       ?getTemplateArgumentList@UnDecorator@@CA?AVDName@@XZ 000000014001bad4 f   libvcruntime:undname.obj
 0001:0001ad78       ?getTemplateName@UnDecorator@@CA?AVDName@@_N@Z 000000014001bd78 f   libvcruntime:undname.obj
 0001:0001b0b0       ?getTemplateNonTypeArgument@UnDecorator@@CA?AVDName@@XZ 000000014001c0b0 f   libvcruntime:undname.obj
 0001:0001b754       ?getTemplateTypeArgument@UnDecorator@@CA?AVDName@@XZ 000000014001c754 f   libvcruntime:undname.obj
 0001:0001b918       ?getThisType@UnDecorator@@CA?AVDName@@XZ 000000014001c918 f i libvcruntime:undname.obj
 0001:0001b968       ?getThrowTypes@UnDecorator@@CA?AVDName@@XZ 000000014001c968 f   libvcruntime:undname.obj
 0001:0001b994       ?getTypeEncoding@UnDecorator@@CAHXZ 000000014001c994 f i libvcruntime:undname.obj
 0001:0001be3c       ?getUndecoratedName@UnDecorator@@QEAAPEADPEADH@Z 000000014001ce3c f i libvcruntime:undname.obj
 0001:0001bfe4       ?getUnionObject@UnDecorator@@CA?AVDName@@XZ 000000014001cfe4 f   libvcruntime:undname.obj
 0001:0001c0f0       ?getVCallThunkType@UnDecorator@@CA?AVDName@@XZ 000000014001d0f0 f i libvcruntime:undname.obj
 0001:0001c184       ?getValue@UnDecorator@@CA?AV?$optional@_K@std@@XZ 000000014001d184 f   libvcruntime:undname.obj
 0001:0001c214       ?getValueObject@UnDecorator@@CA?AVDName@@XZ 000000014001d214 f   libvcruntime:undname.obj
 0001:0001c3a4       ?getVbTableType@UnDecorator@@CA?AVDName@@AEBV2@@Z 000000014001d3a4 f i libvcruntime:undname.obj
 0001:0001c3c0       ?getVdispMapType@UnDecorator@@CA?AVDName@@AEBV2@@Z 000000014001d3c0 f i libvcruntime:undname.obj
 0001:0001c45c       ?getVfTableType@UnDecorator@@CA?AVDName@@AEBV2@@Z 000000014001d45c f i libvcruntime:undname.obj
 0001:0001c6e8       ?getZName@UnDecorator@@CA?AVDName@@_N0@Z 000000014001d6e8 f   libvcruntime:undname.obj
 0001:0001ca74       ?get_current_character_and_increment_buffer@UnDecorator@@CADXZ 000000014001da74 f i libvcruntime:undname.obj
 0001:0001ca94       ?haveTemplateParameters@UnDecorator@@SAHXZ 000000014001da94 f i libvcruntime:undname.obj
 0001:0001caa4       ?increment_buffer@UnDecorator@@CA_N_K@Z 000000014001daa4 f i libvcruntime:undname.obj
 0001:0001cadc       ?increment_buffer_no_check@UnDecorator@@CAXXZ 000000014001dadc f i libvcruntime:undname.obj
 0001:0001cae8       ?increment_buffer_no_check@UnDecorator@@CAX_K@Z 000000014001dae8 f i libvcruntime:undname.obj
 0001:0001caf4       ?isArray@DName@@QEBAHXZ    000000014001daf4 f i libvcruntime:undname.obj
 0001:0001cb00       ?isComArray@DName@@QEBAHXZ 000000014001db00 f i libvcruntime:undname.obj
 0001:0001cb0c       ?isEmpty@DName@@QEBAHXZ    000000014001db0c f i libvcruntime:undname.obj
 0001:0001cb18       ?isFull@Replicator@@QEBAHXZ 000000014001db18 f i libvcruntime:undname.obj
 0001:0001cb24       ?isNoTE@DName@@QEBAHXZ     000000014001db24 f i libvcruntime:undname.obj
 0001:0001cb30       ?isPinPtr@DName@@QEBAHXZ   000000014001db30 f i libvcruntime:undname.obj
 0001:0001cb3c       ?isPtrRef@DName@@QEBAHXZ   000000014001db3c f i libvcruntime:undname.obj
 0001:0001cb48       ?isUDC@DName@@QEBAHXZ      000000014001db48 f i libvcruntime:undname.obj
 0001:0001cb64       ?isUDTThunk@DName@@QEBAHXZ 000000014001db64 f i libvcruntime:undname.obj
 0001:0001cb80       ?isVCallThunk@DName@@QEBAHXZ 000000014001db80 f i libvcruntime:undname.obj
 0001:0001cb8c       ?isValid@DName@@QEBAHXZ    000000014001db8c f i libvcruntime:undname.obj
 0001:0001cb98       ?length@DName@@QEBAHXZ     000000014001db98 f i libvcruntime:undname.obj
 0001:0001cbb8       ?length@DNameStatusNode@@UEBAHXZ 000000014001dbb8 f i libvcruntime:undname.obj
 0001:0001cbbc       ?length@charNode@@UEBAHXZ  000000014001dbbc f i libvcruntime:undname.obj
 0001:0001cbc4       ?length@pDNameNode@@UEBAHXZ 000000014001dbc4 f i libvcruntime:undname.obj
 0001:0001cbf8       ?length@pairNode@@UEBAHXZ  000000014001dbf8 f i libvcruntime:undname.obj
 0001:0001cc50       ?length@pcharNode@@UEBAHXZ 000000014001dc50 f i libvcruntime:undname.obj
 0001:0001cc54       ?make@DNameStatusNode@@SAPEBV1@W4DNameStatus@@@Z 000000014001dc54 f i libvcruntime:undname.obj
 0001:0001cc7c       ?parseDecoratedName@UnDecorator@@CA?AVDName@@XZ 000000014001dc7c f   libvcruntime:undname.obj
 0001:0001cdd8       ?raw_length@DNameStatusNode@@UEBAHXZ 000000014001ddd8 f i libvcruntime:undname.obj
 0001:0001cddc       ?raw_length@charNode@@UEBAHXZ 000000014001dddc f i libvcruntime:undname.obj
 0001:0001cde4       ?raw_length@pDNameNode@@UEBAHXZ 000000014001dde4 f i libvcruntime:undname.obj
 0001:0001cde8       ?raw_length@pairNode@@UEBAHXZ 000000014001dde8 f i libvcruntime:undname.obj
 0001:0001cdec       ?raw_length@pcharNode@@UEBAHXZ 000000014001ddec f i libvcruntime:undname.obj
 0001:0001cdf0       ?setIsArray@DName@@QEAAXXZ 000000014001ddf0 f i libvcruntime:undname.obj
 0001:0001cdf8       ?setIsComArray@DName@@QEAAXXZ 000000014001ddf8 f i libvcruntime:undname.obj
 0001:0001ce00       ?setIsNoTE@DName@@QEAAXXZ  000000014001de00 f i libvcruntime:undname.obj
 0001:0001ce08       ?setIsPinPtr@DName@@QEAAXXZ 000000014001de08 f i libvcruntime:undname.obj
 0001:0001ce10       ?setIsUDC@DName@@QEAAXXZ   000000014001de10 f i libvcruntime:undname.obj
 0001:0001ce20       ?setIsVCallThunk@DName@@QEAAXXZ 000000014001de20 f i libvcruntime:undname.obj
 0001:0001ce28       ?setPtrRef@DName@@QEAAAEAV1@XZ 000000014001de28 f i libvcruntime:undname.obj
 0001:0001ce34       ?status@DName@@QEBA?AW4DNameStatus@@XZ 000000014001de34 f i libvcruntime:undname.obj
 0001:0001ceac       __unDName                  000000014001deac f   libvcruntime:undname.obj
 0001:0001cedc       __unDNameEx                000000014001dedc f   libvcruntime:undname.obj
 0001:0001d05c       _vsprintf_s_l              000000014001e05c f i libvcruntime:undname.obj
 0001:0001d0d8       snprintf                   000000014001e0d8 f i libvcruntime:undname.obj
 0001:0001d144       sprintf_s                  000000014001e144 f i libvcruntime:undname.obj
 0001:0001d1ac       unDNameGenerateCHPE        000000014001e1ac f   libvcruntime:undname.obj
 0001:0001d2f4       vsnprintf                  000000014001e2f4 f i libvcruntime:undname.obj
 0001:0001d370       ??$__crt_interlocked_exchange_pointer@UHINSTANCE__@@PEAU1@@@YAPEAUHINSTANCE__@@PEDSEAU0@QEAU0@@Z 000000014001e370 f i libvcruntime:winapi_downlevel.obj
 0001:0001d378       ??$__crt_interlocked_exchange_pointer@UHINSTANCE__@@PEAX@@YAPEAUHINSTANCE__@@PEDSEAU0@QEAX@Z 000000014001e378 f i libvcruntime:winapi_downlevel.obj
 0001:0001d380       ??$__crt_interlocked_exchange_pointer@XPEAX@@YAPEAXPEDSEAXQEAX@Z 000000014001e380 f i libvcruntime:winapi_downlevel.obj
 0001:0001d388       ??$__crt_interlocked_read_pointer@UHINSTANCE__@@@@YAPEAUHINSTANCE__@@PEDSEAU0@@Z 000000014001e388 f i libvcruntime:winapi_downlevel.obj
 0001:0001d390       ??$__crt_interlocked_read_pointer@X@@YAPEAXPEDSEAX@Z 000000014001e390 f i libvcruntime:winapi_downlevel.obj
 0001:0001da18       __vcrt_FlsAlloc            000000014001ea18 f   libvcruntime:winapi_downlevel.obj
 0001:0001da70       __vcrt_FlsFree             000000014001ea70 f   libvcruntime:winapi_downlevel.obj
 0001:0001dac8       __vcrt_FlsGetValue         000000014001eac8 f   libvcruntime:winapi_downlevel.obj
 0001:0001db20       __vcrt_FlsSetValue         000000014001eb20 f   libvcruntime:winapi_downlevel.obj
 0001:0001db88       __vcrt_InitializeCriticalSectionEx 000000014001eb88 f   libvcruntime:winapi_downlevel.obj
 0001:0001dc04       ??$__crt_interlocked_exchange_pointer@$$A6AXXZP6AXXZ@@YAP6AXXZPEDS6AXXZQ6AXXZ@Z 000000014001ec04 f i libvcruntime:purevirt.obj
 0001:0001dc0c       ??$__crt_interlocked_read_pointer@$$A6AXXZ@@YAP6AXXZPEDS6AXXZ@Z 000000014001ec0c f i libvcruntime:purevirt.obj
 0001:0001dc14       _get_purecall_handler      000000014001ec14 f   libvcruntime:purevirt.obj
 0001:0001dc20       _purecall                  000000014001ec20 f   libvcruntime:purevirt.obj
 0001:0001dc40       _set_purecall_handler      000000014001ec40 f   libvcruntime:purevirt.obj
 0001:0001dc50       ??$?0AEAViterator@TryBlockMap4@FH4@@AEAV012@$0A@@?$pair@Viterator@TryBlockMap4@FH4@@V123@@std@@QEAA@AEAViterator@TryBlockMap4@FH4@@0@Z 000000014001ec50 f i libvcruntime:risctrnsctrl.obj
 0001:0001dc6c       ??$?0AEAViterator@TryBlockMap@__FrameHandler3@@AEAV012@$0A@@?$pair@Viterator@TryBlockMap@__FrameHandler3@@V123@@std@@QEAA@AEAViterator@TryBlockMap@__FrameHandler3@@0@Z 000000014001ec6c f i libvcruntime:risctrnsctrl.obj
 0001:0001de54       ??$_CallSETranslator@V__FrameHandler3@@@@YAHPEAUEHExceptionRecord@@PEA_KPEAU_CONTEXT@@PEAU_xDISPATCHER_CONTEXT@@PEBU_s_FuncInfo@@K1H@Z 000000014001ee54 f i libvcruntime:risctrnsctrl.obj
 0001:0001debc       ??$_CallSETranslator@V__FrameHandler4@@@@YAHPEAUEHExceptionRecord@@PEA_KPEAU_CONTEXT@@PEAU_xDISPATCHER_CONTEXT@@PEAUFuncInfo4@FH4@@K1H@Z 000000014001eebc f i libvcruntime:risctrnsctrl.obj
 0001:0001df24       ??$forward@AEAViterator@TryBlockMap4@FH4@@@std@@YAAEAViterator@TryBlockMap4@FH4@@AEAV123@@Z 000000014001ef24 f i libvcruntime:risctrnsctrl.obj
 0001:0001df28       ??$forward@AEAViterator@TryBlockMap@__FrameHandler3@@@std@@YAAEAViterator@TryBlockMap@__FrameHandler3@@AEAV123@@Z 000000014001ef28 f i libvcruntime:risctrnsctrl.obj
 0001:0001df2c       ??0FuncInfo4@FH4@@QEAA@XZ  000000014001ef2c f i libvcruntime:risctrnsctrl.obj
 0001:0001df44       ??0FuncInfoHeader@FH4@@QEAA@XZ 000000014001ef44 f i libvcruntime:risctrnsctrl.obj
 0001:0001df4c       ??0iterator@TryBlockMap4@FH4@@QEAA@AEAV12@I@Z 000000014001ef4c f i libvcruntime:risctrnsctrl.obj
 0001:0001df5c       ??0iterator@TryBlockMap@__FrameHandler3@@QEAA@AEAV12@I@Z 000000014001ef5c f i libvcruntime:risctrnsctrl.obj
 0001:0001df6c       ??4iterator@TryBlockMap4@FH4@@QEAAAEAV012@AEBV012@@Z 000000014001ef6c f i libvcruntime:risctrnsctrl.obj
 0001:0001df78       ??9iterator@TryBlockMap4@FH4@@QEBA_NAEBV012@@Z 000000014001ef78 f i libvcruntime:risctrnsctrl.obj
 0001:0001df84       ??Diterator@TryBlockMap4@FH4@@QEAA?AUTryBlockMapEntry4@2@XZ 000000014001ef84 f i libvcruntime:risctrnsctrl.obj
 0001:0001df98       ??Eiterator@TryBlockMap4@FH4@@QEAAAEAV012@XZ 000000014001ef98 f i libvcruntime:risctrnsctrl.obj
 0001:0001e05c       ?CatchTryBlock@__FrameHandler3@@SAPEBU_s_TryBlockMapEntry@@PEBU_s_FuncInfo@@H@Z 000000014001f05c f   libvcruntime:risctrnsctrl.obj
 0001:0001e0d8       ?DecompFuncInfo@FH4@@YA_JPEAEAEAUFuncInfo4@1@_KH@Z 000000014001f0d8 f i libvcruntime:risctrnsctrl.obj
 0001:0001e0f0       ?DecompFuncInfo@FH4@@YA_JPEAEAEAUFuncInfo4@1@_KH_N@Z 000000014001f0f0 f i libvcruntime:risctrnsctrl.obj
 0001:0001e25c       ?DecompTryBlock@TryBlockMap4@FH4@@AEAAXXZ 000000014001f25c f i libvcruntime:risctrnsctrl.obj
 0001:0001e314       ?ExecutionInCatch@__FrameHandler3@@SA_NPEAU_xDISPATCHER_CONTEXT@@PEBU_s_FuncInfo@@@Z 000000014001f314 f   libvcruntime:risctrnsctrl.obj
 0001:0001e348       ?ExecutionInCatch@__FrameHandler4@@SA_NPEAU_xDISPATCHER_CONTEXT@@PEAUFuncInfo4@FH4@@@Z 000000014001f348 f   libvcruntime:risctrnsctrl.obj
 0001:0001e350       ?FrameUnwindToEmptyState@__FrameHandler3@@SAXPEA_KPEAU_xDISPATCHER_CONTEXT@@PEBU_s_FuncInfo@@@Z 000000014001f350 f   libvcruntime:risctrnsctrl.obj
 0001:0001e3d0       ?FrameUnwindToEmptyState@__FrameHandler4@@SAXPEA_KPEAU_xDISPATCHER_CONTEXT@@PEAUFuncInfo4@FH4@@@Z 000000014001f3d0 f   libvcruntime:risctrnsctrl.obj
 0001:0001e410       ?GetEstablisherFrame@__FrameHandler3@@SAPEA_KPEA_KPEAU_xDISPATCHER_CONTEXT@@PEBU_s_FuncInfo@@0@Z 000000014001f410 f   libvcruntime:risctrnsctrl.obj
 0001:0001e510       ?GetEstablisherFrame@__FrameHandler4@@SAPEA_KPEA_KPEAU_xDISPATCHER_CONTEXT@@PEAUFuncInfo4@FH4@@0@Z 000000014001f510 f   libvcruntime:risctrnsctrl.obj
 0001:0001e53c       ?GetRangeOfTrysToCheck@__FrameHandler3@@SA?AU?$pair@Viterator@TryBlockMap@__FrameHandler3@@V123@@std@@AEAVTryBlockMap@1@HPEAU_xDISPATCHER_CONTEXT@@PEBU_s_FuncInfo@@H@Z 000000014001f53c f   libvcruntime:risctrnsctrl.obj
 0001:0001e6cc       ?GetRangeOfTrysToCheck@__FrameHandler4@@SA?AU?$pair@Viterator@TryBlockMap4@FH4@@V123@@std@@AEAVTryBlockMap4@FH4@@HPEAU_xDISPATCHER_CONTEXT@@PEAUFuncInfo4@5@H@Z 000000014001f6cc f   libvcruntime:risctrnsctrl.obj
 0001:0001e890       ?ReadInt@FH4@@YAHPEAPEAE@Z 000000014001f890 f i libvcruntime:risctrnsctrl.obj
 0001:0001e8a0       ?ReadUnsigned@FH4@@YAIPEAPEAE@Z 000000014001f8a0 f i libvcruntime:risctrnsctrl.obj
 0001:0001e8dc       ?UnwindNestedFrames@__FrameHandler3@@SAXPEA_KPEAUEHExceptionRecord@@PEAU_CONTEXT@@0PEAXPEBU_s_FuncInfo@@HHPEBU_s_HandlerType@@PEAU_xDISPATCHER_CONTEXT@@E@Z 000000014001f8dc f   libvcruntime:risctrnsctrl.obj
 0001:0001ea20       ?UnwindNestedFrames@__FrameHandler4@@SAXPEA_KPEAUEHExceptionRecord@@PEAU_CONTEXT@@0PEAXPEAUFuncInfo4@FH4@@HHPEAUHandlerType4@5@PEAU_xDISPATCHER_CONTEXT@@E@Z 000000014001fa20 f   libvcruntime:risctrnsctrl.obj
 0001:0001eb88       ?begin@TryBlockMap4@FH4@@QEAA?AViterator@12@XZ 000000014001fb88 f i libvcruntime:risctrnsctrl.obj
 0001:0001eb98       ?end@TryBlockMap4@FH4@@QEAA?AViterator@12@XZ 000000014001fb98 f i libvcruntime:risctrnsctrl.obj
 0001:0001eba8       ?imageRelToByteBuffer@FH4@@YAPEAE_KH@Z 000000014001fba8 f i libvcruntime:risctrnsctrl.obj
 0001:0001ebb0       ?incrementToSentinel@iterator@TryBlockMap4@FH4@@QEAAXXZ 000000014001fbb0 f i libvcruntime:risctrnsctrl.obj
 0001:0001ebb4       ?setBuffer@TryBlockMap4@FH4@@QEAAXViterator@12@@Z 000000014001fbb4 f i libvcruntime:risctrnsctrl.obj
 0001:0001ede8       _CreateFrameInfo           000000014001fde8 f   libvcruntime:risctrnsctrl.obj
 0001:0001ee30       _FindAndUnlinkFrame        000000014001fe30 f   libvcruntime:risctrnsctrl.obj
 0001:0001ee98       _GetImageBase              000000014001fe98 f   libvcruntime:risctrnsctrl.obj
 0001:0001eeb0       _GetThrowImageBase         000000014001feb0 f   libvcruntime:risctrnsctrl.obj
 0001:0001eec8       _SetImageBase              000000014001fec8 f   libvcruntime:risctrnsctrl.obj
 0001:0001eee8       _SetThrowImageBase         000000014001fee8 f   libvcruntime:risctrnsctrl.obj
 0001:0001ef08       __CxxFrameHandler          000000014001ff08 f   libvcruntime:risctrnsctrl.obj
 0001:0001ef10       __CxxFrameHandler2         000000014001ff10 f   libvcruntime:risctrnsctrl.obj
 0001:0001ef18       __CxxFrameHandler3         000000014001ff18 f   libvcruntime:risctrnsctrl.obj
 0001:0001efc0       __CxxFrameHandler4         000000014001ffc0 f   libvcruntime:risctrnsctrl.obj
 0001:0001f0c0       memcpy_repmovs             00000001400200c0 f   libvcruntime:memcpy.obj
 0001:0001f0e0       memcpy                     00000001400200e0 f   libvcruntime:memcpy.obj
 0001:0001f0e0       memmove                    00000001400200e0 f   libvcruntime:memcpy.obj
 0001:0001f900       ?GetCurrentState@__FrameHandler3@@SAHPEA_KPEAU_xDISPATCHER_CONTEXT@@PEBU_s_FuncInfo@@@Z 0000000140020900 f   libvcruntime:ehstate.obj
 0001:0001f930       ?GetUnwindTryBlock@__FrameHandler3@@SAHPEA_KPEAU_xDISPATCHER_CONTEXT@@PEBU_s_FuncInfo@@@Z 0000000140020930 f   libvcruntime:ehstate.obj
 0001:0001f964       ?SetState@__FrameHandler3@@SAXPEA_KPEBU_s_FuncInfo@@H@Z 0000000140020964 f   libvcruntime:ehstate.obj
 0001:0001f974       ?SetUnwindTryBlock@__FrameHandler3@@SAXPEA_KPEAU_xDISPATCHER_CONTEXT@@PEBU_s_FuncInfo@@H@Z 0000000140020974 f   libvcruntime:ehstate.obj
 0001:0001f9c0       ?StateFromControlPc@__FrameHandler3@@SAHPEBU_s_FuncInfo@@PEAU_xDISPATCHER_CONTEXT@@@Z 00000001400209c0 f   libvcruntime:ehstate.obj
 0001:0001f9cc       ?StateFromControlPc@__FrameHandler4@@SAHPEAUFuncInfo4@FH4@@PEAU_xDISPATCHER_CONTEXT@@@Z 00000001400209cc f   libvcruntime:ehstate.obj
 0001:0001f9d8       ?StateFromIp@__FrameHandler3@@SAHPEBU_s_FuncInfo@@PEAU_xDISPATCHER_CONTEXT@@_K@Z 00000001400209d8 f   libvcruntime:ehstate.obj
 0001:0001fa58       ?StateFromIp@__FrameHandler4@@SAHPEAUFuncInfo4@FH4@@PEAU_xDISPATCHER_CONTEXT@@_K@Z 0000000140020a58 f   libvcruntime:ehstate.obj
 0001:0001fb80       ?__FuncRelToRealOffset@@YA_KPEAU_xDISPATCHER_CONTEXT@@I@Z 0000000140020b80 f i libvcruntime:ehstate.obj
 0001:0001fb94       ?__RVAtoRealOffset@@YA_KPEAU_xDISPATCHER_CONTEXT@@H@Z 0000000140020b94 f i libvcruntime:ehstate.obj
 0001:00021730       ??$TypeMatchHelper@V__FrameHandler3@@@@YAHPEBU_s_HandlerType@@PEBU_s_CatchableType@@PEBU_s_ThrowInfo@@@Z 0000000140022730 f i libvcruntime:frame.obj
 0001:000218bc       ??$TypeMatchHelper@V__FrameHandler4@@@@YAHPEAUHandlerType4@FH4@@PEBU_s_CatchableType@@PEBU_s_ThrowInfo@@@Z 00000001400228bc f i libvcruntime:frame.obj
 0001:00021a50       ??$__InternalCxxFrameHandler@V__FrameHandler3@@@@YA?AW4_EXCEPTION_DISPOSITION@@PEAUEHExceptionRecord@@PEA_KPEAU_CONTEXT@@PEAU_xDISPATCHER_CONTEXT@@PEBU_s_FuncInfo@@H1E@Z 0000000140022a50 f i libvcruntime:frame.obj
 0001:00021d14       ??$__InternalCxxFrameHandler@V__FrameHandler4@@@@YA?AW4_EXCEPTION_DISPOSITION@@PEAUEHExceptionRecord@@PEA_KPEAU_CONTEXT@@PEAU_xDISPATCHER_CONTEXT@@PEAUFuncInfo4@FH4@@H1E@Z 0000000140022d14 f i libvcruntime:frame.obj
 0001:00022050       ??$__InternalCxxFrameHandlerWrapper@V__FrameHandler3@@@@YA?AW4_EXCEPTION_DISPOSITION@@PEAUEHExceptionRecord@@PEA_KPEAU_CONTEXT@@PEAU_xDISPATCHER_CONTEXT@@PEBU_s_FuncInfo@@H1E@Z 0000000140023050 f i libvcruntime:frame.obj
 0001:00022058       ??$__InternalCxxFrameHandlerWrapper@V__FrameHandler4@@@@YA?AW4_EXCEPTION_DISPOSITION@@PEAUEHExceptionRecord@@PEA_KPEAU_CONTEXT@@PEAU_xDISPATCHER_CONTEXT@@PEAUFuncInfo4@FH4@@H1E@Z 0000000140023058 f i libvcruntime:frame.obj
 0001:000220cc       ??0HandlerMap4@FH4@@QEAA@PEBUTryBlockMapEntry4@1@_KH@Z 00000001400230cc f i libvcruntime:frame.obj
 0001:00022164       ??0HandlerMap@__FrameHandler3@@QEAA@PEBU_s_TryBlockMapEntry@@_KI@Z 0000000140023164 f i libvcruntime:frame.obj
 0001:00022180       ??0HandlerType4@FH4@@QEAA@XZ 0000000140023180 f i libvcruntime:frame.obj
 0001:0002219c       ??0TryBlockMap4@FH4@@QEAA@PEBUFuncInfo4@1@_K@Z 000000014002319c f i libvcruntime:frame.obj
 0001:000222a8       ??0TryBlockMap@__FrameHandler3@@QEAA@PEBU_s_FuncInfo@@_K@Z 00000001400232a8 f i libvcruntime:frame.obj
 0001:000222b8       ??0UWMap4@FH4@@QEAA@PEBUFuncInfo4@1@_K@Z 00000001400232b8 f i libvcruntime:frame.obj
 0001:0002230c       ??0bad_exception@std@@QEAA@AEBV01@@Z 000000014002330c f i libvcruntime:frame.obj
 0001:00022358       ??0bad_exception@std@@QEAA@XZ 0000000140023358 f i libvcruntime:frame.obj
 0001:00022380       ??0exception@std@@QEAA@AEBV01@@Z 0000000140023380 f i libvcruntime:frame.obj
 0001:000223c0       ??0exception@std@@QEAA@QEBDH@Z 00000001400233c0 f i libvcruntime:frame.obj
 0001:000223dc       ??0iterator@HandlerMap4@FH4@@QEAA@AEAV12@I@Z 00000001400233dc f i libvcruntime:frame.obj
 0001:000223ec       ??0iterator@HandlerMap@__FrameHandler3@@QEAA@AEAV12@I@Z 00000001400233ec f i libvcruntime:frame.obj
 0001:000223fc       ??0iterator@UWMap4@FH4@@QEAA@AEAV12@PEAE@Z 00000001400233fc f i libvcruntime:frame.obj
 0001:0002240c       ??1bad_exception@std@@UEAA@XZ 000000014002340c f i libvcruntime:frame.obj
 0001:00022424       ??1exception@std@@UEAA@XZ  0000000140023424 f i libvcruntime:frame.obj
 0001:0002243c       ??4iterator@UWMap4@FH4@@QEAAAEAV012@AEBV012@@Z 000000014002343c f i libvcruntime:frame.obj
 0001:00022464       ??8iterator@HandlerMap4@FH4@@QEBA_NAEBV012@@Z 0000000140023464 f i libvcruntime:frame.obj
 0001:00022470       ??8iterator@HandlerMap@__FrameHandler3@@QEBA_NAEBV012@@Z 0000000140023470 f i libvcruntime:frame.obj
 0001:0002247c       ??8type_info@@QEBA_NAEBV0@@Z 000000014002347c f i libvcruntime:frame.obj
 0001:000224a0       ??9iterator@HandlerMap4@FH4@@QEBA_NAEBV012@@Z 00000001400234a0 f i libvcruntime:frame.obj
 0001:000224ac       ??9iterator@HandlerMap@__FrameHandler3@@QEBA_NAEBV012@@Z 00000001400234ac f i libvcruntime:frame.obj
 0001:000224b8       ??Diterator@HandlerMap4@FH4@@QEAA?AUHandlerType4@2@XZ 00000001400234b8 f i libvcruntime:frame.obj
 0001:000224e0       ??Diterator@HandlerMap@__FrameHandler3@@QEAA?BU_s_HandlerType@@XZ 00000001400234e0 f i libvcruntime:frame.obj
 0001:0002250c       ??Diterator@TryBlockMap@__FrameHandler3@@QEAA?BU_s_TryBlockMapEntry@@XZ 000000014002350c f i libvcruntime:frame.obj
 0001:00022544       ??Diterator@UWMap4@FH4@@QEAA?AUUnwindMapEntry4@2@XZ 0000000140023544 f i libvcruntime:frame.obj
 0001:000225ac       ??Eiterator@HandlerMap4@FH4@@QEAAAEAV012@XZ 00000001400235ac f i libvcruntime:frame.obj
 0001:000225d0       ??Eiterator@HandlerMap@__FrameHandler3@@QEAAAEAV012@XZ 00000001400235d0 f i libvcruntime:frame.obj
 0001:000225d8       ??Eiterator@TryBlockMap@__FrameHandler3@@QEAAAEAV012@XZ 00000001400235d8 f i libvcruntime:frame.obj
 0001:000225e0       ??Eiterator@UWMap4@FH4@@QEAAAEAV012@XZ 00000001400235e0 f i libvcruntime:frame.obj
 0001:00022608       ??Giterator@UWMap4@FH4@@QEBA_JAEBV012@@Z 0000000140023608 f i libvcruntime:frame.obj
 0001:00022614       ??Miterator@TryBlockMap4@FH4@@QEBA_NAEBV012@@Z 0000000140023614 f i libvcruntime:frame.obj
 0001:00022620       ??Miterator@TryBlockMap@__FrameHandler3@@QEBA_NAEBV012@@Z 0000000140023620 f i libvcruntime:frame.obj
 0001:0002262c       ??Oiterator@UWMap4@FH4@@QEBA_NAEBV012@@Z 000000014002362c f i libvcruntime:frame.obj
 0001:0002263c       ??Piterator@UWMap4@FH4@@QEBA_NAEBV012@@Z 000000014002363c f i libvcruntime:frame.obj
 0001:0002264c       ??_Ebad_exception@std@@UEAAPEAXI@Z 000000014002364c f i libvcruntime:frame.obj
 0001:0002264c       ??_Gbad_exception@std@@UEAAPEAXI@Z 000000014002364c f i libvcruntime:frame.obj
 0001:000226a0       ??_Eexception@std@@UEAAPEAXI@Z 00000001400236a0 f i libvcruntime:frame.obj
 0001:000226a0       ??_Gexception@std@@UEAAPEAXI@Z 00000001400236a0 f i libvcruntime:frame.obj
 0001:000226f4       ?BuildCatchObject@__FrameHandler3@@SAXPEAUEHExceptionRecord@@PEAXPEBU_s_HandlerType@@PEBU_s_CatchableType@@@Z 00000001400236f4 f   libvcruntime:frame.obj
 0001:000226fc       ?BuildCatchObject@__FrameHandler4@@SAXPEAUEHExceptionRecord@@PEAXPEAUHandlerType4@FH4@@PEBU_s_CatchableType@@@Z 00000001400236fc f   libvcruntime:frame.obj
 0001:00022704       ?BuildCatchObjectHelper@__FrameHandler3@@SAHPEAUEHExceptionRecord@@PEAXPEBU_s_HandlerType@@PEBU_s_CatchableType@@@Z 0000000140023704 f   libvcruntime:frame.obj
 0001:0002270c       ?BuildCatchObjectHelper@__FrameHandler4@@SAHPEAUEHExceptionRecord@@PEAXPEAUHandlerType4@FH4@@PEBU_s_CatchableType@@@Z 000000014002370c f   libvcruntime:frame.obj
 0001:00022714       ?CxxCallCatchBlock@__FrameHandler3@@SAPEAXPEAU_EXCEPTION_RECORD@@@Z 0000000140023714 f   libvcruntime:frame.obj
 0001:00022978       ?CxxCallCatchBlock@__FrameHandler4@@SAPEAXPEAU_EXCEPTION_RECORD@@@Z 0000000140023978 f   libvcruntime:frame.obj
 0001:00022c5c       ?DecompHandler@HandlerMap4@FH4@@AEAAXXZ 0000000140023c5c f i libvcruntime:frame.obj
 0001:00022f3c       ?FrameUnwindToState@__FrameHandler3@@SAXPEA_KPEAU_xDISPATCHER_CONTEXT@@PEBU_s_FuncInfo@@H@Z 0000000140023f3c f   libvcruntime:frame.obj
 0001:00023128       ?FrameUnwindToState@__FrameHandler4@@SAXPEA_KPEAU_xDISPATCHER_CONTEXT@@PEAUFuncInfo4@FH4@@H@Z 0000000140024128 f   libvcruntime:frame.obj
 0001:000234e0       ?GetHandlerSearchState@__FrameHandler3@@SAHPEA_KPEAU_xDISPATCHER_CONTEXT@@PEBU_s_FuncInfo@@@Z 00000001400244e0 f i libvcruntime:frame.obj
 0001:0002359c       ?GetHandlerSearchState@__FrameHandler4@@SAHPEA_KPEAU_xDISPATCHER_CONTEXT@@PEAUFuncInfo4@FH4@@@Z 000000014002459c f i libvcruntime:frame.obj
 0001:00023618       ?GetMaxState@__FrameHandler3@@SAHPEAU_xDISPATCHER_CONTEXT@@PEBU_s_FuncInfo@@@Z 0000000140024618 f i libvcruntime:frame.obj
 0001:0002361c       ?GetMaxState@__FrameHandler4@@SAHPEAU_xDISPATCHER_CONTEXT@@PEAUFuncInfo4@FH4@@@Z 000000014002461c f i libvcruntime:frame.obj
 0001:00023838       ?ReadEntry@UWMap4@FH4@@AEAAXPEAPEAE@Z 0000000140024838 f i libvcruntime:frame.obj
 0001:000238fc       ?TypeMatch@__FrameHandler3@@SAHPEBU_s_HandlerType@@PEBU_s_CatchableType@@PEBU_s_ThrowInfo@@@Z 00000001400248fc f   libvcruntime:frame.obj
 0001:00023904       ?TypeMatch@__FrameHandler4@@SAHPEAUHandlerType4@FH4@@PEBU_s_CatchableType@@PEBU_s_ThrowInfo@@@Z 0000000140024904 f   libvcruntime:frame.obj
 0001:0002390c       ?WalkBack@UWMap4@FH4@@AEAAXPEAPEAE@Z 000000014002490c f i libvcruntime:frame.obj
 0001:00023950       ?WalkBack@iterator@UWMap4@FH4@@QEAAXXZ 0000000140024950 f i libvcruntime:frame.obj
 0001:0002399c       ?WalkForward@UWMap4@FH4@@AEAAXPEAPEAE@Z 000000014002499c f i libvcruntime:frame.obj
 0001:000239a4       ?_CallMemberFunction1@@YAXQEAX00@Z 00000001400249a4 f i libvcruntime:frame.obj
 0001:000239b0       ?_CallMemberFunction2@@YAXQEAX00H@Z 00000001400249b0 f i libvcruntime:frame.obj
 0001:000239e0       ?begin@HandlerMap4@FH4@@QEAA?AViterator@12@XZ 00000001400249e0 f i libvcruntime:frame.obj
 0001:000239f0       ?begin@HandlerMap@__FrameHandler3@@QEAA?AViterator@12@XZ 00000001400249f0 f i libvcruntime:frame.obj
 0001:00023a00       ?begin@UWMap4@FH4@@QEAA?AViterator@12@XZ 0000000140024a00 f i libvcruntime:frame.obj
 0001:00023a14       ?end@HandlerMap4@FH4@@QEAA?AViterator@12@XZ 0000000140024a14 f i libvcruntime:frame.obj
 0001:00023a24       ?end@HandlerMap@__FrameHandler3@@QEAA?AViterator@12@XZ 0000000140024a24 f i libvcruntime:frame.obj
 0001:00023a34       ?getESTypes@__FrameHandler3@@SAPEBU_s_ESTypeList@@PEBU_s_FuncInfo@@@Z 0000000140024a34 f i libvcruntime:frame.obj
 0001:00023a68       ?getESTypes@__FrameHandler4@@SAPEBU_s_ESTypeList@@PEAUFuncInfo4@FH4@@@Z 0000000140024a68 f i libvcruntime:frame.obj
 0001:00023a6c       ?getLastEntry@HandlerMap4@FH4@@QEAAPEAUHandlerType4@2@XZ 0000000140024a6c f i libvcruntime:frame.obj
 0001:00023ad0       ?getLastEntry@HandlerMap@__FrameHandler3@@QEAAPEBU_s_HandlerType@@XZ 0000000140024ad0 f i libvcruntime:frame.obj
 0001:00023ae8       ?getMagicNum@__FrameHandler3@@SAIPEBU_s_FuncInfo@@@Z 0000000140024ae8 f i libvcruntime:frame.obj
 0001:00023af4       ?getMagicNum@__FrameHandler4@@SAIPEAUFuncInfo4@FH4@@@Z 0000000140024af4 f i libvcruntime:frame.obj
 0001:00023afc       ?getNumTryBlocks@TryBlockMap4@FH4@@QEAAIXZ 0000000140024afc f i libvcruntime:frame.obj
 0001:00023b00       ?getNumTryBlocks@TryBlockMap@__FrameHandler3@@QEAAIXZ 0000000140024b00 f i libvcruntime:frame.obj
 0001:00023b08       ?getStartStop@UWMap4@FH4@@QEAAXHHAEAViterator@12@0@Z 0000000140024b08 f i libvcruntime:frame.obj
 0001:00023c0c       ?getStateFromIterators@UWMap4@FH4@@SAHAEBViterator@12@H0H0@Z 0000000140024c0c f i libvcruntime:frame.obj
 0001:00023ce8       ?isEHs@__FrameHandler3@@SA_NPEBU_s_FuncInfo@@@Z 0000000140024ce8 f i libvcruntime:frame.obj
 0001:00023cf0       ?isEHs@__FrameHandler4@@SA_NPEAUFuncInfo4@FH4@@@Z 0000000140024cf0 f i libvcruntime:frame.obj
 0001:00023cfc       ?isNoExcept@__FrameHandler3@@SA_NPEBU_s_FuncInfo@@@Z 0000000140024cfc f i libvcruntime:frame.obj
 0001:00023d08       ?isNoExcept@__FrameHandler4@@SA_NPEAUFuncInfo4@FH4@@@Z 0000000140024d08 f i libvcruntime:frame.obj
 0001:00023d14       ?reset@HandlerType4@FH4@@QEAAXXZ 0000000140024d14 f i libvcruntime:frame.obj
 0001:00023d30       ?resetBuffer@HandlerMap4@FH4@@QEAAXXZ 0000000140024d30 f i libvcruntime:frame.obj
 0001:00023d40       ?setBuffer@HandlerMap4@FH4@@QEAAXI@Z 0000000140024d40 f i libvcruntime:frame.obj
 0001:00023d88       ?what@exception@std@@UEBAPEBDXZ 0000000140024d88 f i libvcruntime:frame.obj
 0001:00023da0       __BuildCatchObject         0000000140024da0 f   libvcruntime:frame.obj
 0001:00023da8       __BuildCatchObjectHelper   0000000140024da8 f   libvcruntime:frame.obj
 0001:00023db0       __TypeMatch                0000000140024db0 f   libvcruntime:frame.obj
 0001:00023db8       __vcrt_EncodePointer       0000000140024db8 f i libvcruntime:frame.obj
 0001:00023dd0       _CallSettingFrame          0000000140024dd0 f   libvcruntime:handlers.obj
 0001:00023e20       _CallSettingFrame_LookupContinuationIndex 0000000140024e20 f   libvcruntime:handlers.obj
 0001:00023e50       _CallSettingFrame_NotifyContinuationAddr 0000000140024e50 f   libvcruntime:handlers.obj
 0001:00023e80       _CallSettingFrameEncoded   0000000140024e80 f   libvcruntime:handlers.obj
 0001:00023f08       ??$?RD@__crt_public_free_policy@@QEBAXQEBD@Z 0000000140024f08 f i libvcruntime:std_exception.obj
 0001:00023f14       ??0?$__crt_unique_heap_ptr@DU__crt_public_free_policy@@@@QEAA@QEAD@Z 0000000140024f14 f i libvcruntime:std_exception.obj
 0001:00023f1c       ??1?$__crt_unique_heap_ptr@DU__crt_public_free_policy@@@@QEAA@XZ 0000000140024f1c f i libvcruntime:std_exception.obj
 0001:00023f40       ??B?$__crt_unique_heap_ptr@DU__crt_public_free_policy@@@@QEBA_NXZ 0000000140024f40 f i libvcruntime:std_exception.obj
 0001:00023f4c       ?detach@?$__crt_unique_heap_ptr@DU__crt_public_free_policy@@@@QEAAPEADXZ 0000000140024f4c f i libvcruntime:std_exception.obj
 0001:00023f58       ?get@?$__crt_unique_heap_ptr@DU__crt_public_free_policy@@@@QEBAPEADXZ 0000000140024f58 f i libvcruntime:std_exception.obj
 0001:00023f5c       ?is_valid@?$__crt_unique_heap_ptr@DU__crt_public_free_policy@@@@QEBA_NXZ 0000000140024f5c f i libvcruntime:std_exception.obj
 0001:00023f68       ?release@?$__crt_unique_heap_ptr@DU__crt_public_free_policy@@@@QEAAXXZ 0000000140024f68 f i libvcruntime:std_exception.obj
 0001:00023f8c       __std_exception_copy       0000000140024f8c f   libvcruntime:std_exception.obj
 0001:0002403c       __std_exception_destroy    000000014002503c f   libvcruntime:std_exception.obj
 0001:0002406c       _CxxThrowException         000000014002506c f   libvcruntime:throw.obj
 0001:00024134       _local_unwind              0000000140025134 f   libvcruntime:jmpuwind.obj
 0001:00024174       fabs                       0000000140025174 f   libucrt:fabs.obj
 0001:00024180       sqrtf                      0000000140025180 f   libucrt:sqrtf.obj
 0001:00024248       ??$__crt_interlocked_read@J@@YAJPEDJ@Z 0000000140025248 f i libucrt:assert.obj
 0001:00025330       ??$ftprintf@PEAU_iobuf@@PEBDAEBQEBDAEBQEBDAEBI@?$__crt_char_traits@D@@SAH$$QEAPEAU_iobuf@@$$QEAPEBDAEBQEBD2AEBI@Z 0000000140026330 f i libucrt:assert.obj
 0001:00025358       ??$ftprintf@PEAU_iobuf@@PEB_WAEBQEB_WAEBQEB_WAEBI@?$__crt_char_traits@_W@@SAH$$QEAPEAU_iobuf@@$$QEAPEB_WAEBQEB_W2AEBI@Z 0000000140026358 f i libucrt:assert.obj
 0001:00025380       ??$get_module_file_name@AEAPEAUHINSTANCE__@@AEAY0BAF@DK@?$__crt_char_traits@D@@SAKAEAPEAUHINSTANCE__@@AEAY0BAF@D$$QEAK@Z 0000000140026380 f i libucrt:assert.obj
 0001:00025390       ??$get_module_file_name@AEAPEAUHINSTANCE__@@AEAY0BAF@_WK@?$__crt_char_traits@_W@@SAKAEAPEAUHINSTANCE__@@AEAY0BAF@_W$$QEAK@Z 0000000140026390 f i libucrt:assert.obj
 0001:000253a0       ??$itot_s@AEBIPEAD_KH@?$__crt_char_traits@D@@SAHAEBI$$QEAPEAD$$QEA_K$$QEAH@Z 00000001400263a0 f i libucrt:assert.obj
 0001:000253b4       ??$itot_s@AEBIPEA_W_KH@?$__crt_char_traits@_W@@SAHAEBI$$QEAPEA_W$$QEA_K$$QEAH@Z 00000001400263b4 f i libucrt:assert.obj
 0001:000253c8       ??$show_message_box@AEAY0CEA@DPEBDJ@?$__crt_char_traits@D@@SAHAEAY0CEA@D$$QEAPEBD$$QEAJ@Z 00000001400263c8 f i libucrt:assert.obj
 0001:000253d8       ??$show_message_box@AEAY0CEA@_WPEB_WJ@?$__crt_char_traits@_W@@SAHAEAY0CEA@_W$$QEAPEB_W$$QEAJ@Z 00000001400263d8 f i libucrt:assert.obj
 0001:000253e8       ??$tcscat_s@AEBQEADAEB_KAEAPEAD@?$__crt_char_traits@D@@SAHAEBQEADAEB_KAEAPEAD@Z 00000001400263e8 f i libucrt:assert.obj
 0001:000253fc       ??$tcscat_s@AEBQEADAEB_KAEBQEBD@?$__crt_char_traits@D@@SAHAEBQEADAEB_KAEBQEBD@Z 00000001400263fc f i libucrt:assert.obj
 0001:00025410       ??$tcscat_s@AEBQEADAEB_KPEBD@?$__crt_char_traits@D@@SAHAEBQEADAEB_K$$QEAPEBD@Z 0000000140026410 f i libucrt:assert.obj
 0001:00025424       ??$tcscat_s@AEBQEA_WAEB_KAEAPEA_W@?$__crt_char_traits@_W@@SAHAEBQEA_WAEB_KAEAPEA_W@Z 0000000140026424 f i libucrt:assert.obj
 0001:00025438       ??$tcscat_s@AEBQEA_WAEB_KAEBQEB_W@?$__crt_char_traits@_W@@SAHAEBQEA_WAEB_KAEBQEB_W@Z 0000000140026438 f i libucrt:assert.obj
 0001:0002544c       ??$tcscat_s@AEBQEA_WAEB_KPEB_W@?$__crt_char_traits@_W@@SAHAEBQEA_WAEB_K$$QEAPEB_W@Z 000000014002644c f i libucrt:assert.obj
 0001:00025460       ??$tcscpy_s@AEAY0BAF@D_KPEBD@?$__crt_char_traits@D@@SAHAEAY0BAF@D$$QEA_K$$QEAPEBD@Z 0000000140026460 f i libucrt:assert.obj
 0001:00025470       ??$tcscpy_s@AEAY0BAF@_W_KPEB_W@?$__crt_char_traits@_W@@SAHAEAY0BAF@_W$$QEA_K$$QEAPEB_W@Z 0000000140026470 f i libucrt:assert.obj
 0001:00025480       ??$tcscpy_s@AEBQEADAEB_KPEBD@?$__crt_char_traits@D@@SAHAEBQEADAEB_K$$QEAPEBD@Z 0000000140026480 f i libucrt:assert.obj
 0001:00025494       ??$tcscpy_s@AEBQEA_WAEB_KPEB_W@?$__crt_char_traits@_W@@SAHAEBQEA_WAEB_K$$QEAPEB_W@Z 0000000140026494 f i libucrt:assert.obj
 0001:000254a8       ??$tcslen@AEAY0BAF@D@?$__crt_char_traits@D@@SA_KAEAY0BAF@D@Z 00000001400264a8 f i libucrt:assert.obj
 0001:000254bc       ??$tcslen@AEAY0BAF@_W@?$__crt_char_traits@_W@@SA_KAEAY0BAF@_W@Z 00000001400264bc f i libucrt:assert.obj
 0001:000254d0       ??$tcslen@AEBQEAD@?$__crt_char_traits@D@@SA_KAEBQEAD@Z 00000001400264d0 f i libucrt:assert.obj
 0001:000254e8       ??$tcslen@AEBQEA_W@?$__crt_char_traits@_W@@SA_KAEBQEA_W@Z 00000001400264e8 f i libucrt:assert.obj
 0001:00025500       ??$tcslen@AEBQEBD@?$__crt_char_traits@D@@SA_KAEBQEBD@Z 0000000140026500 f i libucrt:assert.obj
 0001:00025518       ??$tcslen@AEBQEB_W@?$__crt_char_traits@_W@@SA_KAEBQEB_W@Z 0000000140026518 f i libucrt:assert.obj
 0001:00025530       ??$tcsncat_s@AEBQEADAEB_KAEAPEBD_K@?$__crt_char_traits@D@@SAHAEBQEADAEB_KAEAPEBD$$QEA_K@Z 0000000140026530 f i libucrt:assert.obj
 0001:00025548       ??$tcsncat_s@AEBQEADAEB_KAEBQEBDAEB_K@?$__crt_char_traits@D@@SAHAEBQEADAEB_KAEBQEBD1@Z 0000000140026548 f i libucrt:assert.obj
 0001:00025560       ??$tcsncat_s@AEBQEADAEB_KPEBD_K@?$__crt_char_traits@D@@SAHAEBQEADAEB_K$$QEAPEBD$$QEA_K@Z 0000000140026560 f i libucrt:assert.obj
 0001:00025578       ??$tcsncat_s@AEBQEA_WAEB_KAEAPEB_W_K@?$__crt_char_traits@_W@@SAHAEBQEA_WAEB_KAEAPEB_W$$QEA_K@Z 0000000140026578 f i libucrt:assert.obj
 0001:00025590       ??$tcsncat_s@AEBQEA_WAEB_KAEBQEB_WAEB_K@?$__crt_char_traits@_W@@SAHAEBQEA_WAEB_KAEBQEB_W1@Z 0000000140026590 f i libucrt:assert.obj
 0001:000255a8       ??$tcsncat_s@AEBQEA_WAEB_KPEB_W_K@?$__crt_char_traits@_W@@SAHAEBQEA_WAEB_K$$QEAPEB_W$$QEA_K@Z 00000001400265a8 f i libucrt:assert.obj
 0001:000255c0       ??0__crt_stdio_stream@@QEAA@QEAU_iobuf@@@Z 00000001400265c0 f i libucrt:assert.obj
 0001:000255c8       ?__crt_interlocked_read_32@@YAHPEDH@Z 00000001400265c8 f i libucrt:assert.obj
 0001:00025784       ?get_flags@__crt_stdio_stream@@QEBAJXZ 0000000140026784 f i libucrt:assert.obj
 0001:0002581c       ?has_any_buffer@__crt_stdio_stream@@QEBA_NXZ 000000014002681c f i libucrt:assert.obj
 0001:00025830       ?has_any_of@__crt_stdio_stream@@QEBA_NJ@Z 0000000140026830 f i libucrt:assert.obj
 0001:00025840       _assert                    0000000140026840 f   libucrt:assert.obj
 0001:000258d0       _invoke_watson_if_error    00000001400268d0 f i libucrt:assert.obj
 0001:00025910       _vfwprintf_l               0000000140026910 f i libucrt:assert.obj
 0001:00025974       _vswprintf_c_l             0000000140026974 f i libucrt:assert.obj
 0001:000259f0       _wassert                   00000001400269f0 f   libucrt:assert.obj
 0001:00025a80       fprintf                    0000000140026a80 f i libucrt:assert.obj
 0001:00025ad4       fwprintf                   0000000140026ad4 f i libucrt:assert.obj
 0001:00025bd0       swprintf                   0000000140026bd0 f i libucrt:assert.obj
 0001:00025c38       ??$?RPEAU__crt_stdio_stream_data@@@__crt_internal_free_policy@@QEBAXQEBQEAU__crt_stdio_stream_data@@@Z 0000000140026c38 f i libucrt:_file.obj
 0001:00025c44       ??0?$__crt_unique_heap_ptr@PEAU__crt_stdio_stream_data@@U__crt_internal_free_policy@@@@QEAA@QEAPEAU__crt_stdio_stream_data@@@Z 0000000140026c44 f i libucrt:_file.obj
 0001:00025c4c       ??1?$__crt_unique_heap_ptr@PEAU__crt_stdio_stream_data@@U__crt_internal_free_policy@@@@QEAA@XZ 0000000140026c4c f i libucrt:_file.obj
 0001:00025c70       ??C__crt_stdio_stream@@QEBAPEAU__crt_stdio_stream_data@@XZ 0000000140026c70 f i libucrt:_file.obj
 0001:00025c74       ?detach@?$__crt_unique_heap_ptr@PEAU__crt_stdio_stream_data@@U__crt_internal_free_policy@@@@QEAAPEAPEAU__crt_stdio_stream_data@@XZ 0000000140026c74 f i libucrt:_file.obj
 0001:00025c80       ?release@?$__crt_unique_heap_ptr@PEAU__crt_stdio_stream_data@@U__crt_internal_free_policy@@@@QEAAXXZ 0000000140026c80 f i libucrt:_file.obj
 0001:00025ca4       __acrt_initialize_stdio    0000000140026ca4 f   libucrt:_file.obj
 0001:00025e0c       __acrt_iob_func            0000000140026e0c f   libucrt:_file.obj
 0001:00025e24       __acrt_uninitialize_stdio  0000000140026e24 f   libucrt:_file.obj
 0001:00025e98       _get_stream_buffer_pointers 0000000140026e98 f   libucrt:_file.obj
 0001:00025ef0       _lock_file                 0000000140026ef0 f   libucrt:_file.obj
 0001:00025f00       _unlock_file               0000000140026f00 f   libucrt:_file.obj
 0001:00025f10       ??$?0AEBV?$stream_output_adapter@D@__crt_stdio_output@@AEB_KAEBQEBDAEAV__crt_cached_ptd_host@@AEBQEAD@?$format_validation_base@DV?$stream_output_adapter@D@__crt_stdio_output@@@__crt_stdio_output@@IEAA@AEBV?$stream_output_adapter@D@1@AEB_KAEBQEBDAEAV__crt_cached_ptd_host@@AEBQEAD@Z 0000000140026f10 f i libucrt:output.obj
 0001:00025f9c       ??$?0AEBV?$stream_output_adapter@D@__crt_stdio_output@@AEB_KAEBQEBDAEAV__crt_cached_ptd_host@@AEBQEAD@?$positional_parameter_base@DV?$stream_output_adapter@D@__crt_stdio_output@@@__crt_stdio_output@@IEAA@AEBV?$stream_output_adapter@D@1@AEB_KAEBQEBDAEAV__crt_cached_ptd_host@@AEBQEAD@Z 0000000140026f9c f i libucrt:output.obj
 0001:0002604c       ??$?0AEBV?$stream_output_adapter@D@__crt_stdio_output@@AEB_KAEBQEBDAEAV__crt_cached_ptd_host@@AEBQEAD@?$standard_base@DV?$stream_output_adapter@D@__crt_stdio_output@@@__crt_stdio_output@@IEAA@AEBV?$stream_output_adapter@D@1@AEB_KAEBQEBDAEAV__crt_cached_ptd_host@@AEBQEAD@Z 000000014002704c f i libucrt:output.obj
 0001:000260d8       ??$?0AEBV?$stream_output_adapter@_W@__crt_stdio_output@@AEB_KAEBQEB_WAEAV__crt_cached_ptd_host@@AEBQEAD@?$format_validation_base@_WV?$stream_output_adapter@_W@__crt_stdio_output@@@__crt_stdio_output@@IEAA@AEBV?$stream_output_adapter@_W@1@AEB_KAEBQEB_WAEAV__crt_cached_ptd_host@@AEBQEAD@Z 00000001400270d8 f i libucrt:output.obj
 0001:0002616c       ??$?0AEBV?$stream_output_adapter@_W@__crt_stdio_output@@AEB_KAEBQEB_WAEAV__crt_cached_ptd_host@@AEBQEAD@?$positional_parameter_base@_WV?$stream_output_adapter@_W@__crt_stdio_output@@@__crt_stdio_output@@IEAA@AEBV?$stream_output_adapter@_W@1@AEB_KAEBQEB_WAEAV__crt_cached_ptd_host@@AEBQEAD@Z 000000014002716c f i libucrt:output.obj
 0001:00026224       ??$?0AEBV?$stream_output_adapter@_W@__crt_stdio_output@@AEB_KAEBQEB_WAEAV__crt_cached_ptd_host@@AEBQEAD@?$standard_base@_WV?$stream_output_adapter@_W@__crt_stdio_output@@@__crt_stdio_output@@IEAA@AEBV?$stream_output_adapter@_W@1@AEB_KAEBQEB_WAEAV__crt_cached_ptd_host@@AEBQEAD@Z 0000000140027224 f i libucrt:output.obj
 0001:000262b8       ??$?0AEBV?$string_output_adapter@D@__crt_stdio_output@@AEB_KAEBQEBDAEAV__crt_cached_ptd_host@@AEBQEAD@?$format_validation_base@DV?$string_output_adapter@D@__crt_stdio_output@@@__crt_stdio_output@@IEAA@AEBV?$string_output_adapter@D@1@AEB_KAEBQEBDAEAV__crt_cached_ptd_host@@AEBQEAD@Z 00000001400272b8 f i libucrt:output.obj
 0001:00026344       ??$?0AEBV?$string_output_adapter@D@__crt_stdio_output@@AEB_KAEBQEBDAEAV__crt_cached_ptd_host@@AEBQEAD@?$positional_parameter_base@DV?$string_output_adapter@D@__crt_stdio_output@@@__crt_stdio_output@@IEAA@AEBV?$string_output_adapter@D@1@AEB_KAEBQEBDAEAV__crt_cached_ptd_host@@AEBQEAD@Z 0000000140027344 f i libucrt:output.obj
 0001:000263f4       ??$?0AEBV?$string_output_adapter@D@__crt_stdio_output@@AEB_KAEBQEBDAEAV__crt_cached_ptd_host@@AEBQEAD@?$standard_base@DV?$string_output_adapter@D@__crt_stdio_output@@@__crt_stdio_output@@IEAA@AEBV?$string_output_adapter@D@1@AEB_KAEBQEBDAEAV__crt_cached_ptd_host@@AEBQEAD@Z 00000001400273f4 f i libucrt:output.obj
 0001:00026480       ??$?0AEBV?$string_output_adapter@_W@__crt_stdio_output@@AEB_KAEBQEB_WAEAV__crt_cached_ptd_host@@AEBQEAD@?$format_validation_base@_WV?$string_output_adapter@_W@__crt_stdio_output@@@__crt_stdio_output@@IEAA@AEBV?$string_output_adapter@_W@1@AEB_KAEBQEB_WAEAV__crt_cached_ptd_host@@AEBQEAD@Z 0000000140027480 f i libucrt:output.obj
 0001:00026514       ??$?0AEBV?$string_output_adapter@_W@__crt_stdio_output@@AEB_KAEBQEB_WAEAV__crt_cached_ptd_host@@AEBQEAD@?$positional_parameter_base@_WV?$string_output_adapter@_W@__crt_stdio_output@@@__crt_stdio_output@@IEAA@AEBV?$string_output_adapter@_W@1@AEB_KAEBQEB_WAEAV__crt_cached_ptd_host@@AEBQEAD@Z 0000000140027514 f i libucrt:output.obj
 0001:000265cc       ??$?0AEBV?$string_output_adapter@_W@__crt_stdio_output@@AEB_KAEBQEB_WAEAV__crt_cached_ptd_host@@AEBQEAD@?$standard_base@_WV?$string_output_adapter@_W@__crt_stdio_output@@@__crt_stdio_output@@IEAA@AEBV?$string_output_adapter@_W@1@AEB_KAEBQEB_WAEAV__crt_cached_ptd_host@@AEBQEAD@Z 00000001400275cc f i libucrt:output.obj
 0001:00026960       ??$_tcstol_internal@DPEAPEAD$0A@@@YAJAEAV__crt_cached_ptd_host@@QEBDQEAPEADH@Z 0000000140027960 f i libucrt:output.obj
 0001:0002699c       ??$_tcstol_internal@_WPEAPEA_W$0A@@@YAJAEAV__crt_cached_ptd_host@@QEB_WQEAPEA_WH@Z 000000014002799c f i libucrt:output.obj
 0001:00027f38       ??$count@D@formatting_buffer@__crt_stdio_output@@QEBA_KXZ 0000000140028f38 f i libucrt:output.obj
 0001:00027f5c       ??$count@_W@formatting_buffer@__crt_stdio_output@@QEBA_KXZ 0000000140028f5c f i libucrt:output.obj
 0001:00027f80       ??$data@D@formatting_buffer@__crt_stdio_output@@QEAAPEADXZ 0000000140028f80 f i libucrt:output.obj
 0001:00027f94       ??$data@_W@formatting_buffer@__crt_stdio_output@@QEAAPEA_WXZ 0000000140028f94 f i libucrt:output.obj
 0001:00027fa8       ??$ensure_buffer_is_big_enough@D@formatting_buffer@__crt_stdio_output@@QEAA_N_KAEAV__crt_cached_ptd_host@@@Z 0000000140028fa8 f i libucrt:output.obj
 0001:0002807c       ??$ensure_buffer_is_big_enough@_W@formatting_buffer@__crt_stdio_output@@QEAA_N_KAEAV__crt_cached_ptd_host@@@Z 000000014002907c f i libucrt:output.obj
 0001:00028154       ??$extract_argument_from_va_list@C_J@?$positional_parameter_base@DV?$stream_output_adapter@D@__crt_stdio_output@@@__crt_stdio_output@@IEAA_NAEA_J@Z 0000000140029154 f i libucrt:output.obj
 0001:0002829c       ??$extract_argument_from_va_list@C_J@?$positional_parameter_base@DV?$string_output_adapter@D@__crt_stdio_output@@@__crt_stdio_output@@IEAA_NAEA_J@Z 000000014002929c f i libucrt:output.obj
 0001:000283e4       ??$extract_argument_from_va_list@C_J@?$positional_parameter_base@_WV?$stream_output_adapter@_W@__crt_stdio_output@@@__crt_stdio_output@@IEAA_NAEA_J@Z 00000001400293e4 f i libucrt:output.obj
 0001:00028530       ??$extract_argument_from_va_list@C_J@?$positional_parameter_base@_WV?$string_output_adapter@_W@__crt_stdio_output@@@__crt_stdio_output@@IEAA_NAEA_J@Z 0000000140029530 f i libucrt:output.obj
 0001:0002867c       ??$extract_argument_from_va_list@C_J@?$standard_base@DV?$stream_output_adapter@D@__crt_stdio_output@@@__crt_stdio_output@@IEAA_NAEA_J@Z 000000014002967c f i libucrt:output.obj
 0001:00028698       ??$extract_argument_from_va_list@C_J@?$standard_base@DV?$string_output_adapter@D@__crt_stdio_output@@@__crt_stdio_output@@IEAA_NAEA_J@Z 0000000140029698 f i libucrt:output.obj
 0001:000286b4       ??$extract_argument_from_va_list@C_J@?$standard_base@_WV?$stream_output_adapter@_W@__crt_stdio_output@@@__crt_stdio_output@@IEAA_NAEA_J@Z 00000001400296b4 f i libucrt:output.obj
 0001:000286d0       ??$extract_argument_from_va_list@C_J@?$standard_base@_WV?$string_output_adapter@_W@__crt_stdio_output@@@__crt_stdio_output@@IEAA_NAEA_J@Z 00000001400296d0 f i libucrt:output.obj
 0001:000286ec       ??$extract_argument_from_va_list@E_J@?$positional_parameter_base@DV?$stream_output_adapter@D@__crt_stdio_output@@@__crt_stdio_output@@IEAA_NAEA_J@Z 00000001400296ec f i libucrt:output.obj
 0001:00028834       ??$extract_argument_from_va_list@E_J@?$positional_parameter_base@DV?$string_output_adapter@D@__crt_stdio_output@@@__crt_stdio_output@@IEAA_NAEA_J@Z 0000000140029834 f i libucrt:output.obj
 0001:0002897c       ??$extract_argument_from_va_list@E_J@?$positional_parameter_base@_WV?$stream_output_adapter@_W@__crt_stdio_output@@@__crt_stdio_output@@IEAA_NAEA_J@Z 000000014002997c f i libucrt:output.obj
 0001:00028ac8       ??$extract_argument_from_va_list@E_J@?$positional_parameter_base@_WV?$string_output_adapter@_W@__crt_stdio_output@@@__crt_stdio_output@@IEAA_NAEA_J@Z 0000000140029ac8 f i libucrt:output.obj
 0001:00028c14       ??$extract_argument_from_va_list@E_J@?$standard_base@DV?$stream_output_adapter@D@__crt_stdio_output@@@__crt_stdio_output@@IEAA_NAEA_J@Z 0000000140029c14 f i libucrt:output.obj
 0001:00028c2c       ??$extract_argument_from_va_list@E_J@?$standard_base@DV?$string_output_adapter@D@__crt_stdio_output@@@__crt_stdio_output@@IEAA_NAEA_J@Z 0000000140029c2c f i libucrt:output.obj
 0001:00028c44       ??$extract_argument_from_va_list@E_J@?$standard_base@_WV?$stream_output_adapter@_W@__crt_stdio_output@@@__crt_stdio_output@@IEAA_NAEA_J@Z 0000000140029c44 f i libucrt:output.obj
 0001:00028c5c       ??$extract_argument_from_va_list@E_J@?$standard_base@_WV?$string_output_adapter@_W@__crt_stdio_output@@@__crt_stdio_output@@IEAA_NAEA_J@Z 0000000140029c5c f i libucrt:output.obj
 0001:00028c74       ??$extract_argument_from_va_list@F_J@?$positional_parameter_base@DV?$stream_output_adapter@D@__crt_stdio_output@@@__crt_stdio_output@@IEAA_NAEA_J@Z 0000000140029c74 f i libucrt:output.obj
 0001:00028dbc       ??$extract_argument_from_va_list@F_J@?$positional_parameter_base@DV?$string_output_adapter@D@__crt_stdio_output@@@__crt_stdio_output@@IEAA_NAEA_J@Z 0000000140029dbc f i libucrt:output.obj
 0001:00028f04       ??$extract_argument_from_va_list@F_J@?$positional_parameter_base@_WV?$stream_output_adapter@_W@__crt_stdio_output@@@__crt_stdio_output@@IEAA_NAEA_J@Z 0000000140029f04 f i libucrt:output.obj
 0001:00029050       ??$extract_argument_from_va_list@F_J@?$positional_parameter_base@_WV?$string_output_adapter@_W@__crt_stdio_output@@@__crt_stdio_output@@IEAA_NAEA_J@Z 000000014002a050 f i libucrt:output.obj
 0001:0002919c       ??$extract_argument_from_va_list@F_J@?$standard_base@DV?$stream_output_adapter@D@__crt_stdio_output@@@__crt_stdio_output@@IEAA_NAEA_J@Z 000000014002a19c f i libucrt:output.obj
 0001:000291b8       ??$extract_argument_from_va_list@F_J@?$standard_base@DV?$string_output_adapter@D@__crt_stdio_output@@@__crt_stdio_output@@IEAA_NAEA_J@Z 000000014002a1b8 f i libucrt:output.obj
 0001:000291d4       ??$extract_argument_from_va_list@F_J@?$standard_base@_WV?$stream_output_adapter@_W@__crt_stdio_output@@@__crt_stdio_output@@IEAA_NAEA_J@Z 000000014002a1d4 f i libucrt:output.obj
 0001:000291f0       ??$extract_argument_from_va_list@F_J@?$standard_base@_WV?$string_output_adapter@_W@__crt_stdio_output@@@__crt_stdio_output@@IEAA_NAEA_J@Z 000000014002a1f0 f i libucrt:output.obj
 0001:0002920c       ??$extract_argument_from_va_list@GD@?$positional_parameter_base@DV?$stream_output_adapter@D@__crt_stdio_output@@@__crt_stdio_output@@IEAA_NAEAD@Z 000000014002a20c f i libucrt:output.obj
 0001:00029350       ??$extract_argument_from_va_list@GD@?$positional_parameter_base@DV?$string_output_adapter@D@__crt_stdio_output@@@__crt_stdio_output@@IEAA_NAEAD@Z 000000014002a350 f i libucrt:output.obj
 0001:00029494       ??$extract_argument_from_va_list@GD@?$standard_base@DV?$stream_output_adapter@D@__crt_stdio_output@@@__crt_stdio_output@@IEAA_NAEAD@Z 000000014002a494 f i libucrt:output.obj
 0001:000294ac       ??$extract_argument_from_va_list@GD@?$standard_base@DV?$string_output_adapter@D@__crt_stdio_output@@@__crt_stdio_output@@IEAA_NAEAD@Z 000000014002a4ac f i libucrt:output.obj
 0001:000294c4       ??$extract_argument_from_va_list@G_J@?$positional_parameter_base@DV?$stream_output_adapter@D@__crt_stdio_output@@@__crt_stdio_output@@IEAA_NAEA_J@Z 000000014002a4c4 f i libucrt:output.obj
 0001:0002960c       ??$extract_argument_from_va_list@G_J@?$positional_parameter_base@DV?$string_output_adapter@D@__crt_stdio_output@@@__crt_stdio_output@@IEAA_NAEA_J@Z 000000014002a60c f i libucrt:output.obj
 0001:00029754       ??$extract_argument_from_va_list@G_J@?$positional_parameter_base@_WV?$stream_output_adapter@_W@__crt_stdio_output@@@__crt_stdio_output@@IEAA_NAEA_J@Z 000000014002a754 f i libucrt:output.obj
 0001:000298a0       ??$extract_argument_from_va_list@G_J@?$positional_parameter_base@_WV?$string_output_adapter@_W@__crt_stdio_output@@@__crt_stdio_output@@IEAA_NAEA_J@Z 000000014002a8a0 f i libucrt:output.obj
 0001:000299ec       ??$extract_argument_from_va_list@G_J@?$standard_base@DV?$stream_output_adapter@D@__crt_stdio_output@@@__crt_stdio_output@@IEAA_NAEA_J@Z 000000014002a9ec f i libucrt:output.obj
 0001:00029a04       ??$extract_argument_from_va_list@G_J@?$standard_base@DV?$string_output_adapter@D@__crt_stdio_output@@@__crt_stdio_output@@IEAA_NAEA_J@Z 000000014002aa04 f i libucrt:output.obj
 0001:00029a1c       ??$extract_argument_from_va_list@G_J@?$standard_base@_WV?$stream_output_adapter@_W@__crt_stdio_output@@@__crt_stdio_output@@IEAA_NAEA_J@Z 000000014002aa1c f i libucrt:output.obj
 0001:00029a34       ??$extract_argument_from_va_list@G_J@?$standard_base@_WV?$string_output_adapter@_W@__crt_stdio_output@@@__crt_stdio_output@@IEAA_NAEA_J@Z 000000014002aa34 f i libucrt:output.obj
 0001:00029a4c       ??$extract_argument_from_va_list@H_J@?$positional_parameter_base@DV?$stream_output_adapter@D@__crt_stdio_output@@@__crt_stdio_output@@IEAA_NAEA_J@Z 000000014002aa4c f i libucrt:output.obj
 0001:00029b94       ??$extract_argument_from_va_list@H_J@?$positional_parameter_base@DV?$string_output_adapter@D@__crt_stdio_output@@@__crt_stdio_output@@IEAA_NAEA_J@Z 000000014002ab94 f i libucrt:output.obj
 0001:00029cdc       ??$extract_argument_from_va_list@H_J@?$positional_parameter_base@_WV?$stream_output_adapter@_W@__crt_stdio_output@@@__crt_stdio_output@@IEAA_NAEA_J@Z 000000014002acdc f i libucrt:output.obj
 0001:00029e24       ??$extract_argument_from_va_list@H_J@?$positional_parameter_base@_WV?$string_output_adapter@_W@__crt_stdio_output@@@__crt_stdio_output@@IEAA_NAEA_J@Z 000000014002ae24 f i libucrt:output.obj
 0001:00029f6c       ??$extract_argument_from_va_list@H_J@?$standard_base@DV?$stream_output_adapter@D@__crt_stdio_output@@@__crt_stdio_output@@IEAA_NAEA_J@Z 000000014002af6c f i libucrt:output.obj
 0001:00029f84       ??$extract_argument_from_va_list@H_J@?$standard_base@DV?$string_output_adapter@D@__crt_stdio_output@@@__crt_stdio_output@@IEAA_NAEA_J@Z 000000014002af84 f i libucrt:output.obj
 0001:00029f9c       ??$extract_argument_from_va_list@H_J@?$standard_base@_WV?$stream_output_adapter@_W@__crt_stdio_output@@@__crt_stdio_output@@IEAA_NAEA_J@Z 000000014002af9c f i libucrt:output.obj
 0001:00029fb4       ??$extract_argument_from_va_list@H_J@?$standard_base@_WV?$string_output_adapter@_W@__crt_stdio_output@@@__crt_stdio_output@@IEAA_NAEA_J@Z 000000014002afb4 f i libucrt:output.obj
 0001:00029fcc       ??$extract_argument_from_va_list@I_J@?$positional_parameter_base@DV?$stream_output_adapter@D@__crt_stdio_output@@@__crt_stdio_output@@IEAA_NAEA_J@Z 000000014002afcc f i libucrt:output.obj
 0001:0002a114       ??$extract_argument_from_va_list@I_J@?$positional_parameter_base@DV?$string_output_adapter@D@__crt_stdio_output@@@__crt_stdio_output@@IEAA_NAEA_J@Z 000000014002b114 f i libucrt:output.obj
 0001:0002a25c       ??$extract_argument_from_va_list@I_J@?$positional_parameter_base@_WV?$stream_output_adapter@_W@__crt_stdio_output@@@__crt_stdio_output@@IEAA_NAEA_J@Z 000000014002b25c f i libucrt:output.obj
 0001:0002a3a4       ??$extract_argument_from_va_list@I_J@?$positional_parameter_base@_WV?$string_output_adapter@_W@__crt_stdio_output@@@__crt_stdio_output@@IEAA_NAEA_J@Z 000000014002b3a4 f i libucrt:output.obj
 0001:0002a4ec       ??$extract_argument_from_va_list@I_J@?$standard_base@DV?$stream_output_adapter@D@__crt_stdio_output@@@__crt_stdio_output@@IEAA_NAEA_J@Z 000000014002b4ec f i libucrt:output.obj
 0001:0002a504       ??$extract_argument_from_va_list@I_J@?$standard_base@DV?$string_output_adapter@D@__crt_stdio_output@@@__crt_stdio_output@@IEAA_NAEA_J@Z 000000014002b504 f i libucrt:output.obj
 0001:0002a51c       ??$extract_argument_from_va_list@I_J@?$standard_base@_WV?$stream_output_adapter@_W@__crt_stdio_output@@@__crt_stdio_output@@IEAA_NAEA_J@Z 000000014002b51c f i libucrt:output.obj
 0001:0002a534       ??$extract_argument_from_va_list@I_J@?$standard_base@_WV?$string_output_adapter@_W@__crt_stdio_output@@@__crt_stdio_output@@IEAA_NAEA_J@Z 000000014002b534 f i libucrt:output.obj
 0001:0002a54c       ??$extract_argument_from_va_list@PEADPEAD@?$positional_parameter_base@DV?$stream_output_adapter@D@__crt_stdio_output@@@__crt_stdio_output@@IEAA_NAEAPEAD@Z 000000014002b54c f i libucrt:output.obj
 0001:0002a694       ??$extract_argument_from_va_list@PEADPEAD@?$positional_parameter_base@DV?$string_output_adapter@D@__crt_stdio_output@@@__crt_stdio_output@@IEAA_NAEAPEAD@Z 000000014002b694 f i libucrt:output.obj
 0001:0002a7dc       ??$extract_argument_from_va_list@PEADPEAD@?$positional_parameter_base@_WV?$stream_output_adapter@_W@__crt_stdio_output@@@__crt_stdio_output@@IEAA_NAEAPEAD@Z 000000014002b7dc f i libucrt:output.obj
 0001:0002a924       ??$extract_argument_from_va_list@PEADPEAD@?$positional_parameter_base@_WV?$string_output_adapter@_W@__crt_stdio_output@@@__crt_stdio_output@@IEAA_NAEAPEAD@Z 000000014002b924 f i libucrt:output.obj
 0001:0002aa6c       ??$extract_argument_from_va_list@PEADPEAD@?$standard_base@DV?$stream_output_adapter@D@__crt_stdio_output@@@__crt_stdio_output@@IEAA_NAEAPEAD@Z 000000014002ba6c f i libucrt:output.obj
 0001:0002aa84       ??$extract_argument_from_va_list@PEADPEAD@?$standard_base@DV?$string_output_adapter@D@__crt_stdio_output@@@__crt_stdio_output@@IEAA_NAEAPEAD@Z 000000014002ba84 f i libucrt:output.obj
 0001:0002aa9c       ??$extract_argument_from_va_list@PEADPEAD@?$standard_base@_WV?$stream_output_adapter@_W@__crt_stdio_output@@@__crt_stdio_output@@IEAA_NAEAPEAD@Z 000000014002ba9c f i libucrt:output.obj
 0001:0002aab4       ??$extract_argument_from_va_list@PEADPEAD@?$standard_base@_WV?$string_output_adapter@_W@__crt_stdio_output@@@__crt_stdio_output@@IEAA_NAEAPEAD@Z 000000014002bab4 f i libucrt:output.obj
 0001:0002aacc       ??$extract_argument_from_va_list@PEAUansi_string@?1??type_case_Z@?$output_processor@DV?$stream_output_adapter@D@__crt_stdio_output@@V?$format_validation_base@DV?$stream_output_adapter@D@__crt_stdio_output@@@2@@__crt_stdio_output@@AEAA_NXZ@PEAU1?1??234@AEAA_NXZ@@?$standard_base@DV?$stream_output_adapter@D@__crt_stdio_output@@@__crt_stdio_output@@IEAA_NAEAPEAUansi_string@?1??type_case_Z@?$output_processor@DV?$stream_output_adapter@D@__crt_stdio_output@@V?$format_validation_base@DV?$stream_output_adapter@D@__crt_stdio_output@@@2@@1@AEAA_NXZ@@Z 000000014002bacc f i libucrt:output.obj
 0001:0002aae4       ??$extract_argument_from_va_list@PEAUansi_string@?1??type_case_Z@?$output_processor@DV?$stream_output_adapter@D@__crt_stdio_output@@V?$positional_parameter_base@DV?$stream_output_adapter@D@__crt_stdio_output@@@2@@__crt_stdio_output@@AEAA_NXZ@PEAU1?1??234@AEAA_NXZ@@?$positional_parameter_base@DV?$stream_output_adapter@D@__crt_stdio_output@@@__crt_stdio_output@@IEAA_NAEAPEAUansi_string@?1??type_case_Z@?$output_processor@DV?$stream_output_adapter@D@__crt_stdio_output@@V?$positional_parameter_base@DV?$stream_output_adapter@D@__crt_stdio_output@@@2@@1@AEAA_NXZ@@Z 000000014002bae4 f i libucrt:output.obj
 0001:0002ac2c       ??$extract_argument_from_va_list@PEAUansi_string@?1??type_case_Z@?$output_processor@DV?$stream_output_adapter@D@__crt_stdio_output@@V?$positional_parameter_base@DV?$stream_output_adapter@D@__crt_stdio_output@@@2@@__crt_stdio_output@@AEAA_NXZ@PEAU1?1??234@AEAA_NXZ@@?$standard_base@DV?$stream_output_adapter@D@__crt_stdio_output@@@__crt_stdio_output@@IEAA_NAEAPEAUansi_string@?1??type_case_Z@?$output_processor@DV?$stream_output_adapter@D@__crt_stdio_output@@V?$positional_parameter_base@DV?$stream_output_adapter@D@__crt_stdio_output@@@2@@1@AEAA_NXZ@@Z 000000014002bc2c f i libucrt:output.obj
 0001:0002ac44       ??$extract_argument_from_va_list@PEAUansi_string@?1??type_case_Z@?$output_processor@DV?$stream_output_adapter@D@__crt_stdio_output@@V?$standard_base@DV?$stream_output_adapter@D@__crt_stdio_output@@@2@@__crt_stdio_output@@AEAA_NXZ@PEAU1?1??234@AEAA_NXZ@@?$standard_base@DV?$stream_output_adapter@D@__crt_stdio_output@@@__crt_stdio_output@@IEAA_NAEAPEAUansi_string@?1??type_case_Z@?$output_processor@DV?$stream_output_adapter@D@__crt_stdio_output@@V?$standard_base@DV?$stream_output_adapter@D@__crt_stdio_output@@@2@@1@AEAA_NXZ@@Z 000000014002bc44 f i libucrt:output.obj
 0001:0002ac5c       ??$extract_argument_from_va_list@PEAUansi_string@?1??type_case_Z@?$output_processor@DV?$string_output_adapter@D@__crt_stdio_output@@V?$format_validation_base@DV?$string_output_adapter@D@__crt_stdio_output@@@2@@__crt_stdio_output@@AEAA_NXZ@PEAU1?1??234@AEAA_NXZ@@?$standard_base@DV?$string_output_adapter@D@__crt_stdio_output@@@__crt_stdio_output@@IEAA_NAEAPEAUansi_string@?1??type_case_Z@?$output_processor@DV?$string_output_adapter@D@__crt_stdio_output@@V?$format_validation_base@DV?$string_output_adapter@D@__crt_stdio_output@@@2@@1@AEAA_NXZ@@Z 000000014002bc5c f i libucrt:output.obj
 0001:0002ac74       ??$extract_argument_from_va_list@PEAUansi_string@?1??type_case_Z@?$output_processor@DV?$string_output_adapter@D@__crt_stdio_output@@V?$positional_parameter_base@DV?$string_output_adapter@D@__crt_stdio_output@@@2@@__crt_stdio_output@@AEAA_NXZ@PEAU1?1??234@AEAA_NXZ@@?$positional_parameter_base@DV?$string_output_adapter@D@__crt_stdio_output@@@__crt_stdio_output@@IEAA_NAEAPEAUansi_string@?1??type_case_Z@?$output_processor@DV?$string_output_adapter@D@__crt_stdio_output@@V?$positional_parameter_base@DV?$string_output_adapter@D@__crt_stdio_output@@@2@@1@AEAA_NXZ@@Z 000000014002bc74 f i libucrt:output.obj
 0001:0002adbc       ??$extract_argument_from_va_list@PEAUansi_string@?1??type_case_Z@?$output_processor@DV?$string_output_adapter@D@__crt_stdio_output@@V?$positional_parameter_base@DV?$string_output_adapter@D@__crt_stdio_output@@@2@@__crt_stdio_output@@AEAA_NXZ@PEAU1?1??234@AEAA_NXZ@@?$standard_base@DV?$string_output_adapter@D@__crt_stdio_output@@@__crt_stdio_output@@IEAA_NAEAPEAUansi_string@?1??type_case_Z@?$output_processor@DV?$string_output_adapter@D@__crt_stdio_output@@V?$positional_parameter_base@DV?$string_output_adapter@D@__crt_stdio_output@@@2@@1@AEAA_NXZ@@Z 000000014002bdbc f i libucrt:output.obj
 0001:0002add4       ??$extract_argument_from_va_list@PEAUansi_string@?1??type_case_Z@?$output_processor@DV?$string_output_adapter@D@__crt_stdio_output@@V?$standard_base@DV?$string_output_adapter@D@__crt_stdio_output@@@2@@__crt_stdio_output@@AEAA_NXZ@PEAU1?1??234@AEAA_NXZ@@?$standard_base@DV?$string_output_adapter@D@__crt_stdio_output@@@__crt_stdio_output@@IEAA_NAEAPEAUansi_string@?1??type_case_Z@?$output_processor@DV?$string_output_adapter@D@__crt_stdio_output@@V?$standard_base@DV?$string_output_adapter@D@__crt_stdio_output@@@2@@1@AEAA_NXZ@@Z 000000014002bdd4 f i libucrt:output.obj
 0001:0002adec       ??$extract_argument_from_va_list@PEAUansi_string@?1??type_case_Z@?$output_processor@_WV?$stream_output_adapter@_W@__crt_stdio_output@@V?$format_validation_base@_WV?$stream_output_adapter@_W@__crt_stdio_output@@@2@@__crt_stdio_output@@AEAA_NXZ@PEAU1?1??234@AEAA_NXZ@@?$standard_base@_WV?$stream_output_adapter@_W@__crt_stdio_output@@@__crt_stdio_output@@IEAA_NAEAPEAUansi_string@?1??type_case_Z@?$output_processor@_WV?$stream_output_adapter@_W@__crt_stdio_output@@V?$format_validation_base@_WV?$stream_output_adapter@_W@__crt_stdio_output@@@2@@1@AEAA_NXZ@@Z 000000014002bdec f i libucrt:output.obj
 0001:0002ae04       ??$extract_argument_from_va_list@PEAUansi_string@?1??type_case_Z@?$output_processor@_WV?$stream_output_adapter@_W@__crt_stdio_output@@V?$positional_parameter_base@_WV?$stream_output_adapter@_W@__crt_stdio_output@@@2@@__crt_stdio_output@@AEAA_NXZ@PEAU1?1??234@AEAA_NXZ@@?$positional_parameter_base@_WV?$stream_output_adapter@_W@__crt_stdio_output@@@__crt_stdio_output@@IEAA_NAEAPEAUansi_string@?1??type_case_Z@?$output_processor@_WV?$stream_output_adapter@_W@__crt_stdio_output@@V?$positional_parameter_base@_WV?$stream_output_adapter@_W@__crt_stdio_output@@@2@@1@AEAA_NXZ@@Z 000000014002be04 f i libucrt:output.obj
 0001:0002af4c       ??$extract_argument_from_va_list@PEAUansi_string@?1??type_case_Z@?$output_processor@_WV?$stream_output_adapter@_W@__crt_stdio_output@@V?$positional_parameter_base@_WV?$stream_output_adapter@_W@__crt_stdio_output@@@2@@__crt_stdio_output@@AEAA_NXZ@PEAU1?1??234@AEAA_NXZ@@?$standard_base@_WV?$stream_output_adapter@_W@__crt_stdio_output@@@__crt_stdio_output@@IEAA_NAEAPEAUansi_string@?1??type_case_Z@?$output_processor@_WV?$stream_output_adapter@_W@__crt_stdio_output@@V?$positional_parameter_base@_WV?$stream_output_adapter@_W@__crt_stdio_output@@@2@@1@AEAA_NXZ@@Z 000000014002bf4c f i libucrt:output.obj
 0001:0002af64       ??$extract_argument_from_va_list@PEAUansi_string@?1??type_case_Z@?$output_processor@_WV?$stream_output_adapter@_W@__crt_stdio_output@@V?$standard_base@_WV?$stream_output_adapter@_W@__crt_stdio_output@@@2@@__crt_stdio_output@@AEAA_NXZ@PEAU1?1??234@AEAA_NXZ@@?$standard_base@_WV?$stream_output_adapter@_W@__crt_stdio_output@@@__crt_stdio_output@@IEAA_NAEAPEAUansi_string@?1??type_case_Z@?$output_processor@_WV?$stream_output_adapter@_W@__crt_stdio_output@@V?$standard_base@_WV?$stream_output_adapter@_W@__crt_stdio_output@@@2@@1@AEAA_NXZ@@Z 000000014002bf64 f i libucrt:output.obj
 0001:0002af7c       ??$extract_argument_from_va_list@PEAUansi_string@?1??type_case_Z@?$output_processor@_WV?$string_output_adapter@_W@__crt_stdio_output@@V?$format_validation_base@_WV?$string_output_adapter@_W@__crt_stdio_output@@@2@@__crt_stdio_output@@AEAA_NXZ@PEAU1?1??234@AEAA_NXZ@@?$standard_base@_WV?$string_output_adapter@_W@__crt_stdio_output@@@__crt_stdio_output@@IEAA_NAEAPEAUansi_string@?1??type_case_Z@?$output_processor@_WV?$string_output_adapter@_W@__crt_stdio_output@@V?$format_validation_base@_WV?$string_output_adapter@_W@__crt_stdio_output@@@2@@1@AEAA_NXZ@@Z 000000014002bf7c f i libucrt:output.obj
 0001:0002af94       ??$extract_argument_from_va_list@PEAUansi_string@?1??type_case_Z@?$output_processor@_WV?$string_output_adapter@_W@__crt_stdio_output@@V?$positional_parameter_base@_WV?$string_output_adapter@_W@__crt_stdio_output@@@2@@__crt_stdio_output@@AEAA_NXZ@PEAU1?1??234@AEAA_NXZ@@?$positional_parameter_base@_WV?$string_output_adapter@_W@__crt_stdio_output@@@__crt_stdio_output@@IEAA_NAEAPEAUansi_string@?1??type_case_Z@?$output_processor@_WV?$string_output_adapter@_W@__crt_stdio_output@@V?$positional_parameter_base@_WV?$string_output_adapter@_W@__crt_stdio_output@@@2@@1@AEAA_NXZ@@Z 000000014002bf94 f i libucrt:output.obj
 0001:0002b0dc       ??$extract_argument_from_va_list@PEAUansi_string@?1??type_case_Z@?$output_processor@_WV?$string_output_adapter@_W@__crt_stdio_output@@V?$positional_parameter_base@_WV?$string_output_adapter@_W@__crt_stdio_output@@@2@@__crt_stdio_output@@AEAA_NXZ@PEAU1?1??234@AEAA_NXZ@@?$standard_base@_WV?$string_output_adapter@_W@__crt_stdio_output@@@__crt_stdio_output@@IEAA_NAEAPEAUansi_string@?1??type_case_Z@?$output_processor@_WV?$string_output_adapter@_W@__crt_stdio_output@@V?$positional_parameter_base@_WV?$string_output_adapter@_W@__crt_stdio_output@@@2@@1@AEAA_NXZ@@Z 000000014002c0dc f i libucrt:output.obj
 0001:0002b0f4       ??$extract_argument_from_va_list@PEAUansi_string@?1??type_case_Z@?$output_processor@_WV?$string_output_adapter@_W@__crt_stdio_output@@V?$standard_base@_WV?$string_output_adapter@_W@__crt_stdio_output@@@2@@__crt_stdio_output@@AEAA_NXZ@PEAU1?1??234@AEAA_NXZ@@?$standard_base@_WV?$string_output_adapter@_W@__crt_stdio_output@@@__crt_stdio_output@@IEAA_NAEAPEAUansi_string@?1??type_case_Z@?$output_processor@_WV?$string_output_adapter@_W@__crt_stdio_output@@V?$standard_base@_WV?$string_output_adapter@_W@__crt_stdio_output@@@2@@1@AEAA_NXZ@@Z 000000014002c0f4 f i libucrt:output.obj
 0001:0002b10c       ??$extract_argument_from_va_list@PEAXPEAX@?$positional_parameter_base@DV?$stream_output_adapter@D@__crt_stdio_output@@@__crt_stdio_output@@IEAA_NAEAPEAX@Z 000000014002c10c f i libucrt:output.obj
 0001:0002b254       ??$extract_argument_from_va_list@PEAXPEAX@?$positional_parameter_base@DV?$string_output_adapter@D@__crt_stdio_output@@@__crt_stdio_output@@IEAA_NAEAPEAX@Z 000000014002c254 f i libucrt:output.obj
 0001:0002b39c       ??$extract_argument_from_va_list@PEAXPEAX@?$positional_parameter_base@_WV?$stream_output_adapter@_W@__crt_stdio_output@@@__crt_stdio_output@@IEAA_NAEAPEAX@Z 000000014002c39c f i libucrt:output.obj
 0001:0002b4e4       ??$extract_argument_from_va_list@PEAXPEAX@?$positional_parameter_base@_WV?$string_output_adapter@_W@__crt_stdio_output@@@__crt_stdio_output@@IEAA_NAEAPEAX@Z 000000014002c4e4 f i libucrt:output.obj
 0001:0002b62c       ??$extract_argument_from_va_list@PEAXPEAX@?$standard_base@DV?$stream_output_adapter@D@__crt_stdio_output@@@__crt_stdio_output@@IEAA_NAEAPEAX@Z 000000014002c62c f i libucrt:output.obj
 0001:0002b644       ??$extract_argument_from_va_list@PEAXPEAX@?$standard_base@DV?$string_output_adapter@D@__crt_stdio_output@@@__crt_stdio_output@@IEAA_NAEAPEAX@Z 000000014002c644 f i libucrt:output.obj
 0001:0002b65c       ??$extract_argument_from_va_list@PEAXPEAX@?$standard_base@_WV?$stream_output_adapter@_W@__crt_stdio_output@@@__crt_stdio_output@@IEAA_NAEAPEAX@Z 000000014002c65c f i libucrt:output.obj
 0001:0002b674       ??$extract_argument_from_va_list@PEAXPEAX@?$standard_base@_WV?$string_output_adapter@_W@__crt_stdio_output@@@__crt_stdio_output@@IEAA_NAEAPEAX@Z 000000014002c674 f i libucrt:output.obj
 0001:0002b68c       ??$extract_argument_from_va_list@U_CRT_DOUBLE@@U1@@?$positional_parameter_base@DV?$stream_output_adapter@D@__crt_stdio_output@@@__crt_stdio_output@@IEAA_NAEAU_CRT_DOUBLE@@@Z 000000014002c68c f i libucrt:output.obj
 0001:0002b7d4       ??$extract_argument_from_va_list@U_CRT_DOUBLE@@U1@@?$positional_parameter_base@DV?$string_output_adapter@D@__crt_stdio_output@@@__crt_stdio_output@@IEAA_NAEAU_CRT_DOUBLE@@@Z 000000014002c7d4 f i libucrt:output.obj
 0001:0002b91c       ??$extract_argument_from_va_list@U_CRT_DOUBLE@@U1@@?$positional_parameter_base@_WV?$stream_output_adapter@_W@__crt_stdio_output@@@__crt_stdio_output@@IEAA_NAEAU_CRT_DOUBLE@@@Z 000000014002c91c f i libucrt:output.obj
 0001:0002ba64       ??$extract_argument_from_va_list@U_CRT_DOUBLE@@U1@@?$positional_parameter_base@_WV?$string_output_adapter@_W@__crt_stdio_output@@@__crt_stdio_output@@IEAA_NAEAU_CRT_DOUBLE@@@Z 000000014002ca64 f i libucrt:output.obj
 0001:0002bbac       ??$extract_argument_from_va_list@U_CRT_DOUBLE@@U1@@?$standard_base@DV?$stream_output_adapter@D@__crt_stdio_output@@@__crt_stdio_output@@IEAA_NAEAU_CRT_DOUBLE@@@Z 000000014002cbac f i libucrt:output.obj
 0001:0002bbc8       ??$extract_argument_from_va_list@U_CRT_DOUBLE@@U1@@?$standard_base@DV?$string_output_adapter@D@__crt_stdio_output@@@__crt_stdio_output@@IEAA_NAEAU_CRT_DOUBLE@@@Z 000000014002cbc8 f i libucrt:output.obj
 0001:0002bbe4       ??$extract_argument_from_va_list@U_CRT_DOUBLE@@U1@@?$standard_base@_WV?$stream_output_adapter@_W@__crt_stdio_output@@@__crt_stdio_output@@IEAA_NAEAU_CRT_DOUBLE@@@Z 000000014002cbe4 f i libucrt:output.obj
 0001:0002bc00       ??$extract_argument_from_va_list@U_CRT_DOUBLE@@U1@@?$standard_base@_WV?$string_output_adapter@_W@__crt_stdio_output@@@__crt_stdio_output@@IEAA_NAEAU_CRT_DOUBLE@@@Z 000000014002cc00 f i libucrt:output.obj
 0001:0002bc1c       ??$extract_argument_from_va_list@_J_J@?$positional_parameter_base@DV?$stream_output_adapter@D@__crt_stdio_output@@@__crt_stdio_output@@IEAA_NAEA_J@Z 000000014002cc1c f i libucrt:output.obj
 0001:0002bd64       ??$extract_argument_from_va_list@_J_J@?$positional_parameter_base@DV?$string_output_adapter@D@__crt_stdio_output@@@__crt_stdio_output@@IEAA_NAEA_J@Z 000000014002cd64 f i libucrt:output.obj
 0001:0002beac       ??$extract_argument_from_va_list@_J_J@?$positional_parameter_base@_WV?$stream_output_adapter@_W@__crt_stdio_output@@@__crt_stdio_output@@IEAA_NAEA_J@Z 000000014002ceac f i libucrt:output.obj
 0001:0002bff4       ??$extract_argument_from_va_list@_J_J@?$positional_parameter_base@_WV?$string_output_adapter@_W@__crt_stdio_output@@@__crt_stdio_output@@IEAA_NAEA_J@Z 000000014002cff4 f i libucrt:output.obj
 0001:0002c13c       ??$extract_argument_from_va_list@_J_J@?$standard_base@DV?$stream_output_adapter@D@__crt_stdio_output@@@__crt_stdio_output@@IEAA_NAEA_J@Z 000000014002d13c f i libucrt:output.obj
 0001:0002c154       ??$extract_argument_from_va_list@_J_J@?$standard_base@DV?$string_output_adapter@D@__crt_stdio_output@@@__crt_stdio_output@@IEAA_NAEA_J@Z 000000014002d154 f i libucrt:output.obj
 0001:0002c16c       ??$extract_argument_from_va_list@_J_J@?$standard_base@_WV?$stream_output_adapter@_W@__crt_stdio_output@@@__crt_stdio_output@@IEAA_NAEA_J@Z 000000014002d16c f i libucrt:output.obj
 0001:0002c184       ??$extract_argument_from_va_list@_J_J@?$standard_base@_WV?$string_output_adapter@_W@__crt_stdio_output@@@__crt_stdio_output@@IEAA_NAEA_J@Z 000000014002d184 f i libucrt:output.obj
 0001:0002c19c       ??$extract_argument_from_va_list@_K_J@?$positional_parameter_base@DV?$stream_output_adapter@D@__crt_stdio_output@@@__crt_stdio_output@@IEAA_NAEA_J@Z 000000014002d19c f i libucrt:output.obj
 0001:0002c2e4       ??$extract_argument_from_va_list@_K_J@?$positional_parameter_base@DV?$string_output_adapter@D@__crt_stdio_output@@@__crt_stdio_output@@IEAA_NAEA_J@Z 000000014002d2e4 f i libucrt:output.obj
 0001:0002c42c       ??$extract_argument_from_va_list@_K_J@?$positional_parameter_base@_WV?$stream_output_adapter@_W@__crt_stdio_output@@@__crt_stdio_output@@IEAA_NAEA_J@Z 000000014002d42c f i libucrt:output.obj
 0001:0002c574       ??$extract_argument_from_va_list@_K_J@?$positional_parameter_base@_WV?$string_output_adapter@_W@__crt_stdio_output@@@__crt_stdio_output@@IEAA_NAEA_J@Z 000000014002d574 f i libucrt:output.obj
 0001:0002c6bc       ??$extract_argument_from_va_list@_K_J@?$standard_base@DV?$stream_output_adapter@D@__crt_stdio_output@@@__crt_stdio_output@@IEAA_NAEA_J@Z 000000014002d6bc f i libucrt:output.obj
 0001:0002c6d4       ??$extract_argument_from_va_list@_K_J@?$standard_base@DV?$string_output_adapter@D@__crt_stdio_output@@@__crt_stdio_output@@IEAA_NAEA_J@Z 000000014002d6d4 f i libucrt:output.obj
 0001:0002c6ec       ??$extract_argument_from_va_list@_K_J@?$standard_base@_WV?$stream_output_adapter@_W@__crt_stdio_output@@@__crt_stdio_output@@IEAA_NAEA_J@Z 000000014002d6ec f i libucrt:output.obj
 0001:0002c704       ??$extract_argument_from_va_list@_K_J@?$standard_base@_WV?$string_output_adapter@_W@__crt_stdio_output@@@__crt_stdio_output@@IEAA_NAEA_J@Z 000000014002d704 f i libucrt:output.obj
 0001:0002c71c       ??$extract_argument_from_va_list@_W_W@?$positional_parameter_base@DV?$stream_output_adapter@D@__crt_stdio_output@@@__crt_stdio_output@@IEAA_NAEA_W@Z 000000014002d71c f i libucrt:output.obj
 0001:0002c864       ??$extract_argument_from_va_list@_W_W@?$positional_parameter_base@DV?$string_output_adapter@D@__crt_stdio_output@@@__crt_stdio_output@@IEAA_NAEA_W@Z 000000014002d864 f i libucrt:output.obj
 0001:0002c9ac       ??$extract_argument_from_va_list@_W_W@?$positional_parameter_base@_WV?$stream_output_adapter@_W@__crt_stdio_output@@@__crt_stdio_output@@IEAA_NAEA_W@Z 000000014002d9ac f i libucrt:output.obj
 0001:0002caf8       ??$extract_argument_from_va_list@_W_W@?$positional_parameter_base@_WV?$string_output_adapter@_W@__crt_stdio_output@@@__crt_stdio_output@@IEAA_NAEA_W@Z 000000014002daf8 f i libucrt:output.obj
 0001:0002cc44       ??$extract_argument_from_va_list@_W_W@?$standard_base@DV?$stream_output_adapter@D@__crt_stdio_output@@@__crt_stdio_output@@IEAA_NAEA_W@Z 000000014002dc44 f i libucrt:output.obj
 0001:0002cc5c       ??$extract_argument_from_va_list@_W_W@?$standard_base@DV?$string_output_adapter@D@__crt_stdio_output@@@__crt_stdio_output@@IEAA_NAEA_W@Z 000000014002dc5c f i libucrt:output.obj
 0001:0002cc74       ??$extract_argument_from_va_list@_W_W@?$standard_base@_WV?$stream_output_adapter@_W@__crt_stdio_output@@@__crt_stdio_output@@IEAA_NAEA_W@Z 000000014002dc74 f i libucrt:output.obj
 0001:0002cc8c       ??$extract_argument_from_va_list@_W_W@?$standard_base@_WV?$string_output_adapter@_W@__crt_stdio_output@@@__crt_stdio_output@@IEAA_NAEA_W@Z 000000014002dc8c f i libucrt:output.obj
 0001:0002cca4       ??$get_parameter_type@D@?$positional_parameter_base@DV?$stream_output_adapter@D@__crt_stdio_output@@@__crt_stdio_output@@CA?AW4parameter_type@01@PEAD@Z 000000014002dca4 f i libucrt:output.obj
 0001:0002ccac       ??$get_parameter_type@D@?$positional_parameter_base@DV?$string_output_adapter@D@__crt_stdio_output@@@__crt_stdio_output@@CA?AW4parameter_type@01@PEAD@Z 000000014002dcac f i libucrt:output.obj
 0001:0002ccb4       ??$get_parameter_type@D@?$positional_parameter_base@_WV?$stream_output_adapter@_W@__crt_stdio_output@@@__crt_stdio_output@@CA?AW4parameter_type@01@PEAD@Z 000000014002dcb4 f i libucrt:output.obj
 0001:0002ccbc       ??$get_parameter_type@D@?$positional_parameter_base@_WV?$string_output_adapter@_W@__crt_stdio_output@@@__crt_stdio_output@@CA?AW4parameter_type@01@PEAD@Z 000000014002dcbc f i libucrt:output.obj
 0001:0002ccc4       ??$get_parameter_type@Uansi_string@?1??type_case_Z@?$output_processor@DV?$stream_output_adapter@D@__crt_stdio_output@@V?$positional_parameter_base@DV?$stream_output_adapter@D@__crt_stdio_output@@@2@@__crt_stdio_output@@AEAA_NXZ@@?$positional_parameter_base@DV?$stream_output_adapter@D@__crt_stdio_output@@@__crt_stdio_output@@CA?AW4parameter_type@01@PEAUansi_string@?1??type_case_Z@?$output_processor@DV?$stream_output_adapter@D@__crt_stdio_output@@V?$positional_parameter_base@DV?$stream_output_adapter@D@__crt_stdio_output@@@2@@1@AEAA_NXZ@@Z 000000014002dcc4 f i libucrt:output.obj
 0001:0002cccc       ??$get_parameter_type@Uansi_string@?1??type_case_Z@?$output_processor@DV?$string_output_adapter@D@__crt_stdio_output@@V?$positional_parameter_base@DV?$string_output_adapter@D@__crt_stdio_output@@@2@@__crt_stdio_output@@AEAA_NXZ@@?$positional_parameter_base@DV?$string_output_adapter@D@__crt_stdio_output@@@__crt_stdio_output@@CA?AW4parameter_type@01@PEAUansi_string@?1??type_case_Z@?$output_processor@DV?$string_output_adapter@D@__crt_stdio_output@@V?$positional_parameter_base@DV?$string_output_adapter@D@__crt_stdio_output@@@2@@1@AEAA_NXZ@@Z 000000014002dccc f i libucrt:output.obj
 0001:0002ccd4       ??$get_parameter_type@Uansi_string@?1??type_case_Z@?$output_processor@_WV?$stream_output_adapter@_W@__crt_stdio_output@@V?$positional_parameter_base@_WV?$stream_output_adapter@_W@__crt_stdio_output@@@2@@__crt_stdio_output@@AEAA_NXZ@@?$positional_parameter_base@_WV?$stream_output_adapter@_W@__crt_stdio_output@@@__crt_stdio_output@@CA?AW4parameter_type@01@PEAUansi_string@?1??type_case_Z@?$output_processor@_WV?$stream_output_adapter@_W@__crt_stdio_output@@V?$positional_parameter_base@_WV?$stream_output_adapter@_W@__crt_stdio_output@@@2@@1@AEAA_NXZ@@Z 000000014002dcd4 f i libucrt:output.obj
 0001:0002ccdc       ??$get_parameter_type@Uansi_string@?1??type_case_Z@?$output_processor@_WV?$string_output_adapter@_W@__crt_stdio_output@@V?$positional_parameter_base@_WV?$string_output_adapter@_W@__crt_stdio_output@@@2@@__crt_stdio_output@@AEAA_NXZ@@?$positional_parameter_base@_WV?$string_output_adapter@_W@__crt_stdio_output@@@__crt_stdio_output@@CA?AW4parameter_type@01@PEAUansi_string@?1??type_case_Z@?$output_processor@_WV?$string_output_adapter@_W@__crt_stdio_output@@V?$positional_parameter_base@_WV?$string_output_adapter@_W@__crt_stdio_output@@@2@@1@AEAA_NXZ@@Z 000000014002dcdc f i libucrt:output.obj
 0001:0002cce4       ??$get_parameter_type@X@?$positional_parameter_base@DV?$stream_output_adapter@D@__crt_stdio_output@@@__crt_stdio_output@@CA?AW4parameter_type@01@PEAX@Z 000000014002dce4 f i libucrt:output.obj
 0001:0002ccec       ??$get_parameter_type@X@?$positional_parameter_base@DV?$string_output_adapter@D@__crt_stdio_output@@@__crt_stdio_output@@CA?AW4parameter_type@01@PEAX@Z 000000014002dcec f i libucrt:output.obj
 0001:0002ccf4       ??$get_parameter_type@X@?$positional_parameter_base@_WV?$stream_output_adapter@_W@__crt_stdio_output@@@__crt_stdio_output@@CA?AW4parameter_type@01@PEAX@Z 000000014002dcf4 f i libucrt:output.obj
 0001:0002ccfc       ??$get_parameter_type@X@?$positional_parameter_base@_WV?$string_output_adapter@_W@__crt_stdio_output@@@__crt_stdio_output@@CA?AW4parameter_type@01@PEAX@Z 000000014002dcfc f i libucrt:output.obj
 0001:0002cd04       ??$is_character_specifier@D@?$positional_parameter_base@DV?$stream_output_adapter@D@__crt_stdio_output@@@__crt_stdio_output@@CA_ND@Z 000000014002dd04 f i libucrt:output.obj
 0001:0002cd10       ??$is_character_specifier@D@?$positional_parameter_base@DV?$string_output_adapter@D@__crt_stdio_output@@@__crt_stdio_output@@CA_ND@Z 000000014002dd10 f i libucrt:output.obj
 0001:0002cd1c       ??$is_character_specifier@_W@?$positional_parameter_base@_WV?$stream_output_adapter@_W@__crt_stdio_output@@@__crt_stdio_output@@CA_N_W@Z 000000014002dd1c f i libucrt:output.obj
 0001:0002cd30       ??$is_character_specifier@_W@?$positional_parameter_base@_WV?$string_output_adapter@_W@__crt_stdio_output@@@__crt_stdio_output@@CA_N_W@Z 000000014002dd30 f i libucrt:output.obj
 0001:0002cd44       ??$is_integral_specifier@D@?$positional_parameter_base@DV?$stream_output_adapter@D@__crt_stdio_output@@@__crt_stdio_output@@CA_ND@Z 000000014002dd44 f i libucrt:output.obj
 0001:0002cd70       ??$is_integral_specifier@D@?$positional_parameter_base@DV?$string_output_adapter@D@__crt_stdio_output@@@__crt_stdio_output@@CA_ND@Z 000000014002dd70 f i libucrt:output.obj
 0001:0002cd9c       ??$is_integral_specifier@_W@?$positional_parameter_base@_WV?$stream_output_adapter@_W@__crt_stdio_output@@@__crt_stdio_output@@CA_N_W@Z 000000014002dd9c f i libucrt:output.obj
 0001:0002cdcc       ??$is_integral_specifier@_W@?$positional_parameter_base@_WV?$string_output_adapter@_W@__crt_stdio_output@@@__crt_stdio_output@@CA_N_W@Z 000000014002ddcc f i libucrt:output.obj
 0001:0002cdfc       ??$is_overflow_condition@K@__crt_strtox@@YA_NIK@Z 000000014002ddfc f i libucrt:output.obj
 0001:0002ce2c       ??$is_pointer_specifier@D@?$positional_parameter_base@DV?$stream_output_adapter@D@__crt_stdio_output@@@__crt_stdio_output@@CA_ND@Z 000000014002de2c f i libucrt:output.obj
 0001:0002ce34       ??$is_pointer_specifier@D@?$positional_parameter_base@DV?$string_output_adapter@D@__crt_stdio_output@@@__crt_stdio_output@@CA_ND@Z 000000014002de34 f i libucrt:output.obj
 0001:0002ce3c       ??$is_pointer_specifier@_W@?$positional_parameter_base@_WV?$stream_output_adapter@_W@__crt_stdio_output@@@__crt_stdio_output@@CA_N_W@Z 000000014002de3c f i libucrt:output.obj
 0001:0002ce48       ??$is_pointer_specifier@_W@?$positional_parameter_base@_WV?$string_output_adapter@_W@__crt_stdio_output@@@__crt_stdio_output@@CA_N_W@Z 000000014002de48 f i libucrt:output.obj
 0001:0002ce54       ??$is_string_specifier@D@?$positional_parameter_base@DV?$stream_output_adapter@D@__crt_stdio_output@@@__crt_stdio_output@@CA_ND@Z 000000014002de54 f i libucrt:output.obj
 0001:0002ce60       ??$is_string_specifier@D@?$positional_parameter_base@DV?$string_output_adapter@D@__crt_stdio_output@@@__crt_stdio_output@@CA_ND@Z 000000014002de60 f i libucrt:output.obj
 0001:0002ce6c       ??$is_string_specifier@_W@?$positional_parameter_base@_WV?$stream_output_adapter@_W@__crt_stdio_output@@@__crt_stdio_output@@CA_N_W@Z 000000014002de6c f i libucrt:output.obj
 0001:0002ce80       ??$is_string_specifier@_W@?$positional_parameter_base@_WV?$string_output_adapter@_W@__crt_stdio_output@@@__crt_stdio_output@@CA_N_W@Z 000000014002de80 f i libucrt:output.obj
 0001:0002ce94       ??$is_wide_character_specifier@D@__crt_stdio_output@@YA_N_KDW4length_modifier@0@@Z 000000014002de94 f i libucrt:output.obj
 0001:0002cec8       ??$is_wide_character_specifier@_W@__crt_stdio_output@@YA_N_K_WW4length_modifier@0@@Z 000000014002dec8 f i libucrt:output.obj
 0001:0002cf18       ??$make_c_string_character_source@DPEAPEAD@__crt_strtox@@YA?AV?$c_string_character_source@D@0@QEBDQEAPEAD@Z 000000014002df18 f i libucrt:output.obj
 0001:0002cf30       ??$make_c_string_character_source@_WPEAPEA_W@__crt_strtox@@YA?AV?$c_string_character_source@_W@0@QEB_WQEAPEA_W@Z 000000014002df30 f i libucrt:output.obj
 0001:0002cf48       ??$parse_integer@KV?$c_string_character_source@D@__crt_strtox@@$0A@@__crt_strtox@@YAKAEAV__crt_cached_ptd_host@@V?$c_string_character_source@D@0@H_N@Z 000000014002df48 f i libucrt:output.obj
 0001:0002d2a4       ??$parse_integer@KV?$c_string_character_source@_W@__crt_strtox@@$0A@@__crt_strtox@@YAKAEAV__crt_cached_ptd_host@@V?$c_string_character_source@_W@0@H_N@Z 000000014002e2a4 f i libucrt:output.obj
 0001:0002dbd0       ??$peek_va_arg@C@__crt_stdio_output@@YACPEAD@Z 000000014002ebd0 f i libucrt:output.obj
 0001:0002dbd4       ??$peek_va_arg@E@__crt_stdio_output@@YAEPEAD@Z 000000014002ebd4 f i libucrt:output.obj
 0001:0002dbd8       ??$peek_va_arg@F@__crt_stdio_output@@YAFPEAD@Z 000000014002ebd8 f i libucrt:output.obj
 0001:0002dbdc       ??$peek_va_arg@G@__crt_stdio_output@@YAGPEAD@Z 000000014002ebdc f i libucrt:output.obj
 0001:0002dbe0       ??$peek_va_arg@H@__crt_stdio_output@@YAHPEAD@Z 000000014002ebe0 f i libucrt:output.obj
 0001:0002dbe4       ??$peek_va_arg@I@__crt_stdio_output@@YAIPEAD@Z 000000014002ebe4 f i libucrt:output.obj
 0001:0002dbe8       ??$peek_va_arg@PEAD@__crt_stdio_output@@YAPEADPEAD@Z 000000014002ebe8 f i libucrt:output.obj
 0001:0002dbec       ??$peek_va_arg@PEAUansi_string@?1??type_case_Z@?$output_processor@DV?$stream_output_adapter@D@__crt_stdio_output@@V?$positional_parameter_base@DV?$stream_output_adapter@D@__crt_stdio_output@@@2@@__crt_stdio_output@@AEAA_NXZ@@__crt_stdio_output@@YAPEAUansi_string@?1??type_case_Z@?$output_processor@DV?$stream_output_adapter@D@__crt_stdio_output@@V?$positional_parameter_base@DV?$stream_output_adapter@D@__crt_stdio_output@@@2@@0@AEAA_NXZ@PEAD@Z 000000014002ebec f i libucrt:output.obj
 0001:0002dbf0       ??$peek_va_arg@PEAUansi_string@?1??type_case_Z@?$output_processor@DV?$string_output_adapter@D@__crt_stdio_output@@V?$positional_parameter_base@DV?$string_output_adapter@D@__crt_stdio_output@@@2@@__crt_stdio_output@@AEAA_NXZ@@__crt_stdio_output@@YAPEAUansi_string@?1??type_case_Z@?$output_processor@DV?$string_output_adapter@D@__crt_stdio_output@@V?$positional_parameter_base@DV?$string_output_adapter@D@__crt_stdio_output@@@2@@0@AEAA_NXZ@PEAD@Z 000000014002ebf0 f i libucrt:output.obj
 0001:0002dbf4       ??$peek_va_arg@PEAUansi_string@?1??type_case_Z@?$output_processor@_WV?$stream_output_adapter@_W@__crt_stdio_output@@V?$positional_parameter_base@_WV?$stream_output_adapter@_W@__crt_stdio_output@@@2@@__crt_stdio_output@@AEAA_NXZ@@__crt_stdio_output@@YAPEAUansi_string@?1??type_case_Z@?$output_processor@_WV?$stream_output_adapter@_W@__crt_stdio_output@@V?$positional_parameter_base@_WV?$stream_output_adapter@_W@__crt_stdio_output@@@2@@0@AEAA_NXZ@PEAD@Z 000000014002ebf4 f i libucrt:output.obj
 0001:0002dbf8       ??$peek_va_arg@PEAUansi_string@?1??type_case_Z@?$output_processor@_WV?$string_output_adapter@_W@__crt_stdio_output@@V?$positional_parameter_base@_WV?$string_output_adapter@_W@__crt_stdio_output@@@2@@__crt_stdio_output@@AEAA_NXZ@@__crt_stdio_output@@YAPEAUansi_string@?1??type_case_Z@?$output_processor@_WV?$string_output_adapter@_W@__crt_stdio_output@@V?$positional_parameter_base@_WV?$string_output_adapter@_W@__crt_stdio_output@@@2@@0@AEAA_NXZ@PEAD@Z 000000014002ebf8 f i libucrt:output.obj
 0001:0002dbfc       ??$peek_va_arg@PEAX@__crt_stdio_output@@YAPEAXPEAD@Z 000000014002ebfc f i libucrt:output.obj
 0001:0002dc00       ??$peek_va_arg@U_CRT_DOUBLE@@@__crt_stdio_output@@YA?AU_CRT_DOUBLE@@PEAD@Z 000000014002ec00 f i libucrt:output.obj
 0001:0002dc04       ??$peek_va_arg@_J@__crt_stdio_output@@YA_JPEAD@Z 000000014002ec04 f i libucrt:output.obj
 0001:0002dc08       ??$peek_va_arg@_K@__crt_stdio_output@@YA_KPEAD@Z 000000014002ec08 f i libucrt:output.obj
 0001:0002dc0c       ??$peek_va_arg@_W@__crt_stdio_output@@YA_WPEAD@Z 000000014002ec0c f i libucrt:output.obj
 0001:0002dc10       ??$puttc_nolock_internal@AEBDPEAU_iobuf@@AEAV__crt_cached_ptd_host@@@?$__crt_char_traits@D@@SAHAEBD$$QEAPEAU_iobuf@@AEAV__crt_cached_ptd_host@@@Z 000000014002ec10 f i libucrt:output.obj
 0001:0002dc20       ??$puttc_nolock_internal@AEB_WPEAU_iobuf@@AEAV__crt_cached_ptd_host@@@?$__crt_char_traits@_W@@SAGAEB_W$$QEAPEAU_iobuf@@AEAV__crt_cached_ptd_host@@@Z 000000014002ec20 f i libucrt:output.obj
 0001:0002dc30       ??$read_va_arg@C@__crt_stdio_output@@YACAEAPEAD@Z 000000014002ec30 f i libucrt:output.obj
 0001:0002dc40       ??$read_va_arg@E@__crt_stdio_output@@YAEAEAPEAD@Z 000000014002ec40 f i libucrt:output.obj
 0001:0002dc50       ??$read_va_arg@F@__crt_stdio_output@@YAFAEAPEAD@Z 000000014002ec50 f i libucrt:output.obj
 0001:0002dc60       ??$read_va_arg@G@__crt_stdio_output@@YAGAEAPEAD@Z 000000014002ec60 f i libucrt:output.obj
 0001:0002dc70       ??$read_va_arg@H@__crt_stdio_output@@YAHAEAPEAD@Z 000000014002ec70 f i libucrt:output.obj
 0001:0002dc80       ??$read_va_arg@I@__crt_stdio_output@@YAIAEAPEAD@Z 000000014002ec80 f i libucrt:output.obj
 0001:0002dc90       ??$read_va_arg@PEAD@__crt_stdio_output@@YAPEADAEAPEAD@Z 000000014002ec90 f i libucrt:output.obj
 0001:0002dca0       ??$read_va_arg@PEAUansi_string@?1??type_case_Z@?$output_processor@DV?$stream_output_adapter@D@__crt_stdio_output@@V?$format_validation_base@DV?$stream_output_adapter@D@__crt_stdio_output@@@2@@__crt_stdio_output@@AEAA_NXZ@@__crt_stdio_output@@YAPEAUansi_string@?1??type_case_Z@?$output_processor@DV?$stream_output_adapter@D@__crt_stdio_output@@V?$format_validation_base@DV?$stream_output_adapter@D@__crt_stdio_output@@@2@@0@AEAA_NXZ@AEAPEAD@Z 000000014002eca0 f i libucrt:output.obj
 0001:0002dcb0       ??$read_va_arg@PEAUansi_string@?1??type_case_Z@?$output_processor@DV?$stream_output_adapter@D@__crt_stdio_output@@V?$positional_parameter_base@DV?$stream_output_adapter@D@__crt_stdio_output@@@2@@__crt_stdio_output@@AEAA_NXZ@@__crt_stdio_output@@YAPEAUansi_string@?1??type_case_Z@?$output_processor@DV?$stream_output_adapter@D@__crt_stdio_output@@V?$positional_parameter_base@DV?$stream_output_adapter@D@__crt_stdio_output@@@2@@0@AEAA_NXZ@AEAPEAD@Z 000000014002ecb0 f i libucrt:output.obj
 0001:0002dcc0       ??$read_va_arg@PEAUansi_string@?1??type_case_Z@?$output_processor@DV?$stream_output_adapter@D@__crt_stdio_output@@V?$standard_base@DV?$stream_output_adapter@D@__crt_stdio_output@@@2@@__crt_stdio_output@@AEAA_NXZ@@__crt_stdio_output@@YAPEAUansi_string@?1??type_case_Z@?$output_processor@DV?$stream_output_adapter@D@__crt_stdio_output@@V?$standard_base@DV?$stream_output_adapter@D@__crt_stdio_output@@@2@@0@AEAA_NXZ@AEAPEAD@Z 000000014002ecc0 f i libucrt:output.obj
 0001:0002dcd0       ??$read_va_arg@PEAUansi_string@?1??type_case_Z@?$output_processor@DV?$string_output_adapter@D@__crt_stdio_output@@V?$format_validation_base@DV?$string_output_adapter@D@__crt_stdio_output@@@2@@__crt_stdio_output@@AEAA_NXZ@@__crt_stdio_output@@YAPEAUansi_string@?1??type_case_Z@?$output_processor@DV?$string_output_adapter@D@__crt_stdio_output@@V?$format_validation_base@DV?$string_output_adapter@D@__crt_stdio_output@@@2@@0@AEAA_NXZ@AEAPEAD@Z 000000014002ecd0 f i libucrt:output.obj
 0001:0002dce0       ??$read_va_arg@PEAUansi_string@?1??type_case_Z@?$output_processor@DV?$string_output_adapter@D@__crt_stdio_output@@V?$positional_parameter_base@DV?$string_output_adapter@D@__crt_stdio_output@@@2@@__crt_stdio_output@@AEAA_NXZ@@__crt_stdio_output@@YAPEAUansi_string@?1??type_case_Z@?$output_processor@DV?$string_output_adapter@D@__crt_stdio_output@@V?$positional_parameter_base@DV?$string_output_adapter@D@__crt_stdio_output@@@2@@0@AEAA_NXZ@AEAPEAD@Z 000000014002ece0 f i libucrt:output.obj
 0001:0002dcf0       ??$read_va_arg@PEAUansi_string@?1??type_case_Z@?$output_processor@DV?$string_output_adapter@D@__crt_stdio_output@@V?$standard_base@DV?$string_output_adapter@D@__crt_stdio_output@@@2@@__crt_stdio_output@@AEAA_NXZ@@__crt_stdio_output@@YAPEAUansi_string@?1??type_case_Z@?$output_processor@DV?$string_output_adapter@D@__crt_stdio_output@@V?$standard_base@DV?$string_output_adapter@D@__crt_stdio_output@@@2@@0@AEAA_NXZ@AEAPEAD@Z 000000014002ecf0 f i libucrt:output.obj
 0001:0002dd00       ??$read_va_arg@PEAUansi_string@?1??type_case_Z@?$output_processor@_WV?$stream_output_adapter@_W@__crt_stdio_output@@V?$format_validation_base@_WV?$stream_output_adapter@_W@__crt_stdio_output@@@2@@__crt_stdio_output@@AEAA_NXZ@@__crt_stdio_output@@YAPEAUansi_string@?1??type_case_Z@?$output_processor@_WV?$stream_output_adapter@_W@__crt_stdio_output@@V?$format_validation_base@_WV?$stream_output_adapter@_W@__crt_stdio_output@@@2@@0@AEAA_NXZ@AEAPEAD@Z 000000014002ed00 f i libucrt:output.obj
 0001:0002dd10       ??$read_va_arg@PEAUansi_string@?1??type_case_Z@?$output_processor@_WV?$stream_output_adapter@_W@__crt_stdio_output@@V?$positional_parameter_base@_WV?$stream_output_adapter@_W@__crt_stdio_output@@@2@@__crt_stdio_output@@AEAA_NXZ@@__crt_stdio_output@@YAPEAUansi_string@?1??type_case_Z@?$output_processor@_WV?$stream_output_adapter@_W@__crt_stdio_output@@V?$positional_parameter_base@_WV?$stream_output_adapter@_W@__crt_stdio_output@@@2@@0@AEAA_NXZ@AEAPEAD@Z 000000014002ed10 f i libucrt:output.obj
 0001:0002dd20       ??$read_va_arg@PEAUansi_string@?1??type_case_Z@?$output_processor@_WV?$stream_output_adapter@_W@__crt_stdio_output@@V?$standard_base@_WV?$stream_output_adapter@_W@__crt_stdio_output@@@2@@__crt_stdio_output@@AEAA_NXZ@@__crt_stdio_output@@YAPEAUansi_string@?1??type_case_Z@?$output_processor@_WV?$stream_output_adapter@_W@__crt_stdio_output@@V?$standard_base@_WV?$stream_output_adapter@_W@__crt_stdio_output@@@2@@0@AEAA_NXZ@AEAPEAD@Z 000000014002ed20 f i libucrt:output.obj
 0001:0002dd30       ??$read_va_arg@PEAUansi_string@?1??type_case_Z@?$output_processor@_WV?$string_output_adapter@_W@__crt_stdio_output@@V?$format_validation_base@_WV?$string_output_adapter@_W@__crt_stdio_output@@@2@@__crt_stdio_output@@AEAA_NXZ@@__crt_stdio_output@@YAPEAUansi_string@?1??type_case_Z@?$output_processor@_WV?$string_output_adapter@_W@__crt_stdio_output@@V?$format_validation_base@_WV?$string_output_adapter@_W@__crt_stdio_output@@@2@@0@AEAA_NXZ@AEAPEAD@Z 000000014002ed30 f i libucrt:output.obj
 0001:0002dd40       ??$read_va_arg@PEAUansi_string@?1??type_case_Z@?$output_processor@_WV?$string_output_adapter@_W@__crt_stdio_output@@V?$positional_parameter_base@_WV?$string_output_adapter@_W@__crt_stdio_output@@@2@@__crt_stdio_output@@AEAA_NXZ@@__crt_stdio_output@@YAPEAUansi_string@?1??type_case_Z@?$output_processor@_WV?$string_output_adapter@_W@__crt_stdio_output@@V?$positional_parameter_base@_WV?$string_output_adapter@_W@__crt_stdio_output@@@2@@0@AEAA_NXZ@AEAPEAD@Z 000000014002ed40 f i libucrt:output.obj
 0001:0002dd50       ??$read_va_arg@PEAUansi_string@?1??type_case_Z@?$output_processor@_WV?$string_output_adapter@_W@__crt_stdio_output@@V?$standard_base@_WV?$string_output_adapter@_W@__crt_stdio_output@@@2@@__crt_stdio_output@@AEAA_NXZ@@__crt_stdio_output@@YAPEAUansi_string@?1??type_case_Z@?$output_processor@_WV?$string_output_adapter@_W@__crt_stdio_output@@V?$standard_base@_WV?$string_output_adapter@_W@__crt_stdio_output@@@2@@0@AEAA_NXZ@AEAPEAD@Z 000000014002ed50 f i libucrt:output.obj
 0001:0002dd60       ??$read_va_arg@PEAX@__crt_stdio_output@@YAPEAXAEAPEAD@Z 000000014002ed60 f i libucrt:output.obj
 0001:0002dd70       ??$read_va_arg@U_CRT_DOUBLE@@@__crt_stdio_output@@YA?AU_CRT_DOUBLE@@AEAPEAD@Z 000000014002ed70 f i libucrt:output.obj
 0001:0002dd84       ??$read_va_arg@_J@__crt_stdio_output@@YA_JAEAPEAD@Z 000000014002ed84 f i libucrt:output.obj
 0001:0002dd94       ??$read_va_arg@_K@__crt_stdio_output@@YA_KAEAPEAD@Z 000000014002ed94 f i libucrt:output.obj
 0001:0002dda4       ??$read_va_arg@_W@__crt_stdio_output@@YA_WAEAPEAD@Z 000000014002eda4 f i libucrt:output.obj
 0001:0002ddb4       ??$scratch_count@D@formatting_buffer@__crt_stdio_output@@QEBA_KXZ 000000014002edb4 f i libucrt:output.obj
 0001:0002ddd8       ??$scratch_data@D@formatting_buffer@__crt_stdio_output@@QEAAPEADXZ 000000014002edd8 f i libucrt:output.obj
 0001:0002de04       ??$type_case_integer@$07@?$output_processor@DV?$stream_output_adapter@D@__crt_stdio_output@@V?$format_validation_base@DV?$stream_output_adapter@D@__crt_stdio_output@@@2@@__crt_stdio_output@@AEAA_N_N@Z 000000014002ee04 f i libucrt:output.obj
 0001:0002e064       ??$type_case_integer@$07@?$output_processor@DV?$stream_output_adapter@D@__crt_stdio_output@@V?$positional_parameter_base@DV?$stream_output_adapter@D@__crt_stdio_output@@@2@@__crt_stdio_output@@AEAA_N_N@Z 000000014002f064 f i libucrt:output.obj
 0001:0002e318       ??$type_case_integer@$07@?$output_processor@DV?$stream_output_adapter@D@__crt_stdio_output@@V?$standard_base@DV?$stream_output_adapter@D@__crt_stdio_output@@@2@@__crt_stdio_output@@AEAA_N_N@Z 000000014002f318 f i libucrt:output.obj
 0001:0002e578       ??$type_case_integer@$07@?$output_processor@DV?$string_output_adapter@D@__crt_stdio_output@@V?$format_validation_base@DV?$string_output_adapter@D@__crt_stdio_output@@@2@@__crt_stdio_output@@AEAA_N_N@Z 000000014002f578 f i libucrt:output.obj
 0001:0002e7d8       ??$type_case_integer@$07@?$output_processor@DV?$string_output_adapter@D@__crt_stdio_output@@V?$positional_parameter_base@DV?$string_output_adapter@D@__crt_stdio_output@@@2@@__crt_stdio_output@@AEAA_N_N@Z 000000014002f7d8 f i libucrt:output.obj
 0001:0002ea8c       ??$type_case_integer@$07@?$output_processor@DV?$string_output_adapter@D@__crt_stdio_output@@V?$standard_base@DV?$string_output_adapter@D@__crt_stdio_output@@@2@@__crt_stdio_output@@AEAA_N_N@Z 000000014002fa8c f i libucrt:output.obj
 0001:0002ecec       ??$type_case_integer@$07@?$output_processor@_WV?$stream_output_adapter@_W@__crt_stdio_output@@V?$format_validation_base@_WV?$stream_output_adapter@_W@__crt_stdio_output@@@2@@__crt_stdio_output@@AEAA_N_N@Z 000000014002fcec f i libucrt:output.obj
 0001:0002ef54       ??$type_case_integer@$07@?$output_processor@_WV?$stream_output_adapter@_W@__crt_stdio_output@@V?$positional_parameter_base@_WV?$stream_output_adapter@_W@__crt_stdio_output@@@2@@__crt_stdio_output@@AEAA_N_N@Z 000000014002ff54 f i libucrt:output.obj
 0001:0002f210       ??$type_case_integer@$07@?$output_processor@_WV?$stream_output_adapter@_W@__crt_stdio_output@@V?$standard_base@_WV?$stream_output_adapter@_W@__crt_stdio_output@@@2@@__crt_stdio_output@@AEAA_N_N@Z 0000000140030210 f i libucrt:output.obj
 0001:0002f478       ??$type_case_integer@$07@?$output_processor@_WV?$string_output_adapter@_W@__crt_stdio_output@@V?$format_validation_base@_WV?$string_output_adapter@_W@__crt_stdio_output@@@2@@__crt_stdio_output@@AEAA_N_N@Z 0000000140030478 f i libucrt:output.obj
 0001:0002f6e0       ??$type_case_integer@$07@?$output_processor@_WV?$string_output_adapter@_W@__crt_stdio_output@@V?$positional_parameter_base@_WV?$string_output_adapter@_W@__crt_stdio_output@@@2@@__crt_stdio_output@@AEAA_N_N@Z 00000001400306e0 f i libucrt:output.obj
 0001:0002f99c       ??$type_case_integer@$07@?$output_processor@_WV?$string_output_adapter@_W@__crt_stdio_output@@V?$standard_base@_WV?$string_output_adapter@_W@__crt_stdio_output@@@2@@__crt_stdio_output@@AEAA_N_N@Z 000000014003099c f i libucrt:output.obj
 0001:0002fc04       ??$type_case_integer@$09@?$output_processor@DV?$stream_output_adapter@D@__crt_stdio_output@@V?$format_validation_base@DV?$stream_output_adapter@D@__crt_stdio_output@@@2@@__crt_stdio_output@@AEAA_N_N@Z 0000000140030c04 f i libucrt:output.obj
 0001:0002fe64       ??$type_case_integer@$09@?$output_processor@DV?$stream_output_adapter@D@__crt_stdio_output@@V?$positional_parameter_base@DV?$stream_output_adapter@D@__crt_stdio_output@@@2@@__crt_stdio_output@@AEAA_N_N@Z 0000000140030e64 f i libucrt:output.obj
 0001:00030118       ??$type_case_integer@$09@?$output_processor@DV?$stream_output_adapter@D@__crt_stdio_output@@V?$standard_base@DV?$stream_output_adapter@D@__crt_stdio_output@@@2@@__crt_stdio_output@@AEAA_N_N@Z 0000000140031118 f i libucrt:output.obj
 0001:00030378       ??$type_case_integer@$09@?$output_processor@DV?$string_output_adapter@D@__crt_stdio_output@@V?$format_validation_base@DV?$string_output_adapter@D@__crt_stdio_output@@@2@@__crt_stdio_output@@AEAA_N_N@Z 0000000140031378 f i libucrt:output.obj
 0001:000305d8       ??$type_case_integer@$09@?$output_processor@DV?$string_output_adapter@D@__crt_stdio_output@@V?$positional_parameter_base@DV?$string_output_adapter@D@__crt_stdio_output@@@2@@__crt_stdio_output@@AEAA_N_N@Z 00000001400315d8 f i libucrt:output.obj
 0001:0003088c       ??$type_case_integer@$09@?$output_processor@DV?$string_output_adapter@D@__crt_stdio_output@@V?$standard_base@DV?$string_output_adapter@D@__crt_stdio_output@@@2@@__crt_stdio_output@@AEAA_N_N@Z 000000014003188c f i libucrt:output.obj
 0001:00030aec       ??$type_case_integer@$09@?$output_processor@_WV?$stream_output_adapter@_W@__crt_stdio_output@@V?$format_validation_base@_WV?$stream_output_adapter@_W@__crt_stdio_output@@@2@@__crt_stdio_output@@AEAA_N_N@Z 0000000140031aec f i libucrt:output.obj
 0001:00030d54       ??$type_case_integer@$09@?$output_processor@_WV?$stream_output_adapter@_W@__crt_stdio_output@@V?$positional_parameter_base@_WV?$stream_output_adapter@_W@__crt_stdio_output@@@2@@__crt_stdio_output@@AEAA_N_N@Z 0000000140031d54 f i libucrt:output.obj
 0001:00031010       ??$type_case_integer@$09@?$output_processor@_WV?$stream_output_adapter@_W@__crt_stdio_output@@V?$standard_base@_WV?$stream_output_adapter@_W@__crt_stdio_output@@@2@@__crt_stdio_output@@AEAA_N_N@Z 0000000140032010 f i libucrt:output.obj
 0001:00031278       ??$type_case_integer@$09@?$output_processor@_WV?$string_output_adapter@_W@__crt_stdio_output@@V?$format_validation_base@_WV?$string_output_adapter@_W@__crt_stdio_output@@@2@@__crt_stdio_output@@AEAA_N_N@Z 0000000140032278 f i libucrt:output.obj
 0001:000314e0       ??$type_case_integer@$09@?$output_processor@_WV?$string_output_adapter@_W@__crt_stdio_output@@V?$positional_parameter_base@_WV?$string_output_adapter@_W@__crt_stdio_output@@@2@@__crt_stdio_output@@AEAA_N_N@Z 00000001400324e0 f i libucrt:output.obj
 0001:0003179c       ??$type_case_integer@$09@?$output_processor@_WV?$string_output_adapter@_W@__crt_stdio_output@@V?$standard_base@_WV?$string_output_adapter@_W@__crt_stdio_output@@@2@@__crt_stdio_output@@AEAA_N_N@Z 000000014003279c f i libucrt:output.obj
 0001:00031a04       ??$type_case_integer@$0BA@@?$output_processor@DV?$stream_output_adapter@D@__crt_stdio_output@@V?$format_validation_base@DV?$stream_output_adapter@D@__crt_stdio_output@@@2@@__crt_stdio_output@@AEAA_N_N@Z 0000000140032a04 f i libucrt:output.obj
 0001:00031c64       ??$type_case_integer@$0BA@@?$output_processor@DV?$stream_output_adapter@D@__crt_stdio_output@@V?$positional_parameter_base@DV?$stream_output_adapter@D@__crt_stdio_output@@@2@@__crt_stdio_output@@AEAA_N_N@Z 0000000140032c64 f i libucrt:output.obj
 0001:00031f18       ??$type_case_integer@$0BA@@?$output_processor@DV?$stream_output_adapter@D@__crt_stdio_output@@V?$standard_base@DV?$stream_output_adapter@D@__crt_stdio_output@@@2@@__crt_stdio_output@@AEAA_N_N@Z 0000000140032f18 f i libucrt:output.obj
 0001:00032178       ??$type_case_integer@$0BA@@?$output_processor@DV?$string_output_adapter@D@__crt_stdio_output@@V?$format_validation_base@DV?$string_output_adapter@D@__crt_stdio_output@@@2@@__crt_stdio_output@@AEAA_N_N@Z 0000000140033178 f i libucrt:output.obj
 0001:000323d8       ??$type_case_integer@$0BA@@?$output_processor@DV?$string_output_adapter@D@__crt_stdio_output@@V?$positional_parameter_base@DV?$string_output_adapter@D@__crt_stdio_output@@@2@@__crt_stdio_output@@AEAA_N_N@Z 00000001400333d8 f i libucrt:output.obj
 0001:0003268c       ??$type_case_integer@$0BA@@?$output_processor@DV?$string_output_adapter@D@__crt_stdio_output@@V?$standard_base@DV?$string_output_adapter@D@__crt_stdio_output@@@2@@__crt_stdio_output@@AEAA_N_N@Z 000000014003368c f i libucrt:output.obj
 0001:000328ec       ??$type_case_integer@$0BA@@?$output_processor@_WV?$stream_output_adapter@_W@__crt_stdio_output@@V?$format_validation_base@_WV?$stream_output_adapter@_W@__crt_stdio_output@@@2@@__crt_stdio_output@@AEAA_N_N@Z 00000001400338ec f i libucrt:output.obj
 0001:00032b54       ??$type_case_integer@$0BA@@?$output_processor@_WV?$stream_output_adapter@_W@__crt_stdio_output@@V?$positional_parameter_base@_WV?$stream_output_adapter@_W@__crt_stdio_output@@@2@@__crt_stdio_output@@AEAA_N_N@Z 0000000140033b54 f i libucrt:output.obj
 0001:00032e10       ??$type_case_integer@$0BA@@?$output_processor@_WV?$stream_output_adapter@_W@__crt_stdio_output@@V?$standard_base@_WV?$stream_output_adapter@_W@__crt_stdio_output@@@2@@__crt_stdio_output@@AEAA_N_N@Z 0000000140033e10 f i libucrt:output.obj
 0001:00033078       ??$type_case_integer@$0BA@@?$output_processor@_WV?$string_output_adapter@_W@__crt_stdio_output@@V?$format_validation_base@_WV?$string_output_adapter@_W@__crt_stdio_output@@@2@@__crt_stdio_output@@AEAA_N_N@Z 0000000140034078 f i libucrt:output.obj
 0001:000332e0       ??$type_case_integer@$0BA@@?$output_processor@_WV?$string_output_adapter@_W@__crt_stdio_output@@V?$positional_parameter_base@_WV?$string_output_adapter@_W@__crt_stdio_output@@@2@@__crt_stdio_output@@AEAA_N_N@Z 00000001400342e0 f i libucrt:output.obj
 0001:0003359c       ??$type_case_integer@$0BA@@?$output_processor@_WV?$string_output_adapter@_W@__crt_stdio_output@@V?$standard_base@_WV?$string_output_adapter@_W@__crt_stdio_output@@@2@@__crt_stdio_output@@AEAA_N_N@Z 000000014003459c f i libucrt:output.obj
 0001:00033804       ??$type_case_integer_parse_into_buffer@I$07@?$output_processor@DV?$stream_output_adapter@D@__crt_stdio_output@@V?$format_validation_base@DV?$stream_output_adapter@D@__crt_stdio_output@@@2@@__crt_stdio_output@@AEAAXI_N@Z 0000000140034804 f i libucrt:output.obj
 0001:0003389c       ??$type_case_integer_parse_into_buffer@I$07@?$output_processor@DV?$stream_output_adapter@D@__crt_stdio_output@@V?$positional_parameter_base@DV?$stream_output_adapter@D@__crt_stdio_output@@@2@@__crt_stdio_output@@AEAAXI_N@Z 000000014003489c f i libucrt:output.obj
 0001:00033934       ??$type_case_integer_parse_into_buffer@I$07@?$output_processor@DV?$stream_output_adapter@D@__crt_stdio_output@@V?$standard_base@DV?$stream_output_adapter@D@__crt_stdio_output@@@2@@__crt_stdio_output@@AEAAXI_N@Z 0000000140034934 f i libucrt:output.obj
 0001:000339cc       ??$type_case_integer_parse_into_buffer@I$07@?$output_processor@DV?$string_output_adapter@D@__crt_stdio_output@@V?$format_validation_base@DV?$string_output_adapter@D@__crt_stdio_output@@@2@@__crt_stdio_output@@AEAAXI_N@Z 00000001400349cc f i libucrt:output.obj
 0001:00033a64       ??$type_case_integer_parse_into_buffer@I$07@?$output_processor@DV?$string_output_adapter@D@__crt_stdio_output@@V?$positional_parameter_base@DV?$string_output_adapter@D@__crt_stdio_output@@@2@@__crt_stdio_output@@AEAAXI_N@Z 0000000140034a64 f i libucrt:output.obj
 0001:00033afc       ??$type_case_integer_parse_into_buffer@I$07@?$output_processor@DV?$string_output_adapter@D@__crt_stdio_output@@V?$standard_base@DV?$string_output_adapter@D@__crt_stdio_output@@@2@@__crt_stdio_output@@AEAAXI_N@Z 0000000140034afc f i libucrt:output.obj
 0001:00033b94       ??$type_case_integer_parse_into_buffer@I$07@?$output_processor@_WV?$stream_output_adapter@_W@__crt_stdio_output@@V?$format_validation_base@_WV?$stream_output_adapter@_W@__crt_stdio_output@@@2@@__crt_stdio_output@@AEAAXI_N@Z 0000000140034b94 f i libucrt:output.obj
 0001:00033c40       ??$type_case_integer_parse_into_buffer@I$07@?$output_processor@_WV?$stream_output_adapter@_W@__crt_stdio_output@@V?$positional_parameter_base@_WV?$stream_output_adapter@_W@__crt_stdio_output@@@2@@__crt_stdio_output@@AEAAXI_N@Z 0000000140034c40 f i libucrt:output.obj
 0001:00033cec       ??$type_case_integer_parse_into_buffer@I$07@?$output_processor@_WV?$stream_output_adapter@_W@__crt_stdio_output@@V?$standard_base@_WV?$stream_output_adapter@_W@__crt_stdio_output@@@2@@__crt_stdio_output@@AEAAXI_N@Z 0000000140034cec f i libucrt:output.obj
 0001:00033d98       ??$type_case_integer_parse_into_buffer@I$07@?$output_processor@_WV?$string_output_adapter@_W@__crt_stdio_output@@V?$format_validation_base@_WV?$string_output_adapter@_W@__crt_stdio_output@@@2@@__crt_stdio_output@@AEAAXI_N@Z 0000000140034d98 f i libucrt:output.obj
 0001:00033e44       ??$type_case_integer_parse_into_buffer@I$07@?$output_processor@_WV?$string_output_adapter@_W@__crt_stdio_output@@V?$positional_parameter_base@_WV?$string_output_adapter@_W@__crt_stdio_output@@@2@@__crt_stdio_output@@AEAAXI_N@Z 0000000140034e44 f i libucrt:output.obj
 0001:00033ef0       ??$type_case_integer_parse_into_buffer@I$07@?$output_processor@_WV?$string_output_adapter@_W@__crt_stdio_output@@V?$standard_base@_WV?$string_output_adapter@_W@__crt_stdio_output@@@2@@__crt_stdio_output@@AEAAXI_N@Z 0000000140034ef0 f i libucrt:output.obj
 0001:00033f9c       ??$type_case_integer_parse_into_buffer@I$09@?$output_processor@DV?$stream_output_adapter@D@__crt_stdio_output@@V?$format_validation_base@DV?$stream_output_adapter@D@__crt_stdio_output@@@2@@__crt_stdio_output@@AEAAXI_N@Z 0000000140034f9c f i libucrt:output.obj
 0001:0003406c       ??$type_case_integer_parse_into_buffer@I$09@?$output_processor@DV?$stream_output_adapter@D@__crt_stdio_output@@V?$positional_parameter_base@DV?$stream_output_adapter@D@__crt_stdio_output@@@2@@__crt_stdio_output@@AEAAXI_N@Z 000000014003506c f i libucrt:output.obj
 0001:0003413c       ??$type_case_integer_parse_into_buffer@I$09@?$output_processor@DV?$stream_output_adapter@D@__crt_stdio_output@@V?$standard_base@DV?$stream_output_adapter@D@__crt_stdio_output@@@2@@__crt_stdio_output@@AEAAXI_N@Z 000000014003513c f i libucrt:output.obj
 0001:0003420c       ??$type_case_integer_parse_into_buffer@I$09@?$output_processor@DV?$string_output_adapter@D@__crt_stdio_output@@V?$format_validation_base@DV?$string_output_adapter@D@__crt_stdio_output@@@2@@__crt_stdio_output@@AEAAXI_N@Z 000000014003520c f i libucrt:output.obj
 0001:000342dc       ??$type_case_integer_parse_into_buffer@I$09@?$output_processor@DV?$string_output_adapter@D@__crt_stdio_output@@V?$positional_parameter_base@DV?$string_output_adapter@D@__crt_stdio_output@@@2@@__crt_stdio_output@@AEAAXI_N@Z 00000001400352dc f i libucrt:output.obj
 0001:000343ac       ??$type_case_integer_parse_into_buffer@I$09@?$output_processor@DV?$string_output_adapter@D@__crt_stdio_output@@V?$standard_base@DV?$string_output_adapter@D@__crt_stdio_output@@@2@@__crt_stdio_output@@AEAAXI_N@Z 00000001400353ac f i libucrt:output.obj
 0001:0003447c       ??$type_case_integer_parse_into_buffer@I$09@?$output_processor@_WV?$stream_output_adapter@_W@__crt_stdio_output@@V?$format_validation_base@_WV?$stream_output_adapter@_W@__crt_stdio_output@@@2@@__crt_stdio_output@@AEAAXI_N@Z 000000014003547c f i libucrt:output.obj
 0001:00034560       ??$type_case_integer_parse_into_buffer@I$09@?$output_processor@_WV?$stream_output_adapter@_W@__crt_stdio_output@@V?$positional_parameter_base@_WV?$stream_output_adapter@_W@__crt_stdio_output@@@2@@__crt_stdio_output@@AEAAXI_N@Z 0000000140035560 f i libucrt:output.obj
 0001:00034644       ??$type_case_integer_parse_into_buffer@I$09@?$output_processor@_WV?$stream_output_adapter@_W@__crt_stdio_output@@V?$standard_base@_WV?$stream_output_adapter@_W@__crt_stdio_output@@@2@@__crt_stdio_output@@AEAAXI_N@Z 0000000140035644 f i libucrt:output.obj
 0001:00034728       ??$type_case_integer_parse_into_buffer@I$09@?$output_processor@_WV?$string_output_adapter@_W@__crt_stdio_output@@V?$format_validation_base@_WV?$string_output_adapter@_W@__crt_stdio_output@@@2@@__crt_stdio_output@@AEAAXI_N@Z 0000000140035728 f i libucrt:output.obj
 0001:0003480c       ??$type_case_integer_parse_into_buffer@I$09@?$output_processor@_WV?$string_output_adapter@_W@__crt_stdio_output@@V?$positional_parameter_base@_WV?$string_output_adapter@_W@__crt_stdio_output@@@2@@__crt_stdio_output@@AEAAXI_N@Z 000000014003580c f i libucrt:output.obj
 0001:000348f0       ??$type_case_integer_parse_into_buffer@I$09@?$output_processor@_WV?$string_output_adapter@_W@__crt_stdio_output@@V?$standard_base@_WV?$string_output_adapter@_W@__crt_stdio_output@@@2@@__crt_stdio_output@@AEAAXI_N@Z 00000001400358f0 f i libucrt:output.obj
 0001:000349d4       ??$type_case_integer_parse_into_buffer@I$0BA@@?$output_processor@DV?$stream_output_adapter@D@__crt_stdio_output@@V?$format_validation_base@DV?$stream_output_adapter@D@__crt_stdio_output@@@2@@__crt_stdio_output@@AEAAXI_N@Z 00000001400359d4 f i libucrt:output.obj
 0001:00034a84       ??$type_case_integer_parse_into_buffer@I$0BA@@?$output_processor@DV?$stream_output_adapter@D@__crt_stdio_output@@V?$positional_parameter_base@DV?$stream_output_adapter@D@__crt_stdio_output@@@2@@__crt_stdio_output@@AEAAXI_N@Z 0000000140035a84 f i libucrt:output.obj
 0001:00034b34       ??$type_case_integer_parse_into_buffer@I$0BA@@?$output_processor@DV?$stream_output_adapter@D@__crt_stdio_output@@V?$standard_base@DV?$stream_output_adapter@D@__crt_stdio_output@@@2@@__crt_stdio_output@@AEAAXI_N@Z 0000000140035b34 f i libucrt:output.obj
 0001:00034be4       ??$type_case_integer_parse_into_buffer@I$0BA@@?$output_processor@DV?$string_output_adapter@D@__crt_stdio_output@@V?$format_validation_base@DV?$string_output_adapter@D@__crt_stdio_output@@@2@@__crt_stdio_output@@AEAAXI_N@Z 0000000140035be4 f i libucrt:output.obj
 0001:00034c94       ??$type_case_integer_parse_into_buffer@I$0BA@@?$output_processor@DV?$string_output_adapter@D@__crt_stdio_output@@V?$positional_parameter_base@DV?$string_output_adapter@D@__crt_stdio_output@@@2@@__crt_stdio_output@@AEAAXI_N@Z 0000000140035c94 f i libucrt:output.obj
 0001:00034d44       ??$type_case_integer_parse_into_buffer@I$0BA@@?$output_processor@DV?$string_output_adapter@D@__crt_stdio_output@@V?$standard_base@DV?$string_output_adapter@D@__crt_stdio_output@@@2@@__crt_stdio_output@@AEAAXI_N@Z 0000000140035d44 f i libucrt:output.obj
 0001:00034df4       ??$type_case_integer_parse_into_buffer@I$0BA@@?$output_processor@_WV?$stream_output_adapter@_W@__crt_stdio_output@@V?$format_validation_base@_WV?$stream_output_adapter@_W@__crt_stdio_output@@@2@@__crt_stdio_output@@AEAAXI_N@Z 0000000140035df4 f i libucrt:output.obj
 0001:00034ec4       ??$type_case_integer_parse_into_buffer@I$0BA@@?$output_processor@_WV?$stream_output_adapter@_W@__crt_stdio_output@@V?$positional_parameter_base@_WV?$stream_output_adapter@_W@__crt_stdio_output@@@2@@__crt_stdio_output@@AEAAXI_N@Z 0000000140035ec4 f i libucrt:output.obj
 0001:00034f94       ??$type_case_integer_parse_into_buffer@I$0BA@@?$output_processor@_WV?$stream_output_adapter@_W@__crt_stdio_output@@V?$standard_base@_WV?$stream_output_adapter@_W@__crt_stdio_output@@@2@@__crt_stdio_output@@AEAAXI_N@Z 0000000140035f94 f i libucrt:output.obj
 0001:00035064       ??$type_case_integer_parse_into_buffer@I$0BA@@?$output_processor@_WV?$string_output_adapter@_W@__crt_stdio_output@@V?$format_validation_base@_WV?$string_output_adapter@_W@__crt_stdio_output@@@2@@__crt_stdio_output@@AEAAXI_N@Z 0000000140036064 f i libucrt:output.obj
 0001:00035134       ??$type_case_integer_parse_into_buffer@I$0BA@@?$output_processor@_WV?$string_output_adapter@_W@__crt_stdio_output@@V?$positional_parameter_base@_WV?$string_output_adapter@_W@__crt_stdio_output@@@2@@__crt_stdio_output@@AEAAXI_N@Z 0000000140036134 f i libucrt:output.obj
 0001:00035204       ??$type_case_integer_parse_into_buffer@I$0BA@@?$output_processor@_WV?$string_output_adapter@_W@__crt_stdio_output@@V?$standard_base@_WV?$string_output_adapter@_W@__crt_stdio_output@@@2@@__crt_stdio_output@@AEAAXI_N@Z 0000000140036204 f i libucrt:output.obj
 0001:000352d4       ??$type_case_integer_parse_into_buffer@_K$07@?$output_processor@DV?$stream_output_adapter@D@__crt_stdio_output@@V?$format_validation_base@DV?$stream_output_adapter@D@__crt_stdio_output@@@2@@__crt_stdio_output@@AEAAX_K_N@Z 00000001400362d4 f i libucrt:output.obj
 0001:0003536c       ??$type_case_integer_parse_into_buffer@_K$07@?$output_processor@DV?$stream_output_adapter@D@__crt_stdio_output@@V?$positional_parameter_base@DV?$stream_output_adapter@D@__crt_stdio_output@@@2@@__crt_stdio_output@@AEAAX_K_N@Z 000000014003636c f i libucrt:output.obj
 0001:00035404       ??$type_case_integer_parse_into_buffer@_K$07@?$output_processor@DV?$stream_output_adapter@D@__crt_stdio_output@@V?$standard_base@DV?$stream_output_adapter@D@__crt_stdio_output@@@2@@__crt_stdio_output@@AEAAX_K_N@Z 0000000140036404 f i libucrt:output.obj
 0001:0003549c       ??$type_case_integer_parse_into_buffer@_K$07@?$output_processor@DV?$string_output_adapter@D@__crt_stdio_output@@V?$format_validation_base@DV?$string_output_adapter@D@__crt_stdio_output@@@2@@__crt_stdio_output@@AEAAX_K_N@Z 000000014003649c f i libucrt:output.obj
 0001:00035534       ??$type_case_integer_parse_into_buffer@_K$07@?$output_processor@DV?$string_output_adapter@D@__crt_stdio_output@@V?$positional_parameter_base@DV?$string_output_adapter@D@__crt_stdio_output@@@2@@__crt_stdio_output@@AEAAX_K_N@Z 0000000140036534 f i libucrt:output.obj
 0001:000355cc       ??$type_case_integer_parse_into_buffer@_K$07@?$output_processor@DV?$string_output_adapter@D@__crt_stdio_output@@V?$standard_base@DV?$string_output_adapter@D@__crt_stdio_output@@@2@@__crt_stdio_output@@AEAAX_K_N@Z 00000001400365cc f i libucrt:output.obj
 0001:00035664       ??$type_case_integer_parse_into_buffer@_K$07@?$output_processor@_WV?$stream_output_adapter@_W@__crt_stdio_output@@V?$format_validation_base@_WV?$stream_output_adapter@_W@__crt_stdio_output@@@2@@__crt_stdio_output@@AEAAX_K_N@Z 0000000140036664 f i libucrt:output.obj
 0001:00035710       ??$type_case_integer_parse_into_buffer@_K$07@?$output_processor@_WV?$stream_output_adapter@_W@__crt_stdio_output@@V?$positional_parameter_base@_WV?$stream_output_adapter@_W@__crt_stdio_output@@@2@@__crt_stdio_output@@AEAAX_K_N@Z 0000000140036710 f i libucrt:output.obj
 0001:000357bc       ??$type_case_integer_parse_into_buffer@_K$07@?$output_processor@_WV?$stream_output_adapter@_W@__crt_stdio_output@@V?$standard_base@_WV?$stream_output_adapter@_W@__crt_stdio_output@@@2@@__crt_stdio_output@@AEAAX_K_N@Z 00000001400367bc f i libucrt:output.obj
 0001:00035868       ??$type_case_integer_parse_into_buffer@_K$07@?$output_processor@_WV?$string_output_adapter@_W@__crt_stdio_output@@V?$format_validation_base@_WV?$string_output_adapter@_W@__crt_stdio_output@@@2@@__crt_stdio_output@@AEAAX_K_N@Z 0000000140036868 f i libucrt:output.obj
 0001:00035914       ??$type_case_integer_parse_into_buffer@_K$07@?$output_processor@_WV?$string_output_adapter@_W@__crt_stdio_output@@V?$positional_parameter_base@_WV?$string_output_adapter@_W@__crt_stdio_output@@@2@@__crt_stdio_output@@AEAAX_K_N@Z 0000000140036914 f i libucrt:output.obj
 0001:000359c0       ??$type_case_integer_parse_into_buffer@_K$07@?$output_processor@_WV?$string_output_adapter@_W@__crt_stdio_output@@V?$standard_base@_WV?$string_output_adapter@_W@__crt_stdio_output@@@2@@__crt_stdio_output@@AEAAX_K_N@Z 00000001400369c0 f i libucrt:output.obj
 0001:00035a6c       ??$type_case_integer_parse_into_buffer@_K$09@?$output_processor@DV?$stream_output_adapter@D@__crt_stdio_output@@V?$format_validation_base@DV?$stream_output_adapter@D@__crt_stdio_output@@@2@@__crt_stdio_output@@AEAAX_K_N@Z 0000000140036a6c f i libucrt:output.obj
 0001:00035b44       ??$type_case_integer_parse_into_buffer@_K$09@?$output_processor@DV?$stream_output_adapter@D@__crt_stdio_output@@V?$positional_parameter_base@DV?$stream_output_adapter@D@__crt_stdio_output@@@2@@__crt_stdio_output@@AEAAX_K_N@Z 0000000140036b44 f i libucrt:output.obj
 0001:00035c1c       ??$type_case_integer_parse_into_buffer@_K$09@?$output_processor@DV?$stream_output_adapter@D@__crt_stdio_output@@V?$standard_base@DV?$stream_output_adapter@D@__crt_stdio_output@@@2@@__crt_stdio_output@@AEAAX_K_N@Z 0000000140036c1c f i libucrt:output.obj
 0001:00035cf4       ??$type_case_integer_parse_into_buffer@_K$09@?$output_processor@DV?$string_output_adapter@D@__crt_stdio_output@@V?$format_validation_base@DV?$string_output_adapter@D@__crt_stdio_output@@@2@@__crt_stdio_output@@AEAAX_K_N@Z 0000000140036cf4 f i libucrt:output.obj
 0001:00035dcc       ??$type_case_integer_parse_into_buffer@_K$09@?$output_processor@DV?$string_output_adapter@D@__crt_stdio_output@@V?$positional_parameter_base@DV?$string_output_adapter@D@__crt_stdio_output@@@2@@__crt_stdio_output@@AEAAX_K_N@Z 0000000140036dcc f i libucrt:output.obj
 0001:00035ea4       ??$type_case_integer_parse_into_buffer@_K$09@?$output_processor@DV?$string_output_adapter@D@__crt_stdio_output@@V?$standard_base@DV?$string_output_adapter@D@__crt_stdio_output@@@2@@__crt_stdio_output@@AEAAX_K_N@Z 0000000140036ea4 f i libucrt:output.obj
 0001:00035f7c       ??$type_case_integer_parse_into_buffer@_K$09@?$output_processor@_WV?$stream_output_adapter@_W@__crt_stdio_output@@V?$format_validation_base@_WV?$stream_output_adapter@_W@__crt_stdio_output@@@2@@__crt_stdio_output@@AEAAX_K_N@Z 0000000140036f7c f i libucrt:output.obj
 0001:00036068       ??$type_case_integer_parse_into_buffer@_K$09@?$output_processor@_WV?$stream_output_adapter@_W@__crt_stdio_output@@V?$positional_parameter_base@_WV?$stream_output_adapter@_W@__crt_stdio_output@@@2@@__crt_stdio_output@@AEAAX_K_N@Z 0000000140037068 f i libucrt:output.obj
 0001:00036154       ??$type_case_integer_parse_into_buffer@_K$09@?$output_processor@_WV?$stream_output_adapter@_W@__crt_stdio_output@@V?$standard_base@_WV?$stream_output_adapter@_W@__crt_stdio_output@@@2@@__crt_stdio_output@@AEAAX_K_N@Z 0000000140037154 f i libucrt:output.obj
 0001:00036240       ??$type_case_integer_parse_into_buffer@_K$09@?$output_processor@_WV?$string_output_adapter@_W@__crt_stdio_output@@V?$format_validation_base@_WV?$string_output_adapter@_W@__crt_stdio_output@@@2@@__crt_stdio_output@@AEAAX_K_N@Z 0000000140037240 f i libucrt:output.obj
 0001:0003632c       ??$type_case_integer_parse_into_buffer@_K$09@?$output_processor@_WV?$string_output_adapter@_W@__crt_stdio_output@@V?$positional_parameter_base@_WV?$string_output_adapter@_W@__crt_stdio_output@@@2@@__crt_stdio_output@@AEAAX_K_N@Z 000000014003732c f i libucrt:output.obj
 0001:00036418       ??$type_case_integer_parse_into_buffer@_K$09@?$output_processor@_WV?$string_output_adapter@_W@__crt_stdio_output@@V?$standard_base@_WV?$string_output_adapter@_W@__crt_stdio_output@@@2@@__crt_stdio_output@@AEAAX_K_N@Z 0000000140037418 f i libucrt:output.obj
 0001:00036504       ??$type_case_integer_parse_into_buffer@_K$0BA@@?$output_processor@DV?$stream_output_adapter@D@__crt_stdio_output@@V?$format_validation_base@DV?$stream_output_adapter@D@__crt_stdio_output@@@2@@__crt_stdio_output@@AEAAX_K_N@Z 0000000140037504 f i libucrt:output.obj
 0001:000365b4       ??$type_case_integer_parse_into_buffer@_K$0BA@@?$output_processor@DV?$stream_output_adapter@D@__crt_stdio_output@@V?$positional_parameter_base@DV?$stream_output_adapter@D@__crt_stdio_output@@@2@@__crt_stdio_output@@AEAAX_K_N@Z 00000001400375b4 f i libucrt:output.obj
 0001:00036664       ??$type_case_integer_parse_into_buffer@_K$0BA@@?$output_processor@DV?$stream_output_adapter@D@__crt_stdio_output@@V?$standard_base@DV?$stream_output_adapter@D@__crt_stdio_output@@@2@@__crt_stdio_output@@AEAAX_K_N@Z 0000000140037664 f i libucrt:output.obj
 0001:00036714       ??$type_case_integer_parse_into_buffer@_K$0BA@@?$output_processor@DV?$string_output_adapter@D@__crt_stdio_output@@V?$format_validation_base@DV?$string_output_adapter@D@__crt_stdio_output@@@2@@__crt_stdio_output@@AEAAX_K_N@Z 0000000140037714 f i libucrt:output.obj
 0001:000367c4       ??$type_case_integer_parse_into_buffer@_K$0BA@@?$output_processor@DV?$string_output_adapter@D@__crt_stdio_output@@V?$positional_parameter_base@DV?$string_output_adapter@D@__crt_stdio_output@@@2@@__crt_stdio_output@@AEAAX_K_N@Z 00000001400377c4 f i libucrt:output.obj
 0001:00036874       ??$type_case_integer_parse_into_buffer@_K$0BA@@?$output_processor@DV?$string_output_adapter@D@__crt_stdio_output@@V?$standard_base@DV?$string_output_adapter@D@__crt_stdio_output@@@2@@__crt_stdio_output@@AEAAX_K_N@Z 0000000140037874 f i libucrt:output.obj
 0001:00036924       ??$type_case_integer_parse_into_buffer@_K$0BA@@?$output_processor@_WV?$stream_output_adapter@_W@__crt_stdio_output@@V?$format_validation_base@_WV?$stream_output_adapter@_W@__crt_stdio_output@@@2@@__crt_stdio_output@@AEAAX_K_N@Z 0000000140037924 f i libucrt:output.obj
 0001:000369f4       ??$type_case_integer_parse_into_buffer@_K$0BA@@?$output_processor@_WV?$stream_output_adapter@_W@__crt_stdio_output@@V?$positional_parameter_base@_WV?$stream_output_adapter@_W@__crt_stdio_output@@@2@@__crt_stdio_output@@AEAAX_K_N@Z 00000001400379f4 f i libucrt:output.obj
 0001:00036ac4       ??$type_case_integer_parse_into_buffer@_K$0BA@@?$output_processor@_WV?$stream_output_adapter@_W@__crt_stdio_output@@V?$standard_base@_WV?$stream_output_adapter@_W@__crt_stdio_output@@@2@@__crt_stdio_output@@AEAAX_K_N@Z 0000000140037ac4 f i libucrt:output.obj
 0001:00036b94       ??$type_case_integer_parse_into_buffer@_K$0BA@@?$output_processor@_WV?$string_output_adapter@_W@__crt_stdio_output@@V?$format_validation_base@_WV?$string_output_adapter@_W@__crt_stdio_output@@@2@@__crt_stdio_output@@AEAAX_K_N@Z 0000000140037b94 f i libucrt:output.obj
 0001:00036c64       ??$type_case_integer_parse_into_buffer@_K$0BA@@?$output_processor@_WV?$string_output_adapter@_W@__crt_stdio_output@@V?$positional_parameter_base@_WV?$string_output_adapter@_W@__crt_stdio_output@@@2@@__crt_stdio_output@@AEAAX_K_N@Z 0000000140037c64 f i libucrt:output.obj
 0001:00036d34       ??$type_case_integer_parse_into_buffer@_K$0BA@@?$output_processor@_WV?$string_output_adapter@_W@__crt_stdio_output@@V?$standard_base@_WV?$string_output_adapter@_W@__crt_stdio_output@@@2@@__crt_stdio_output@@AEAAX_K_N@Z 0000000140037d34 f i libucrt:output.obj
 0001:00036e04       ??$write_multiple_characters@V?$stream_output_adapter@D@__crt_stdio_output@@D@__crt_stdio_output@@YAXAEBV?$stream_output_adapter@D@0@DHQEAHAEAV__crt_cached_ptd_host@@@Z 0000000140037e04 f i libucrt:output.obj
 0001:00036eb8       ??$write_multiple_characters@V?$stream_output_adapter@_W@__crt_stdio_output@@D@__crt_stdio_output@@YAXAEBV?$stream_output_adapter@_W@0@DHQEAHAEAV__crt_cached_ptd_host@@@Z 0000000140037eb8 f i libucrt:output.obj
 0001:00036f74       ??$write_multiple_characters@V?$string_output_adapter@D@__crt_stdio_output@@D@__crt_stdio_output@@YAXAEBV?$string_output_adapter@D@0@DHQEAHAEAV__crt_cached_ptd_host@@@Z 0000000140037f74 f i libucrt:output.obj
 0001:00037008       ??$write_multiple_characters@V?$string_output_adapter@_W@__crt_stdio_output@@D@__crt_stdio_output@@YAXAEBV?$string_output_adapter@_W@0@DHQEAHAEAV__crt_cached_ptd_host@@@Z 0000000140038008 f i libucrt:output.obj
 0001:00037234       ??0?$c_string_character_source@D@__crt_strtox@@QEAA@QEBDQEAPEBD@Z 0000000140038234 f i libucrt:output.obj
 0001:0003724c       ??0?$c_string_character_source@_W@__crt_strtox@@QEAA@QEB_WQEAPEB_W@Z 000000014003824c f i libucrt:output.obj
 0001:00037264       ??0?$cached@H@__crt_cached_ptd_host@@QEAA@XZ 0000000140038264 f i libucrt:output.obj
 0001:00037270       ??0?$cached@K@__crt_cached_ptd_host@@QEAA@XZ 0000000140038270 f i libucrt:output.obj
 0001:0003727c       ??0?$common_data@D@__crt_stdio_output@@IEAA@AEAV__crt_cached_ptd_host@@@Z 000000014003827c f i libucrt:output.obj
 0001:000372c4       ??0?$common_data@_W@__crt_stdio_output@@IEAA@AEAV__crt_cached_ptd_host@@@Z 00000001400382c4 f i libucrt:output.obj
 0001:00037310       ??0?$output_adapter_data@DV?$stream_output_adapter@D@__crt_stdio_output@@@__crt_stdio_output@@IEAA@AEBV?$stream_output_adapter@D@1@_KQEBDAEAV__crt_cached_ptd_host@@QEAD@Z 0000000140038310 f i libucrt:output.obj
 0001:00037388       ??0?$output_adapter_data@DV?$string_output_adapter@D@__crt_stdio_output@@@__crt_stdio_output@@IEAA@AEBV?$string_output_adapter@D@1@_KQEBDAEAV__crt_cached_ptd_host@@QEAD@Z 0000000140038388 f i libucrt:output.obj
 0001:00037400       ??0?$output_adapter_data@_WV?$stream_output_adapter@_W@__crt_stdio_output@@@__crt_stdio_output@@IEAA@AEBV?$stream_output_adapter@_W@1@_KQEB_WAEAV__crt_cached_ptd_host@@QEAD@Z 0000000140038400 f i libucrt:output.obj
 0001:00037480       ??0?$output_adapter_data@_WV?$string_output_adapter@_W@__crt_stdio_output@@@__crt_stdio_output@@IEAA@AEBV?$string_output_adapter@_W@1@_KQEB_WAEAV__crt_cached_ptd_host@@QEAD@Z 0000000140038480 f i libucrt:output.obj
 0001:00037500       ??0?$output_processor@DV?$stream_output_adapter@D@__crt_stdio_output@@V?$format_validation_base@DV?$stream_output_adapter@D@__crt_stdio_output@@@2@@__crt_stdio_output@@QEAA@AEBV?$stream_output_adapter@D@1@_KQEBDAEAV__crt_cached_ptd_host@@QEAD@Z 0000000140038500 f i libucrt:output.obj
 0001:00037580       ??0?$output_processor@DV?$stream_output_adapter@D@__crt_stdio_output@@V?$positional_parameter_base@DV?$stream_output_adapter@D@__crt_stdio_output@@@2@@__crt_stdio_output@@QEAA@AEBV?$stream_output_adapter@D@1@_KQEBDAEAV__crt_cached_ptd_host@@QEAD@Z 0000000140038580 f i libucrt:output.obj
 0001:00037628       ??0?$output_processor@DV?$stream_output_adapter@D@__crt_stdio_output@@V?$standard_base@DV?$stream_output_adapter@D@__crt_stdio_output@@@2@@__crt_stdio_output@@QEAA@AEBV?$stream_output_adapter@D@1@_KQEBDAEAV__crt_cached_ptd_host@@QEAD@Z 0000000140038628 f i libucrt:output.obj
 0001:000376a8       ??0?$output_processor@DV?$string_output_adapter@D@__crt_stdio_output@@V?$format_validation_base@DV?$string_output_adapter@D@__crt_stdio_output@@@2@@__crt_stdio_output@@QEAA@AEBV?$string_output_adapter@D@1@_KQEBDAEAV__crt_cached_ptd_host@@QEAD@Z 00000001400386a8 f i libucrt:output.obj
 0001:00037728       ??0?$output_processor@DV?$string_output_adapter@D@__crt_stdio_output@@V?$positional_parameter_base@DV?$string_output_adapter@D@__crt_stdio_output@@@2@@__crt_stdio_output@@QEAA@AEBV?$string_output_adapter@D@1@_KQEBDAEAV__crt_cached_ptd_host@@QEAD@Z 0000000140038728 f i libucrt:output.obj
 0001:000377d0       ??0?$output_processor@DV?$string_output_adapter@D@__crt_stdio_output@@V?$standard_base@DV?$string_output_adapter@D@__crt_stdio_output@@@2@@__crt_stdio_output@@QEAA@AEBV?$string_output_adapter@D@1@_KQEBDAEAV__crt_cached_ptd_host@@QEAD@Z 00000001400387d0 f i libucrt:output.obj
 0001:00037850       ??0?$output_processor@_WV?$stream_output_adapter@_W@__crt_stdio_output@@V?$format_validation_base@_WV?$stream_output_adapter@_W@__crt_stdio_output@@@2@@__crt_stdio_output@@QEAA@AEBV?$stream_output_adapter@_W@1@_KQEB_WAEAV__crt_cached_ptd_host@@QEAD@Z 0000000140038850 f i libucrt:output.obj
 0001:000378d8       ??0?$output_processor@_WV?$stream_output_adapter@_W@__crt_stdio_output@@V?$positional_parameter_base@_WV?$stream_output_adapter@_W@__crt_stdio_output@@@2@@__crt_stdio_output@@QEAA@AEBV?$stream_output_adapter@_W@1@_KQEB_WAEAV__crt_cached_ptd_host@@QEAD@Z 00000001400388d8 f i libucrt:output.obj
 0001:00037984       ??0?$output_processor@_WV?$stream_output_adapter@_W@__crt_stdio_output@@V?$standard_base@_WV?$stream_output_adapter@_W@__crt_stdio_output@@@2@@__crt_stdio_output@@QEAA@AEBV?$stream_output_adapter@_W@1@_KQEB_WAEAV__crt_cached_ptd_host@@QEAD@Z 0000000140038984 f i libucrt:output.obj
 0001:00037a0c       ??0?$output_processor@_WV?$string_output_adapter@_W@__crt_stdio_output@@V?$format_validation_base@_WV?$string_output_adapter@_W@__crt_stdio_output@@@2@@__crt_stdio_output@@QEAA@AEBV?$string_output_adapter@_W@1@_KQEB_WAEAV__crt_cached_ptd_host@@QEAD@Z 0000000140038a0c f i libucrt:output.obj
 0001:00037a94       ??0?$output_processor@_WV?$string_output_adapter@_W@__crt_stdio_output@@V?$positional_parameter_base@_WV?$string_output_adapter@_W@__crt_stdio_output@@@2@@__crt_stdio_output@@QEAA@AEBV?$string_output_adapter@_W@1@_KQEB_WAEAV__crt_cached_ptd_host@@QEAD@Z 0000000140038a94 f i libucrt:output.obj
 0001:00037b40       ??0?$output_processor@_WV?$string_output_adapter@_W@__crt_stdio_output@@V?$standard_base@_WV?$string_output_adapter@_W@__crt_stdio_output@@@2@@__crt_stdio_output@@QEAA@AEBV?$string_output_adapter@_W@1@_KQEB_WAEAV__crt_cached_ptd_host@@QEAD@Z 0000000140038b40 f i libucrt:output.obj
 0001:00037bc8       ??0?$stream_output_adapter@D@__crt_stdio_output@@QEAA@QEAU_iobuf@@@Z 0000000140038bc8 f i libucrt:output.obj
 0001:00037bd0       ??0?$stream_output_adapter@_W@__crt_stdio_output@@QEAA@QEAU_iobuf@@@Z 0000000140038bd0 f i libucrt:output.obj
 0001:00037bd8       ??0?$string_output_adapter@D@__crt_stdio_output@@QEAA@QEAU?$string_output_adapter_context@D@1@@Z 0000000140038bd8 f i libucrt:output.obj
 0001:00037be0       ??0?$string_output_adapter@_W@__crt_stdio_output@@QEAA@QEAU?$string_output_adapter_context@_W@1@@Z 0000000140038be0 f i libucrt:output.obj
 0001:00037be8       ??0__acrt_stdio_temporary_buffering_guard@@QEAA@QEAU_iobuf@@AEAV__crt_cached_ptd_host@@@Z 0000000140038be8 f i libucrt:output.obj
 0001:00037c20       ??0__crt_cached_ptd_host@@QEAA@QEAU__crt_locale_pointers@@@Z 0000000140038c20 f i libucrt:output.obj
 0001:00037c78       ??0__crt_scoped_get_last_error_reset@@QEAA@XZ 0000000140038c78 f i libucrt:output.obj
 0001:00037c98       ??0formatting_buffer@__crt_stdio_output@@QEAA@XZ 0000000140038c98 f i libucrt:output.obj
 0001:00037cb4       ??0guard@?$cached@H@__crt_cached_ptd_host@@QEAA@AEAU12@@Z 0000000140038cb4 f i libucrt:output.obj
 0001:00037ccc       ??1?$c_string_character_source@D@__crt_strtox@@QEAA@XZ 0000000140038ccc f i libucrt:output.obj
 0001:00037ce0       ??1?$c_string_character_source@_W@__crt_strtox@@QEAA@XZ 0000000140038ce0 f i libucrt:output.obj
 0001:00037cf4       ??1?$common_data@D@__crt_stdio_output@@QEAA@XZ 0000000140038cf4 f i libucrt:output.obj
 0001:00037d20       ??1?$common_data@_W@__crt_stdio_output@@QEAA@XZ 0000000140038d20 f i libucrt:output.obj
 0001:00037d4c       ??1?$format_validation_base@DV?$stream_output_adapter@D@__crt_stdio_output@@@__crt_stdio_output@@QEAA@XZ 0000000140038d4c f i libucrt:output.obj
 0001:00037d78       ??1?$format_validation_base@DV?$string_output_adapter@D@__crt_stdio_output@@@__crt_stdio_output@@QEAA@XZ 0000000140038d78 f i libucrt:output.obj
 0001:00037da4       ??1?$format_validation_base@_WV?$stream_output_adapter@_W@__crt_stdio_output@@@__crt_stdio_output@@QEAA@XZ 0000000140038da4 f i libucrt:output.obj
 0001:00037dd0       ??1?$format_validation_base@_WV?$string_output_adapter@_W@__crt_stdio_output@@@__crt_stdio_output@@QEAA@XZ 0000000140038dd0 f i libucrt:output.obj
 0001:00037dfc       ??1?$output_adapter_data@DV?$stream_output_adapter@D@__crt_stdio_output@@@__crt_stdio_output@@QEAA@XZ 0000000140038dfc f i libucrt:output.obj
 0001:00037e28       ??1?$output_adapter_data@DV?$string_output_adapter@D@__crt_stdio_output@@@__crt_stdio_output@@QEAA@XZ 0000000140038e28 f i libucrt:output.obj
 0001:00037e54       ??1?$output_adapter_data@_WV?$stream_output_adapter@_W@__crt_stdio_output@@@__crt_stdio_output@@QEAA@XZ 0000000140038e54 f i libucrt:output.obj
 0001:00037e80       ??1?$output_adapter_data@_WV?$string_output_adapter@_W@__crt_stdio_output@@@__crt_stdio_output@@QEAA@XZ 0000000140038e80 f i libucrt:output.obj
 0001:00037eac       ??1?$output_processor@DV?$stream_output_adapter@D@__crt_stdio_output@@V?$format_validation_base@DV?$stream_output_adapter@D@__crt_stdio_output@@@2@@__crt_stdio_output@@QEAA@XZ 0000000140038eac f i libucrt:output.obj
 0001:00037ed8       ??1?$output_processor@DV?$stream_output_adapter@D@__crt_stdio_output@@V?$positional_parameter_base@DV?$stream_output_adapter@D@__crt_stdio_output@@@2@@__crt_stdio_output@@QEAA@XZ 0000000140038ed8 f i libucrt:output.obj
 0001:00037f04       ??1?$output_processor@DV?$stream_output_adapter@D@__crt_stdio_output@@V?$standard_base@DV?$stream_output_adapter@D@__crt_stdio_output@@@2@@__crt_stdio_output@@QEAA@XZ 0000000140038f04 f i libucrt:output.obj
 0001:00037f30       ??1?$output_processor@DV?$string_output_adapter@D@__crt_stdio_output@@V?$format_validation_base@DV?$string_output_adapter@D@__crt_stdio_output@@@2@@__crt_stdio_output@@QEAA@XZ 0000000140038f30 f i libucrt:output.obj
 0001:00037f5c       ??1?$output_processor@DV?$string_output_adapter@D@__crt_stdio_output@@V?$positional_parameter_base@DV?$string_output_adapter@D@__crt_stdio_output@@@2@@__crt_stdio_output@@QEAA@XZ 0000000140038f5c f i libucrt:output.obj
 0001:00037f88       ??1?$output_processor@DV?$string_output_adapter@D@__crt_stdio_output@@V?$standard_base@DV?$string_output_adapter@D@__crt_stdio_output@@@2@@__crt_stdio_output@@QEAA@XZ 0000000140038f88 f i libucrt:output.obj
 0001:00037fb4       ??1?$output_processor@_WV?$stream_output_adapter@_W@__crt_stdio_output@@V?$format_validation_base@_WV?$stream_output_adapter@_W@__crt_stdio_output@@@2@@__crt_stdio_output@@QEAA@XZ 0000000140038fb4 f i libucrt:output.obj
 0001:00037fe0       ??1?$output_processor@_WV?$stream_output_adapter@_W@__crt_stdio_output@@V?$positional_parameter_base@_WV?$stream_output_adapter@_W@__crt_stdio_output@@@2@@__crt_stdio_output@@QEAA@XZ 0000000140038fe0 f i libucrt:output.obj
 0001:0003800c       ??1?$output_processor@_WV?$stream_output_adapter@_W@__crt_stdio_output@@V?$standard_base@_WV?$stream_output_adapter@_W@__crt_stdio_output@@@2@@__crt_stdio_output@@QEAA@XZ 000000014003900c f i libucrt:output.obj
 0001:00038038       ??1?$output_processor@_WV?$string_output_adapter@_W@__crt_stdio_output@@V?$format_validation_base@_WV?$string_output_adapter@_W@__crt_stdio_output@@@2@@__crt_stdio_output@@QEAA@XZ 0000000140039038 f i libucrt:output.obj
 0001:00038064       ??1?$output_processor@_WV?$string_output_adapter@_W@__crt_stdio_output@@V?$positional_parameter_base@_WV?$string_output_adapter@_W@__crt_stdio_output@@@2@@__crt_stdio_output@@QEAA@XZ 0000000140039064 f i libucrt:output.obj
 0001:00038090       ??1?$output_processor@_WV?$string_output_adapter@_W@__crt_stdio_output@@V?$standard_base@_WV?$string_output_adapter@_W@__crt_stdio_output@@@2@@__crt_stdio_output@@QEAA@XZ 0000000140039090 f i libucrt:output.obj
 0001:000380bc       ??1?$positional_parameter_base@DV?$stream_output_adapter@D@__crt_stdio_output@@@__crt_stdio_output@@QEAA@XZ 00000001400390bc f i libucrt:output.obj
 0001:000380e8       ??1?$positional_parameter_base@DV?$string_output_adapter@D@__crt_stdio_output@@@__crt_stdio_output@@QEAA@XZ 00000001400390e8 f i libucrt:output.obj
 0001:00038114       ??1?$positional_parameter_base@_WV?$stream_output_adapter@_W@__crt_stdio_output@@@__crt_stdio_output@@QEAA@XZ 0000000140039114 f i libucrt:output.obj
 0001:00038140       ??1?$positional_parameter_base@_WV?$string_output_adapter@_W@__crt_stdio_output@@@__crt_stdio_output@@QEAA@XZ 0000000140039140 f i libucrt:output.obj
 0001:0003816c       ??1?$standard_base@DV?$stream_output_adapter@D@__crt_stdio_output@@@__crt_stdio_output@@QEAA@XZ 000000014003916c f i libucrt:output.obj
 0001:00038198       ??1?$standard_base@DV?$string_output_adapter@D@__crt_stdio_output@@@__crt_stdio_output@@QEAA@XZ 0000000140039198 f i libucrt:output.obj
 0001:000381c4       ??1?$standard_base@_WV?$stream_output_adapter@_W@__crt_stdio_output@@@__crt_stdio_output@@QEAA@XZ 00000001400391c4 f i libucrt:output.obj
 0001:000381f0       ??1?$standard_base@_WV?$string_output_adapter@_W@__crt_stdio_output@@@__crt_stdio_output@@QEAA@XZ 00000001400391f0 f i libucrt:output.obj
 0001:0003821c       ??1__acrt_stdio_temporary_buffering_guard@@QEAA@XZ 000000014003921c f i libucrt:output.obj
 0001:00038230       ??1__crt_cached_ptd_host@@QEAA@XZ 0000000140039230 f i libucrt:output.obj
 0001:00038294       ??1__crt_scoped_get_last_error_reset@@QEAA@XZ 0000000140039294 f i libucrt:output.obj
 0001:000382a0       ??1formatting_buffer@__crt_stdio_output@@QEAA@XZ 00000001400392a0 f i libucrt:output.obj
 0001:000382cc       ??1guard@?$cached@H@__crt_cached_ptd_host@@QEAA@XZ 00000001400392cc f i libucrt:output.obj
 0001:000382e4       ??4?$__crt_unique_heap_ptr@DU__crt_internal_free_policy@@@@QEAAAEAV0@$$QEAV0@@Z 00000001400392e4 f i libucrt:output.obj
 0001:00038328       ??A?$spectre_mitigated_lookup_table@Ustate_transition_pair@__crt_stdio_output@@$0IA@@__crt_stdio_output@@QEBAAEBUstate_transition_pair@1@_K@Z 0000000140039328 f i libucrt:output.obj
 0001:00038c64       ?adjust_hexit@?$output_processor@DV?$stream_output_adapter@D@__crt_stdio_output@@V?$format_validation_base@DV?$stream_output_adapter@D@__crt_stdio_output@@@2@@__crt_stdio_output@@CADH_N@Z 0000000140039c64 f i libucrt:output.obj
 0001:00038c74       ?adjust_hexit@?$output_processor@DV?$stream_output_adapter@D@__crt_stdio_output@@V?$positional_parameter_base@DV?$stream_output_adapter@D@__crt_stdio_output@@@2@@__crt_stdio_output@@CADH_N@Z 0000000140039c74 f i libucrt:output.obj
 0001:00038c84       ?adjust_hexit@?$output_processor@DV?$stream_output_adapter@D@__crt_stdio_output@@V?$standard_base@DV?$stream_output_adapter@D@__crt_stdio_output@@@2@@__crt_stdio_output@@CADH_N@Z 0000000140039c84 f i libucrt:output.obj
 0001:00038c94       ?adjust_hexit@?$output_processor@DV?$string_output_adapter@D@__crt_stdio_output@@V?$format_validation_base@DV?$string_output_adapter@D@__crt_stdio_output@@@2@@__crt_stdio_output@@CADH_N@Z 0000000140039c94 f i libucrt:output.obj
 0001:00038ca4       ?adjust_hexit@?$output_processor@DV?$string_output_adapter@D@__crt_stdio_output@@V?$positional_parameter_base@DV?$string_output_adapter@D@__crt_stdio_output@@@2@@__crt_stdio_output@@CADH_N@Z 0000000140039ca4 f i libucrt:output.obj
 0001:00038cb4       ?adjust_hexit@?$output_processor@DV?$string_output_adapter@D@__crt_stdio_output@@V?$standard_base@DV?$string_output_adapter@D@__crt_stdio_output@@@2@@__crt_stdio_output@@CADH_N@Z 0000000140039cb4 f i libucrt:output.obj
 0001:00038cc4       ?adjust_hexit@?$output_processor@_WV?$stream_output_adapter@_W@__crt_stdio_output@@V?$format_validation_base@_WV?$stream_output_adapter@_W@__crt_stdio_output@@@2@@__crt_stdio_output@@CADH_N@Z 0000000140039cc4 f i libucrt:output.obj
 0001:00038cd4       ?adjust_hexit@?$output_processor@_WV?$stream_output_adapter@_W@__crt_stdio_output@@V?$positional_parameter_base@_WV?$stream_output_adapter@_W@__crt_stdio_output@@@2@@__crt_stdio_output@@CADH_N@Z 0000000140039cd4 f i libucrt:output.obj
 0001:00038ce4       ?adjust_hexit@?$output_processor@_WV?$stream_output_adapter@_W@__crt_stdio_output@@V?$standard_base@_WV?$stream_output_adapter@_W@__crt_stdio_output@@@2@@__crt_stdio_output@@CADH_N@Z 0000000140039ce4 f i libucrt:output.obj
 0001:00038cf4       ?adjust_hexit@?$output_processor@_WV?$string_output_adapter@_W@__crt_stdio_output@@V?$format_validation_base@_WV?$string_output_adapter@_W@__crt_stdio_output@@@2@@__crt_stdio_output@@CADH_N@Z 0000000140039cf4 f i libucrt:output.obj
 0001:00038d04       ?adjust_hexit@?$output_processor@_WV?$string_output_adapter@_W@__crt_stdio_output@@V?$positional_parameter_base@_WV?$string_output_adapter@_W@__crt_stdio_output@@@2@@__crt_stdio_output@@CADH_N@Z 0000000140039d04 f i libucrt:output.obj
 0001:00038d14       ?adjust_hexit@?$output_processor@_WV?$string_output_adapter@_W@__crt_stdio_output@@V?$standard_base@_WV?$string_output_adapter@_W@__crt_stdio_output@@@2@@__crt_stdio_output@@CADH_N@Z 0000000140039d14 f i libucrt:output.obj
 0001:00038d24       ?advance_to_next_pass@?$positional_parameter_base@DV?$stream_output_adapter@D@__crt_stdio_output@@@__crt_stdio_output@@IEAA_NXZ 0000000140039d24 f i libucrt:output.obj
 0001:00038d88       ?advance_to_next_pass@?$positional_parameter_base@DV?$string_output_adapter@D@__crt_stdio_output@@@__crt_stdio_output@@IEAA_NXZ 0000000140039d88 f i libucrt:output.obj
 0001:00038dec       ?advance_to_next_pass@?$positional_parameter_base@_WV?$stream_output_adapter@_W@__crt_stdio_output@@@__crt_stdio_output@@IEAA_NXZ 0000000140039dec f i libucrt:output.obj
 0001:00038e50       ?advance_to_next_pass@?$positional_parameter_base@_WV?$string_output_adapter@_W@__crt_stdio_output@@@__crt_stdio_output@@IEAA_NXZ 0000000140039e50 f i libucrt:output.obj
 0001:00038eb4       ?advance_to_next_pass@?$standard_base@DV?$stream_output_adapter@D@__crt_stdio_output@@@__crt_stdio_output@@IEAA_NXZ 0000000140039eb4 f i libucrt:output.obj
 0001:00038ecc       ?advance_to_next_pass@?$standard_base@DV?$string_output_adapter@D@__crt_stdio_output@@@__crt_stdio_output@@IEAA_NXZ 0000000140039ecc f i libucrt:output.obj
 0001:00038ee4       ?advance_to_next_pass@?$standard_base@_WV?$stream_output_adapter@_W@__crt_stdio_output@@@__crt_stdio_output@@IEAA_NXZ 0000000140039ee4 f i libucrt:output.obj
 0001:00038efc       ?advance_to_next_pass@?$standard_base@_WV?$string_output_adapter@_W@__crt_stdio_output@@@__crt_stdio_output@@IEAA_NXZ 0000000140039efc f i libucrt:output.obj
 0001:00038f14       ?check@?$cached@H@__crt_cached_ptd_host@@QEBA_NH@Z 0000000140039f14 f i libucrt:output.obj
 0001:00038f30       ?check_synchronize_global_state_index@__crt_cached_ptd_host@@AEAA_KAEBV__crt_scoped_get_last_error_reset@@@Z 0000000140039f30 f i libucrt:output.obj
 0001:00038f50       ?check_synchronize_per_thread_data@__crt_cached_ptd_host@@AEAAPEAU__acrt_ptd@@XZ 0000000140039f50 f i libucrt:output.obj
 0001:00038fd0       ?create_guard@?$cached@H@__crt_cached_ptd_host@@QEAA?AVguard@12@XZ 0000000140039fd0 f i libucrt:output.obj
 0001:00038fe8       ?crop_zeroes@__crt_stdio_output@@YAXPEADQEAU__crt_locale_pointers@@@Z 0000000140039fe8 f i libucrt:output.obj
 0001:0003906c       ?disable@guard@?$cached@H@__crt_cached_ptd_host@@QEAAXXZ 000000014003a06c f i libucrt:output.obj
 0001:00039074       ?enable@guard@?$cached@H@__crt_cached_ptd_host@@QEAAXXZ 000000014003a074 f i libucrt:output.obj
 0001:0003907c       ?find_next_state@?$output_processor@DV?$stream_output_adapter@D@__crt_stdio_output@@V?$format_validation_base@DV?$stream_output_adapter@D@__crt_stdio_output@@@2@@__crt_stdio_output@@AEBA?AW4state@2@DW432@@Z 000000014003a07c f i libucrt:output.obj
 0001:000390c0       ?find_next_state@?$output_processor@DV?$stream_output_adapter@D@__crt_stdio_output@@V?$positional_parameter_base@DV?$stream_output_adapter@D@__crt_stdio_output@@@2@@__crt_stdio_output@@AEBA?AW4state@2@DW432@@Z 000000014003a0c0 f i libucrt:output.obj
 0001:00039104       ?find_next_state@?$output_processor@DV?$stream_output_adapter@D@__crt_stdio_output@@V?$standard_base@DV?$stream_output_adapter@D@__crt_stdio_output@@@2@@__crt_stdio_output@@AEBA?AW4state@2@DW432@@Z 000000014003a104 f i libucrt:output.obj
 0001:00039148       ?find_next_state@?$output_processor@DV?$string_output_adapter@D@__crt_stdio_output@@V?$format_validation_base@DV?$string_output_adapter@D@__crt_stdio_output@@@2@@__crt_stdio_output@@AEBA?AW4state@2@DW432@@Z 000000014003a148 f i libucrt:output.obj
 0001:0003918c       ?find_next_state@?$output_processor@DV?$string_output_adapter@D@__crt_stdio_output@@V?$positional_parameter_base@DV?$string_output_adapter@D@__crt_stdio_output@@@2@@__crt_stdio_output@@AEBA?AW4state@2@DW432@@Z 000000014003a18c f i libucrt:output.obj
 0001:000391d0       ?find_next_state@?$output_processor@DV?$string_output_adapter@D@__crt_stdio_output@@V?$standard_base@DV?$string_output_adapter@D@__crt_stdio_output@@@2@@__crt_stdio_output@@AEBA?AW4state@2@DW432@@Z 000000014003a1d0 f i libucrt:output.obj
 0001:00039214       ?find_next_state@?$output_processor@_WV?$stream_output_adapter@_W@__crt_stdio_output@@V?$format_validation_base@_WV?$stream_output_adapter@_W@__crt_stdio_output@@@2@@__crt_stdio_output@@AEBA?AW4state@2@_WW432@@Z 000000014003a214 f i libucrt:output.obj
 0001:00039264       ?find_next_state@?$output_processor@_WV?$stream_output_adapter@_W@__crt_stdio_output@@V?$positional_parameter_base@_WV?$stream_output_adapter@_W@__crt_stdio_output@@@2@@__crt_stdio_output@@AEBA?AW4state@2@_WW432@@Z 000000014003a264 f i libucrt:output.obj
 0001:000392b4       ?find_next_state@?$output_processor@_WV?$stream_output_adapter@_W@__crt_stdio_output@@V?$standard_base@_WV?$stream_output_adapter@_W@__crt_stdio_output@@@2@@__crt_stdio_output@@AEBA?AW4state@2@_WW432@@Z 000000014003a2b4 f i libucrt:output.obj
 0001:00039300       ?find_next_state@?$output_processor@_WV?$string_output_adapter@_W@__crt_stdio_output@@V?$format_validation_base@_WV?$string_output_adapter@_W@__crt_stdio_output@@@2@@__crt_stdio_output@@AEBA?AW4state@2@_WW432@@Z 000000014003a300 f i libucrt:output.obj
 0001:00039350       ?find_next_state@?$output_processor@_WV?$string_output_adapter@_W@__crt_stdio_output@@V?$positional_parameter_base@_WV?$string_output_adapter@_W@__crt_stdio_output@@@2@@__crt_stdio_output@@AEBA?AW4state@2@_WW432@@Z 000000014003a350 f i libucrt:output.obj
 0001:000393a0       ?find_next_state@?$output_processor@_WV?$string_output_adapter@_W@__crt_stdio_output@@V?$standard_base@_WV?$string_output_adapter@_W@__crt_stdio_output@@@2@@__crt_stdio_output@@AEBA?AW4state@2@_WW432@@Z 000000014003a3a0 f i libucrt:output.obj
 0001:000393ec       ?force_decimal_point@__crt_stdio_output@@YAXPEADQEAU__crt_locale_pointers@@@Z 000000014003a3ec f i libucrt:output.obj
 0001:00039470       ?force_synchronize_global_state_index@__crt_cached_ptd_host@@AEAA_KAEBV__crt_scoped_get_last_error_reset@@@Z 000000014003a470 f i libucrt:output.obj
 0001:00039490       ?force_synchronize_per_thread_data@__crt_cached_ptd_host@@AEAAPEAU__acrt_ptd@@XZ 000000014003a490 f i libucrt:output.obj
 0001:000394fc       ?get@?$c_string_character_source@D@__crt_strtox@@QEAADXZ 000000014003a4fc f i libucrt:output.obj
 0001:0003950c       ?get@?$c_string_character_source@_W@__crt_strtox@@QEAA_WXZ 000000014003a50c f i libucrt:output.obj
 0001:00039520       ?get_current_state_index@__crt_state_management@@YA_KAEBV__crt_scoped_get_last_error_reset@@@Z 000000014003a520 f i libucrt:output.obj
 0001:00039530       ?get_errno@__crt_cached_ptd_host@@QEAAAEAU?$cached@H@1@XZ 000000014003a530 f i libucrt:output.obj
 0001:00039540       ?get_locale@__crt_cached_ptd_host@@QEAAPEAU__crt_locale_pointers@@XZ 000000014003a540 f i libucrt:output.obj
 0001:00039574       ?get_parameter_type@?$positional_parameter_base@DV?$stream_output_adapter@D@__crt_stdio_output@@@__crt_stdio_output@@CA?AW4parameter_type@12@F@Z 000000014003a574 f i libucrt:output.obj
 0001:0003957c       ?get_parameter_type@?$positional_parameter_base@DV?$stream_output_adapter@D@__crt_stdio_output@@@__crt_stdio_output@@CA?AW4parameter_type@12@G@Z 000000014003a57c f i libucrt:output.obj
 0001:00039584       ?get_parameter_type@?$positional_parameter_base@DV?$stream_output_adapter@D@__crt_stdio_output@@@__crt_stdio_output@@CA?AW4parameter_type@12@H@Z 000000014003a584 f i libucrt:output.obj
 0001:0003958c       ?get_parameter_type@?$positional_parameter_base@DV?$stream_output_adapter@D@__crt_stdio_output@@@__crt_stdio_output@@CA?AW4parameter_type@12@I@Z 000000014003a58c f i libucrt:output.obj
 0001:00039594       ?get_parameter_type@?$positional_parameter_base@DV?$stream_output_adapter@D@__crt_stdio_output@@@__crt_stdio_output@@CA?AW4parameter_type@12@U_CRT_DOUBLE@@@Z 000000014003a594 f i libucrt:output.obj
 0001:0003959c       ?get_parameter_type@?$positional_parameter_base@DV?$stream_output_adapter@D@__crt_stdio_output@@@__crt_stdio_output@@CA?AW4parameter_type@12@_J@Z 000000014003a59c f i libucrt:output.obj
 0001:000395a4       ?get_parameter_type@?$positional_parameter_base@DV?$stream_output_adapter@D@__crt_stdio_output@@@__crt_stdio_output@@CA?AW4parameter_type@12@_K@Z 000000014003a5a4 f i libucrt:output.obj
 0001:000395ac       ?get_parameter_type@?$positional_parameter_base@DV?$stream_output_adapter@D@__crt_stdio_output@@@__crt_stdio_output@@CA?AW4parameter_type@12@_W@Z 000000014003a5ac f i libucrt:output.obj
 0001:000395b4       ?get_parameter_type@?$positional_parameter_base@DV?$string_output_adapter@D@__crt_stdio_output@@@__crt_stdio_output@@CA?AW4parameter_type@12@F@Z 000000014003a5b4 f i libucrt:output.obj
 0001:000395bc       ?get_parameter_type@?$positional_parameter_base@DV?$string_output_adapter@D@__crt_stdio_output@@@__crt_stdio_output@@CA?AW4parameter_type@12@G@Z 000000014003a5bc f i libucrt:output.obj
 0001:000395c4       ?get_parameter_type@?$positional_parameter_base@DV?$string_output_adapter@D@__crt_stdio_output@@@__crt_stdio_output@@CA?AW4parameter_type@12@H@Z 000000014003a5c4 f i libucrt:output.obj
 0001:000395cc       ?get_parameter_type@?$positional_parameter_base@DV?$string_output_adapter@D@__crt_stdio_output@@@__crt_stdio_output@@CA?AW4parameter_type@12@I@Z 000000014003a5cc f i libucrt:output.obj
 0001:000395d4       ?get_parameter_type@?$positional_parameter_base@DV?$string_output_adapter@D@__crt_stdio_output@@@__crt_stdio_output@@CA?AW4parameter_type@12@U_CRT_DOUBLE@@@Z 000000014003a5d4 f i libucrt:output.obj
 0001:000395dc       ?get_parameter_type@?$positional_parameter_base@DV?$string_output_adapter@D@__crt_stdio_output@@@__crt_stdio_output@@CA?AW4parameter_type@12@_J@Z 000000014003a5dc f i libucrt:output.obj
 0001:000395e4       ?get_parameter_type@?$positional_parameter_base@DV?$string_output_adapter@D@__crt_stdio_output@@@__crt_stdio_output@@CA?AW4parameter_type@12@_K@Z 000000014003a5e4 f i libucrt:output.obj
 0001:000395ec       ?get_parameter_type@?$positional_parameter_base@DV?$string_output_adapter@D@__crt_stdio_output@@@__crt_stdio_output@@CA?AW4parameter_type@12@_W@Z 000000014003a5ec f i libucrt:output.obj
 0001:000395f4       ?get_parameter_type@?$positional_parameter_base@_WV?$stream_output_adapter@_W@__crt_stdio_output@@@__crt_stdio_output@@CA?AW4parameter_type@12@F@Z 000000014003a5f4 f i libucrt:output.obj
 0001:000395fc       ?get_parameter_type@?$positional_parameter_base@_WV?$stream_output_adapter@_W@__crt_stdio_output@@@__crt_stdio_output@@CA?AW4parameter_type@12@G@Z 000000014003a5fc f i libucrt:output.obj
 0001:00039604       ?get_parameter_type@?$positional_parameter_base@_WV?$stream_output_adapter@_W@__crt_stdio_output@@@__crt_stdio_output@@CA?AW4parameter_type@12@H@Z 000000014003a604 f i libucrt:output.obj
 0001:0003960c       ?get_parameter_type@?$positional_parameter_base@_WV?$stream_output_adapter@_W@__crt_stdio_output@@@__crt_stdio_output@@CA?AW4parameter_type@12@I@Z 000000014003a60c f i libucrt:output.obj
 0001:00039614       ?get_parameter_type@?$positional_parameter_base@_WV?$stream_output_adapter@_W@__crt_stdio_output@@@__crt_stdio_output@@CA?AW4parameter_type@12@U_CRT_DOUBLE@@@Z 000000014003a614 f i libucrt:output.obj
 0001:0003961c       ?get_parameter_type@?$positional_parameter_base@_WV?$stream_output_adapter@_W@__crt_stdio_output@@@__crt_stdio_output@@CA?AW4parameter_type@12@_J@Z 000000014003a61c f i libucrt:output.obj
 0001:00039624       ?get_parameter_type@?$positional_parameter_base@_WV?$stream_output_adapter@_W@__crt_stdio_output@@@__crt_stdio_output@@CA?AW4parameter_type@12@_K@Z 000000014003a624 f i libucrt:output.obj
 0001:0003962c       ?get_parameter_type@?$positional_parameter_base@_WV?$stream_output_adapter@_W@__crt_stdio_output@@@__crt_stdio_output@@CA?AW4parameter_type@12@_W@Z 000000014003a62c f i libucrt:output.obj
 0001:00039634       ?get_parameter_type@?$positional_parameter_base@_WV?$string_output_adapter@_W@__crt_stdio_output@@@__crt_stdio_output@@CA?AW4parameter_type@12@F@Z 000000014003a634 f i libucrt:output.obj
 0001:0003963c       ?get_parameter_type@?$positional_parameter_base@_WV?$string_output_adapter@_W@__crt_stdio_output@@@__crt_stdio_output@@CA?AW4parameter_type@12@G@Z 000000014003a63c f i libucrt:output.obj
 0001:00039644       ?get_parameter_type@?$positional_parameter_base@_WV?$string_output_adapter@_W@__crt_stdio_output@@@__crt_stdio_output@@CA?AW4parameter_type@12@H@Z 000000014003a644 f i libucrt:output.obj
 0001:0003964c       ?get_parameter_type@?$positional_parameter_base@_WV?$string_output_adapter@_W@__crt_stdio_output@@@__crt_stdio_output@@CA?AW4parameter_type@12@I@Z 000000014003a64c f i libucrt:output.obj
 0001:00039654       ?get_parameter_type@?$positional_parameter_base@_WV?$string_output_adapter@_W@__crt_stdio_output@@@__crt_stdio_output@@CA?AW4parameter_type@12@U_CRT_DOUBLE@@@Z 000000014003a654 f i libucrt:output.obj
 0001:0003965c       ?get_parameter_type@?$positional_parameter_base@_WV?$string_output_adapter@_W@__crt_stdio_output@@@__crt_stdio_output@@CA?AW4parameter_type@12@_J@Z 000000014003a65c f i libucrt:output.obj
 0001:00039664       ?get_parameter_type@?$positional_parameter_base@_WV?$string_output_adapter@_W@__crt_stdio_output@@@__crt_stdio_output@@CA?AW4parameter_type@12@_K@Z 000000014003a664 f i libucrt:output.obj
 0001:0003966c       ?get_parameter_type@?$positional_parameter_base@_WV?$string_output_adapter@_W@__crt_stdio_output@@@__crt_stdio_output@@CA?AW4parameter_type@12@_W@Z 000000014003a66c f i libucrt:output.obj
 0001:00039680       ?get_raw_ptd@__crt_cached_ptd_host@@QEAAPEAU__acrt_ptd@@XZ 000000014003a680 f i libucrt:output.obj
 0001:00039700       ?has_flag@?$output_processor@DV?$stream_output_adapter@D@__crt_stdio_output@@V?$format_validation_base@DV?$stream_output_adapter@D@__crt_stdio_output@@@2@@__crt_stdio_output@@AEBA_NI@Z 000000014003a700 f i libucrt:output.obj
 0001:00039708       ?has_flag@?$output_processor@DV?$stream_output_adapter@D@__crt_stdio_output@@V?$positional_parameter_base@DV?$stream_output_adapter@D@__crt_stdio_output@@@2@@__crt_stdio_output@@AEBA_NI@Z 000000014003a708 f i libucrt:output.obj
 0001:00039710       ?has_flag@?$output_processor@DV?$stream_output_adapter@D@__crt_stdio_output@@V?$standard_base@DV?$stream_output_adapter@D@__crt_stdio_output@@@2@@__crt_stdio_output@@AEBA_NI@Z 000000014003a710 f i libucrt:output.obj
 0001:00039718       ?has_flag@?$output_processor@DV?$string_output_adapter@D@__crt_stdio_output@@V?$format_validation_base@DV?$string_output_adapter@D@__crt_stdio_output@@@2@@__crt_stdio_output@@AEBA_NI@Z 000000014003a718 f i libucrt:output.obj
 0001:00039720       ?has_flag@?$output_processor@DV?$string_output_adapter@D@__crt_stdio_output@@V?$positional_parameter_base@DV?$string_output_adapter@D@__crt_stdio_output@@@2@@__crt_stdio_output@@AEBA_NI@Z 000000014003a720 f i libucrt:output.obj
 0001:00039728       ?has_flag@?$output_processor@DV?$string_output_adapter@D@__crt_stdio_output@@V?$standard_base@DV?$string_output_adapter@D@__crt_stdio_output@@@2@@__crt_stdio_output@@AEBA_NI@Z 000000014003a728 f i libucrt:output.obj
 0001:00039730       ?has_flag@?$output_processor@_WV?$stream_output_adapter@_W@__crt_stdio_output@@V?$format_validation_base@_WV?$stream_output_adapter@_W@__crt_stdio_output@@@2@@__crt_stdio_output@@AEBA_NI@Z 000000014003a730 f i libucrt:output.obj
 0001:00039738       ?has_flag@?$output_processor@_WV?$stream_output_adapter@_W@__crt_stdio_output@@V?$positional_parameter_base@_WV?$stream_output_adapter@_W@__crt_stdio_output@@@2@@__crt_stdio_output@@AEBA_NI@Z 000000014003a738 f i libucrt:output.obj
 0001:00039740       ?has_flag@?$output_processor@_WV?$stream_output_adapter@_W@__crt_stdio_output@@V?$standard_base@_WV?$stream_output_adapter@_W@__crt_stdio_output@@@2@@__crt_stdio_output@@AEBA_NI@Z 000000014003a740 f i libucrt:output.obj
 0001:00039748       ?has_flag@?$output_processor@_WV?$string_output_adapter@_W@__crt_stdio_output@@V?$format_validation_base@_WV?$string_output_adapter@_W@__crt_stdio_output@@@2@@__crt_stdio_output@@AEBA_NI@Z 000000014003a748 f i libucrt:output.obj
 0001:00039750       ?has_flag@?$output_processor@_WV?$string_output_adapter@_W@__crt_stdio_output@@V?$positional_parameter_base@_WV?$string_output_adapter@_W@__crt_stdio_output@@@2@@__crt_stdio_output@@AEBA_NI@Z 000000014003a750 f i libucrt:output.obj
 0001:00039758       ?has_flag@?$output_processor@_WV?$string_output_adapter@_W@__crt_stdio_output@@V?$standard_base@_WV?$string_output_adapter@_W@__crt_stdio_output@@@2@@__crt_stdio_output@@AEBA_NI@Z 000000014003a758 f i libucrt:output.obj
 0001:00039760       ?is_positional_parameter_reappearance_consistent@?$positional_parameter_base@DV?$stream_output_adapter@D@__crt_stdio_output@@@__crt_stdio_output@@AEAA_NAEBUparameter_data@12@W4parameter_type@12@DW4length_modifier@2@@Z 000000014003a760 f i libucrt:output.obj
 0001:00039a24       ?is_positional_parameter_reappearance_consistent@?$positional_parameter_base@DV?$string_output_adapter@D@__crt_stdio_output@@@__crt_stdio_output@@AEAA_NAEBUparameter_data@12@W4parameter_type@12@DW4length_modifier@2@@Z 000000014003aa24 f i libucrt:output.obj
 0001:00039ce8       ?is_positional_parameter_reappearance_consistent@?$positional_parameter_base@_WV?$stream_output_adapter@_W@__crt_stdio_output@@@__crt_stdio_output@@AEAA_NAEBUparameter_data@12@W4parameter_type@12@_WW4length_modifier@2@@Z 000000014003ace8 f i libucrt:output.obj
 0001:00039f6c       ?is_positional_parameter_reappearance_consistent@?$positional_parameter_base@_WV?$string_output_adapter@_W@__crt_stdio_output@@@__crt_stdio_output@@AEAA_NAEBUparameter_data@12@W4parameter_type@12@_WW4length_modifier@2@@Z 000000014003af6c f i libucrt:output.obj
 0001:0003a1f0       ?is_string_backed@__crt_stdio_stream@@QEBA_NXZ 000000014003b1f0 f i libucrt:output.obj
 0001:0003a200       ?maximum_signed_value@__crt_strtox@@YAJK@Z 000000014003b200 f i libucrt:output.obj
 0001:0003a208       ?minimum_signed_value@__crt_strtox@@YAJK@Z 000000014003b208 f i libucrt:output.obj
 0001:0003a210       ?narrow_null_string@?$output_processor@DV?$stream_output_adapter@D@__crt_stdio_output@@V?$format_validation_base@DV?$stream_output_adapter@D@__crt_stdio_output@@@2@@__crt_stdio_output@@CAPEADXZ 000000014003b210 f i libucrt:output.obj
 0001:0003a21c       ?narrow_null_string@?$output_processor@DV?$stream_output_adapter@D@__crt_stdio_output@@V?$positional_parameter_base@DV?$stream_output_adapter@D@__crt_stdio_output@@@2@@__crt_stdio_output@@CAPEADXZ 000000014003b21c f i libucrt:output.obj
 0001:0003a228       ?narrow_null_string@?$output_processor@DV?$stream_output_adapter@D@__crt_stdio_output@@V?$standard_base@DV?$stream_output_adapter@D@__crt_stdio_output@@@2@@__crt_stdio_output@@CAPEADXZ 000000014003b228 f i libucrt:output.obj
 0001:0003a234       ?narrow_null_string@?$output_processor@DV?$string_output_adapter@D@__crt_stdio_output@@V?$format_validation_base@DV?$string_output_adapter@D@__crt_stdio_output@@@2@@__crt_stdio_output@@CAPEADXZ 000000014003b234 f i libucrt:output.obj
 0001:0003a240       ?narrow_null_string@?$output_processor@DV?$string_output_adapter@D@__crt_stdio_output@@V?$positional_parameter_base@DV?$string_output_adapter@D@__crt_stdio_output@@@2@@__crt_stdio_output@@CAPEADXZ 000000014003b240 f i libucrt:output.obj
 0001:0003a24c       ?narrow_null_string@?$output_processor@DV?$string_output_adapter@D@__crt_stdio_output@@V?$standard_base@DV?$string_output_adapter@D@__crt_stdio_output@@@2@@__crt_stdio_output@@CAPEADXZ 000000014003b24c f i libucrt:output.obj
 0001:0003a258       ?narrow_null_string@?$output_processor@_WV?$stream_output_adapter@_W@__crt_stdio_output@@V?$format_validation_base@_WV?$stream_output_adapter@_W@__crt_stdio_output@@@2@@__crt_stdio_output@@CAPEADXZ 000000014003b258 f i libucrt:output.obj
 0001:0003a264       ?narrow_null_string@?$output_processor@_WV?$stream_output_adapter@_W@__crt_stdio_output@@V?$positional_parameter_base@_WV?$stream_output_adapter@_W@__crt_stdio_output@@@2@@__crt_stdio_output@@CAPEADXZ 000000014003b264 f i libucrt:output.obj
 0001:0003a270       ?narrow_null_string@?$output_processor@_WV?$stream_output_adapter@_W@__crt_stdio_output@@V?$standard_base@_WV?$stream_output_adapter@_W@__crt_stdio_output@@@2@@__crt_stdio_output@@CAPEADXZ 000000014003b270 f i libucrt:output.obj
 0001:0003a27c       ?narrow_null_string@?$output_processor@_WV?$string_output_adapter@_W@__crt_stdio_output@@V?$format_validation_base@_WV?$string_output_adapter@_W@__crt_stdio_output@@@2@@__crt_stdio_output@@CAPEADXZ 000000014003b27c f i libucrt:output.obj
 0001:0003a288       ?narrow_null_string@?$output_processor@_WV?$string_output_adapter@_W@__crt_stdio_output@@V?$positional_parameter_base@_WV?$string_output_adapter@_W@__crt_stdio_output@@@2@@__crt_stdio_output@@CAPEADXZ 000000014003b288 f i libucrt:output.obj
 0001:0003a294       ?narrow_null_string@?$output_processor@_WV?$string_output_adapter@_W@__crt_stdio_output@@V?$standard_base@_WV?$string_output_adapter@_W@__crt_stdio_output@@@2@@__crt_stdio_output@@CAPEADXZ 000000014003b294 f i libucrt:output.obj
 0001:0003a2a0       ?parse_digit@__crt_strtox@@YAID@Z 000000014003b2a0 f i libucrt:output.obj
 0001:0003a2dc       ?parse_digit@__crt_strtox@@YAI_W@Z 000000014003b2dc f i libucrt:output.obj
 0001:0003a504       ?parse_int_from_format_string@?$output_processor@DV?$stream_output_adapter@D@__crt_stdio_output@@V?$format_validation_base@DV?$stream_output_adapter@D@__crt_stdio_output@@@2@@__crt_stdio_output@@AEAA_NQEAH@Z 000000014003b504 f i libucrt:output.obj
 0001:0003a5b4       ?parse_int_from_format_string@?$output_processor@DV?$stream_output_adapter@D@__crt_stdio_output@@V?$positional_parameter_base@DV?$stream_output_adapter@D@__crt_stdio_output@@@2@@__crt_stdio_output@@AEAA_NQEAH@Z 000000014003b5b4 f i libucrt:output.obj
 0001:0003a664       ?parse_int_from_format_string@?$output_processor@DV?$stream_output_adapter@D@__crt_stdio_output@@V?$standard_base@DV?$stream_output_adapter@D@__crt_stdio_output@@@2@@__crt_stdio_output@@AEAA_NQEAH@Z 000000014003b664 f i libucrt:output.obj
 0001:0003a714       ?parse_int_from_format_string@?$output_processor@DV?$string_output_adapter@D@__crt_stdio_output@@V?$format_validation_base@DV?$string_output_adapter@D@__crt_stdio_output@@@2@@__crt_stdio_output@@AEAA_NQEAH@Z 000000014003b714 f i libucrt:output.obj
 0001:0003a7c4       ?parse_int_from_format_string@?$output_processor@DV?$string_output_adapter@D@__crt_stdio_output@@V?$positional_parameter_base@DV?$string_output_adapter@D@__crt_stdio_output@@@2@@__crt_stdio_output@@AEAA_NQEAH@Z 000000014003b7c4 f i libucrt:output.obj
 0001:0003a874       ?parse_int_from_format_string@?$output_processor@DV?$string_output_adapter@D@__crt_stdio_output@@V?$standard_base@DV?$string_output_adapter@D@__crt_stdio_output@@@2@@__crt_stdio_output@@AEAA_NQEAH@Z 000000014003b874 f i libucrt:output.obj
 0001:0003a924       ?parse_int_from_format_string@?$output_processor@_WV?$stream_output_adapter@_W@__crt_stdio_output@@V?$format_validation_base@_WV?$stream_output_adapter@_W@__crt_stdio_output@@@2@@__crt_stdio_output@@AEAA_NQEAH@Z 000000014003b924 f i libucrt:output.obj
 0001:0003a9d8       ?parse_int_from_format_string@?$output_processor@_WV?$stream_output_adapter@_W@__crt_stdio_output@@V?$positional_parameter_base@_WV?$stream_output_adapter@_W@__crt_stdio_output@@@2@@__crt_stdio_output@@AEAA_NQEAH@Z 000000014003b9d8 f i libucrt:output.obj
 0001:0003aa8c       ?parse_int_from_format_string@?$output_processor@_WV?$stream_output_adapter@_W@__crt_stdio_output@@V?$standard_base@_WV?$stream_output_adapter@_W@__crt_stdio_output@@@2@@__crt_stdio_output@@AEAA_NQEAH@Z 000000014003ba8c f i libucrt:output.obj
 0001:0003ab40       ?parse_int_from_format_string@?$output_processor@_WV?$string_output_adapter@_W@__crt_stdio_output@@V?$format_validation_base@_WV?$string_output_adapter@_W@__crt_stdio_output@@@2@@__crt_stdio_output@@AEAA_NQEAH@Z 000000014003bb40 f i libucrt:output.obj
 0001:0003abf4       ?parse_int_from_format_string@?$output_processor@_WV?$string_output_adapter@_W@__crt_stdio_output@@V?$positional_parameter_base@_WV?$string_output_adapter@_W@__crt_stdio_output@@@2@@__crt_stdio_output@@AEAA_NQEAH@Z 000000014003bbf4 f i libucrt:output.obj
 0001:0003aca8       ?parse_int_from_format_string@?$output_processor@_WV?$string_output_adapter@_W@__crt_stdio_output@@V?$standard_base@_WV?$string_output_adapter@_W@__crt_stdio_output@@@2@@__crt_stdio_output@@AEAA_NQEAH@Z 000000014003bca8 f i libucrt:output.obj
 0001:0003ad5c       ?process@?$output_processor@DV?$stream_output_adapter@D@__crt_stdio_output@@V?$format_validation_base@DV?$stream_output_adapter@D@__crt_stdio_output@@@2@@__crt_stdio_output@@QEAAHXZ 000000014003bd5c f i libucrt:output.obj
 0001:0003b1d4       ?process@?$output_processor@DV?$stream_output_adapter@D@__crt_stdio_output@@V?$positional_parameter_base@DV?$stream_output_adapter@D@__crt_stdio_output@@@2@@__crt_stdio_output@@QEAAHXZ 000000014003c1d4 f i libucrt:output.obj
 0001:0003b704       ?process@?$output_processor@DV?$stream_output_adapter@D@__crt_stdio_output@@V?$standard_base@DV?$stream_output_adapter@D@__crt_stdio_output@@@2@@__crt_stdio_output@@QEAAHXZ 000000014003c704 f i libucrt:output.obj
 0001:0003bb74       ?process@?$output_processor@DV?$string_output_adapter@D@__crt_stdio_output@@V?$format_validation_base@DV?$string_output_adapter@D@__crt_stdio_output@@@2@@__crt_stdio_output@@QEAAHXZ 000000014003cb74 f i libucrt:output.obj
 0001:0003bfe8       ?process@?$output_processor@DV?$string_output_adapter@D@__crt_stdio_output@@V?$positional_parameter_base@DV?$string_output_adapter@D@__crt_stdio_output@@@2@@__crt_stdio_output@@QEAAHXZ 000000014003cfe8 f i libucrt:output.obj
 0001:0003c4f8       ?process@?$output_processor@DV?$string_output_adapter@D@__crt_stdio_output@@V?$standard_base@DV?$string_output_adapter@D@__crt_stdio_output@@@2@@__crt_stdio_output@@QEAAHXZ 000000014003d4f8 f i libucrt:output.obj
 0001:0003c95c       ?process@?$output_processor@_WV?$stream_output_adapter@_W@__crt_stdio_output@@V?$format_validation_base@_WV?$stream_output_adapter@_W@__crt_stdio_output@@@2@@__crt_stdio_output@@QEAAHXZ 000000014003d95c f i libucrt:output.obj
 0001:0003ccf8       ?process@?$output_processor@_WV?$stream_output_adapter@_W@__crt_stdio_output@@V?$positional_parameter_base@_WV?$stream_output_adapter@_W@__crt_stdio_output@@@2@@__crt_stdio_output@@QEAAHXZ 000000014003dcf8 f i libucrt:output.obj
 0001:0003d154       ?process@?$output_processor@_WV?$stream_output_adapter@_W@__crt_stdio_output@@V?$standard_base@_WV?$stream_output_adapter@_W@__crt_stdio_output@@@2@@__crt_stdio_output@@QEAAHXZ 000000014003e154 f i libucrt:output.obj
 0001:0003d4c0       ?process@?$output_processor@_WV?$string_output_adapter@_W@__crt_stdio_output@@V?$format_validation_base@_WV?$string_output_adapter@_W@__crt_stdio_output@@@2@@__crt_stdio_output@@QEAAHXZ 000000014003e4c0 f i libucrt:output.obj
 0001:0003d854       ?process@?$output_processor@_WV?$string_output_adapter@_W@__crt_stdio_output@@V?$positional_parameter_base@_WV?$string_output_adapter@_W@__crt_stdio_output@@@2@@__crt_stdio_output@@QEAAHXZ 000000014003e854 f i libucrt:output.obj
 0001:0003dcb0       ?process@?$output_processor@_WV?$string_output_adapter@_W@__crt_stdio_output@@V?$standard_base@_WV?$string_output_adapter@_W@__crt_stdio_output@@@2@@__crt_stdio_output@@QEAAHXZ 000000014003ecb0 f i libucrt:output.obj
 0001:0003e024       ?public_stream@__crt_stdio_stream@@QEBAPEAU_iobuf@@XZ 000000014003f024 f i libucrt:output.obj
 0001:0003e028       ?restore_state@?$c_string_character_source@D@__crt_strtox@@QEAA_NQEBD@Z 000000014003f028 f i libucrt:output.obj
 0001:0003e030       ?restore_state@?$c_string_character_source@_W@__crt_strtox@@QEAA_NQEB_W@Z 000000014003f030 f i libucrt:output.obj
 0001:0003e038       ?save_state@?$c_string_character_source@D@__crt_strtox@@QEBAPEBDXZ 000000014003f038 f i libucrt:output.obj
 0001:0003e03c       ?save_state@?$c_string_character_source@_W@__crt_strtox@@QEBAPEB_WXZ 000000014003f03c f i libucrt:output.obj
 0001:0003e040       ?set@?$cached@H@__crt_cached_ptd_host@@QEAAHH@Z 000000014003f040 f i libucrt:output.obj
 0001:0003e04c       ?set_flag@?$output_processor@DV?$stream_output_adapter@D@__crt_stdio_output@@V?$format_validation_base@DV?$stream_output_adapter@D@__crt_stdio_output@@@2@@__crt_stdio_output@@AEAAXI@Z 000000014003f04c f i libucrt:output.obj
 0001:0003e050       ?set_flag@?$output_processor@DV?$stream_output_adapter@D@__crt_stdio_output@@V?$positional_parameter_base@DV?$stream_output_adapter@D@__crt_stdio_output@@@2@@__crt_stdio_output@@AEAAXI@Z 000000014003f050 f i libucrt:output.obj
 0001:0003e054       ?set_flag@?$output_processor@DV?$stream_output_adapter@D@__crt_stdio_output@@V?$standard_base@DV?$stream_output_adapter@D@__crt_stdio_output@@@2@@__crt_stdio_output@@AEAAXI@Z 000000014003f054 f i libucrt:output.obj
 0001:0003e058       ?set_flag@?$output_processor@DV?$string_output_adapter@D@__crt_stdio_output@@V?$format_validation_base@DV?$string_output_adapter@D@__crt_stdio_output@@@2@@__crt_stdio_output@@AEAAXI@Z 000000014003f058 f i libucrt:output.obj
 0001:0003e05c       ?set_flag@?$output_processor@DV?$string_output_adapter@D@__crt_stdio_output@@V?$positional_parameter_base@DV?$string_output_adapter@D@__crt_stdio_output@@@2@@__crt_stdio_output@@AEAAXI@Z 000000014003f05c f i libucrt:output.obj
 0001:0003e060       ?set_flag@?$output_processor@DV?$string_output_adapter@D@__crt_stdio_output@@V?$standard_base@DV?$string_output_adapter@D@__crt_stdio_output@@@2@@__crt_stdio_output@@AEAAXI@Z 000000014003f060 f i libucrt:output.obj
 0001:0003e064       ?set_flag@?$output_processor@_WV?$stream_output_adapter@_W@__crt_stdio_output@@V?$format_validation_base@_WV?$stream_output_adapter@_W@__crt_stdio_output@@@2@@__crt_stdio_output@@AEAAXI@Z 000000014003f064 f i libucrt:output.obj
 0001:0003e068       ?set_flag@?$output_processor@_WV?$stream_output_adapter@_W@__crt_stdio_output@@V?$positional_parameter_base@_WV?$stream_output_adapter@_W@__crt_stdio_output@@@2@@__crt_stdio_output@@AEAAXI@Z 000000014003f068 f i libucrt:output.obj
 0001:0003e06c       ?set_flag@?$output_processor@_WV?$stream_output_adapter@_W@__crt_stdio_output@@V?$standard_base@_WV?$stream_output_adapter@_W@__crt_stdio_output@@@2@@__crt_stdio_output@@AEAAXI@Z 000000014003f06c f i libucrt:output.obj
 0001:0003e070       ?set_flag@?$output_processor@_WV?$string_output_adapter@_W@__crt_stdio_output@@V?$format_validation_base@_WV?$string_output_adapter@_W@__crt_stdio_output@@@2@@__crt_stdio_output@@AEAAXI@Z 000000014003f070 f i libucrt:output.obj
 0001:0003e074       ?set_flag@?$output_processor@_WV?$string_output_adapter@_W@__crt_stdio_output@@V?$positional_parameter_base@_WV?$string_output_adapter@_W@__crt_stdio_output@@@2@@__crt_stdio_output@@AEAAXI@Z 000000014003f074 f i libucrt:output.obj
 0001:0003e078       ?set_flag@?$output_processor@_WV?$string_output_adapter@_W@__crt_stdio_output@@V?$standard_base@_WV?$string_output_adapter@_W@__crt_stdio_output@@@2@@__crt_stdio_output@@AEAAXI@Z 000000014003f078 f i libucrt:output.obj
 0001:0003e07c       ?should_format@?$positional_parameter_base@DV?$stream_output_adapter@D@__crt_stdio_output@@@__crt_stdio_output@@IEAA_NXZ 000000014003f07c f i libucrt:output.obj
 0001:0003e09c       ?should_format@?$positional_parameter_base@DV?$string_output_adapter@D@__crt_stdio_output@@@__crt_stdio_output@@IEAA_NXZ 000000014003f09c f i libucrt:output.obj
 0001:0003e0bc       ?should_format@?$positional_parameter_base@_WV?$stream_output_adapter@_W@__crt_stdio_output@@@__crt_stdio_output@@IEAA_NXZ 000000014003f0bc f i libucrt:output.obj
 0001:0003e0dc       ?should_format@?$positional_parameter_base@_WV?$string_output_adapter@_W@__crt_stdio_output@@@__crt_stdio_output@@IEAA_NXZ 000000014003f0dc f i libucrt:output.obj
 0001:0003e0fc       ?should_format@?$standard_base@DV?$stream_output_adapter@D@__crt_stdio_output@@@__crt_stdio_output@@IEAA_NXZ 000000014003f0fc f i libucrt:output.obj
 0001:0003e100       ?should_format@?$standard_base@DV?$string_output_adapter@D@__crt_stdio_output@@@__crt_stdio_output@@IEAA_NXZ 000000014003f100 f i libucrt:output.obj
 0001:0003e104       ?should_format@?$standard_base@_WV?$stream_output_adapter@_W@__crt_stdio_output@@@__crt_stdio_output@@IEAA_NXZ 000000014003f104 f i libucrt:output.obj
 0001:0003e108       ?should_format@?$standard_base@_WV?$string_output_adapter@_W@__crt_stdio_output@@@__crt_stdio_output@@IEAA_NXZ 000000014003f108 f i libucrt:output.obj
 0001:0003e10c       ?should_skip_normal_state_processing@?$positional_parameter_base@DV?$stream_output_adapter@D@__crt_stdio_output@@@__crt_stdio_output@@IEAA_NXZ 000000014003f10c f i libucrt:output.obj
 0001:0003e140       ?should_skip_normal_state_processing@?$positional_parameter_base@DV?$string_output_adapter@D@__crt_stdio_output@@@__crt_stdio_output@@IEAA_NXZ 000000014003f140 f i libucrt:output.obj
 0001:0003e174       ?should_skip_normal_state_processing@?$positional_parameter_base@_WV?$stream_output_adapter@_W@__crt_stdio_output@@@__crt_stdio_output@@IEAA_NXZ 000000014003f174 f i libucrt:output.obj
 0001:0003e1a8       ?should_skip_normal_state_processing@?$positional_parameter_base@_WV?$string_output_adapter@_W@__crt_stdio_output@@@__crt_stdio_output@@IEAA_NXZ 000000014003f1a8 f i libucrt:output.obj
 0001:0003e1dc       ?should_skip_normal_state_processing@?$standard_base@DV?$stream_output_adapter@D@__crt_stdio_output@@@__crt_stdio_output@@IEAA_NXZ 000000014003f1dc f i libucrt:output.obj
 0001:0003e1e0       ?should_skip_normal_state_processing@?$standard_base@DV?$string_output_adapter@D@__crt_stdio_output@@@__crt_stdio_output@@IEAA_NXZ 000000014003f1e0 f i libucrt:output.obj
 0001:0003e1e4       ?should_skip_normal_state_processing@?$standard_base@_WV?$stream_output_adapter@_W@__crt_stdio_output@@@__crt_stdio_output@@IEAA_NXZ 000000014003f1e4 f i libucrt:output.obj
 0001:0003e1e8       ?should_skip_normal_state_processing@?$standard_base@_WV?$string_output_adapter@_W@__crt_stdio_output@@@__crt_stdio_output@@IEAA_NXZ 000000014003f1e8 f i libucrt:output.obj
 0001:0003e1ec       ?should_skip_type_state_output@?$positional_parameter_base@DV?$stream_output_adapter@D@__crt_stdio_output@@@__crt_stdio_output@@IEBA_NXZ 000000014003f1ec f i libucrt:output.obj
 0001:0003e20c       ?should_skip_type_state_output@?$positional_parameter_base@DV?$string_output_adapter@D@__crt_stdio_output@@@__crt_stdio_output@@IEBA_NXZ 000000014003f20c f i libucrt:output.obj
 0001:0003e22c       ?should_skip_type_state_output@?$positional_parameter_base@_WV?$stream_output_adapter@_W@__crt_stdio_output@@@__crt_stdio_output@@IEBA_NXZ 000000014003f22c f i libucrt:output.obj
 0001:0003e24c       ?should_skip_type_state_output@?$positional_parameter_base@_WV?$string_output_adapter@_W@__crt_stdio_output@@@__crt_stdio_output@@IEBA_NXZ 000000014003f24c f i libucrt:output.obj
 0001:0003e26c       ?should_skip_type_state_output@?$standard_base@DV?$stream_output_adapter@D@__crt_stdio_output@@@__crt_stdio_output@@IEBA_NXZ 000000014003f26c f i libucrt:output.obj
 0001:0003e270       ?should_skip_type_state_output@?$standard_base@DV?$string_output_adapter@D@__crt_stdio_output@@@__crt_stdio_output@@IEBA_NXZ 000000014003f270 f i libucrt:output.obj
 0001:0003e274       ?should_skip_type_state_output@?$standard_base@_WV?$stream_output_adapter@_W@__crt_stdio_output@@@__crt_stdio_output@@IEBA_NXZ 000000014003f274 f i libucrt:output.obj
 0001:0003e278       ?should_skip_type_state_output@?$standard_base@_WV?$string_output_adapter@_W@__crt_stdio_output@@@__crt_stdio_output@@IEBA_NXZ 000000014003f278 f i libucrt:output.obj
 0001:0003e27c       ?state_case_dot@?$output_processor@DV?$stream_output_adapter@D@__crt_stdio_output@@V?$format_validation_base@DV?$stream_output_adapter@D@__crt_stdio_output@@@2@@__crt_stdio_output@@AEAA_NXZ 000000014003f27c f i libucrt:output.obj
 0001:0003e284       ?state_case_dot@?$output_processor@DV?$stream_output_adapter@D@__crt_stdio_output@@V?$positional_parameter_base@DV?$stream_output_adapter@D@__crt_stdio_output@@@2@@__crt_stdio_output@@AEAA_NXZ 000000014003f284 f i libucrt:output.obj
 0001:0003e28c       ?state_case_dot@?$output_processor@DV?$stream_output_adapter@D@__crt_stdio_output@@V?$standard_base@DV?$stream_output_adapter@D@__crt_stdio_output@@@2@@__crt_stdio_output@@AEAA_NXZ 000000014003f28c f i libucrt:output.obj
 0001:0003e294       ?state_case_dot@?$output_processor@DV?$string_output_adapter@D@__crt_stdio_output@@V?$format_validation_base@DV?$string_output_adapter@D@__crt_stdio_output@@@2@@__crt_stdio_output@@AEAA_NXZ 000000014003f294 f i libucrt:output.obj
 0001:0003e29c       ?state_case_dot@?$output_processor@DV?$string_output_adapter@D@__crt_stdio_output@@V?$positional_parameter_base@DV?$string_output_adapter@D@__crt_stdio_output@@@2@@__crt_stdio_output@@AEAA_NXZ 000000014003f29c f i libucrt:output.obj
 0001:0003e2a4       ?state_case_dot@?$output_processor@DV?$string_output_adapter@D@__crt_stdio_output@@V?$standard_base@DV?$string_output_adapter@D@__crt_stdio_output@@@2@@__crt_stdio_output@@AEAA_NXZ 000000014003f2a4 f i libucrt:output.obj
 0001:0003e2ac       ?state_case_dot@?$output_processor@_WV?$stream_output_adapter@_W@__crt_stdio_output@@V?$format_validation_base@_WV?$stream_output_adapter@_W@__crt_stdio_output@@@2@@__crt_stdio_output@@AEAA_NXZ 000000014003f2ac f i libucrt:output.obj
 0001:0003e2b4       ?state_case_dot@?$output_processor@_WV?$stream_output_adapter@_W@__crt_stdio_output@@V?$positional_parameter_base@_WV?$stream_output_adapter@_W@__crt_stdio_output@@@2@@__crt_stdio_output@@AEAA_NXZ 000000014003f2b4 f i libucrt:output.obj
 0001:0003e2bc       ?state_case_dot@?$output_processor@_WV?$stream_output_adapter@_W@__crt_stdio_output@@V?$standard_base@_WV?$stream_output_adapter@_W@__crt_stdio_output@@@2@@__crt_stdio_output@@AEAA_NXZ 000000014003f2bc f i libucrt:output.obj
 0001:0003e2c4       ?state_case_dot@?$output_processor@_WV?$string_output_adapter@_W@__crt_stdio_output@@V?$format_validation_base@_WV?$string_output_adapter@_W@__crt_stdio_output@@@2@@__crt_stdio_output@@AEAA_NXZ 000000014003f2c4 f i libucrt:output.obj
 0001:0003e2cc       ?state_case_dot@?$output_processor@_WV?$string_output_adapter@_W@__crt_stdio_output@@V?$positional_parameter_base@_WV?$string_output_adapter@_W@__crt_stdio_output@@@2@@__crt_stdio_output@@AEAA_NXZ 000000014003f2cc f i libucrt:output.obj
 0001:0003e2d4       ?state_case_dot@?$output_processor@_WV?$string_output_adapter@_W@__crt_stdio_output@@V?$standard_base@_WV?$string_output_adapter@_W@__crt_stdio_output@@@2@@__crt_stdio_output@@AEAA_NXZ 000000014003f2d4 f i libucrt:output.obj
 0001:0003e2dc       ?state_case_flag@?$output_processor@DV?$stream_output_adapter@D@__crt_stdio_output@@V?$format_validation_base@DV?$stream_output_adapter@D@__crt_stdio_output@@@2@@__crt_stdio_output@@AEAA_NXZ 000000014003f2dc f i libucrt:output.obj
 0001:0003e320       ?state_case_flag@?$output_processor@DV?$stream_output_adapter@D@__crt_stdio_output@@V?$positional_parameter_base@DV?$stream_output_adapter@D@__crt_stdio_output@@@2@@__crt_stdio_output@@AEAA_NXZ 000000014003f320 f i libucrt:output.obj
 0001:0003e364       ?state_case_flag@?$output_processor@DV?$stream_output_adapter@D@__crt_stdio_output@@V?$standard_base@DV?$stream_output_adapter@D@__crt_stdio_output@@@2@@__crt_stdio_output@@AEAA_NXZ 000000014003f364 f i libucrt:output.obj
 0001:0003e3a8       ?state_case_flag@?$output_processor@DV?$string_output_adapter@D@__crt_stdio_output@@V?$format_validation_base@DV?$string_output_adapter@D@__crt_stdio_output@@@2@@__crt_stdio_output@@AEAA_NXZ 000000014003f3a8 f i libucrt:output.obj
 0001:0003e3ec       ?state_case_flag@?$output_processor@DV?$string_output_adapter@D@__crt_stdio_output@@V?$positional_parameter_base@DV?$string_output_adapter@D@__crt_stdio_output@@@2@@__crt_stdio_output@@AEAA_NXZ 000000014003f3ec f i libucrt:output.obj
 0001:0003e430       ?state_case_flag@?$output_processor@DV?$string_output_adapter@D@__crt_stdio_output@@V?$standard_base@DV?$string_output_adapter@D@__crt_stdio_output@@@2@@__crt_stdio_output@@AEAA_NXZ 000000014003f430 f i libucrt:output.obj
 0001:0003e474       ?state_case_flag@?$output_processor@_WV?$stream_output_adapter@_W@__crt_stdio_output@@V?$format_validation_base@_WV?$stream_output_adapter@_W@__crt_stdio_output@@@2@@__crt_stdio_output@@AEAA_NXZ 000000014003f474 f i libucrt:output.obj
 0001:0003e4cc       ?state_case_flag@?$output_processor@_WV?$stream_output_adapter@_W@__crt_stdio_output@@V?$positional_parameter_base@_WV?$stream_output_adapter@_W@__crt_stdio_output@@@2@@__crt_stdio_output@@AEAA_NXZ 000000014003f4cc f i libucrt:output.obj
 0001:0003e524       ?state_case_flag@?$output_processor@_WV?$stream_output_adapter@_W@__crt_stdio_output@@V?$standard_base@_WV?$stream_output_adapter@_W@__crt_stdio_output@@@2@@__crt_stdio_output@@AEAA_NXZ 000000014003f524 f i libucrt:output.obj
 0001:0003e57c       ?state_case_flag@?$output_processor@_WV?$string_output_adapter@_W@__crt_stdio_output@@V?$format_validation_base@_WV?$string_output_adapter@_W@__crt_stdio_output@@@2@@__crt_stdio_output@@AEAA_NXZ 000000014003f57c f i libucrt:output.obj
 0001:0003e5d4       ?state_case_flag@?$output_processor@_WV?$string_output_adapter@_W@__crt_stdio_output@@V?$positional_parameter_base@_WV?$string_output_adapter@_W@__crt_stdio_output@@@2@@__crt_stdio_output@@AEAA_NXZ 000000014003f5d4 f i libucrt:output.obj
 0001:0003e62c       ?state_case_flag@?$output_processor@_WV?$string_output_adapter@_W@__crt_stdio_output@@V?$standard_base@_WV?$string_output_adapter@_W@__crt_stdio_output@@@2@@__crt_stdio_output@@AEAA_NXZ 000000014003f62c f i libucrt:output.obj
 0001:0003e684       ?state_case_normal@?$output_processor@DV?$stream_output_adapter@D@__crt_stdio_output@@V?$format_validation_base@DV?$stream_output_adapter@D@__crt_stdio_output@@@2@@__crt_stdio_output@@AEAA_NXZ 000000014003f684 f i libucrt:output.obj
 0001:0003e82c       ?state_case_normal@?$output_processor@DV?$stream_output_adapter@D@__crt_stdio_output@@V?$positional_parameter_base@DV?$stream_output_adapter@D@__crt_stdio_output@@@2@@__crt_stdio_output@@AEAA_NXZ 000000014003f82c f i libucrt:output.obj
 0001:0003ea08       ?state_case_normal@?$output_processor@DV?$stream_output_adapter@D@__crt_stdio_output@@V?$standard_base@DV?$stream_output_adapter@D@__crt_stdio_output@@@2@@__crt_stdio_output@@AEAA_NXZ 000000014003fa08 f i libucrt:output.obj
 0001:0003ebb0       ?state_case_normal@?$output_processor@DV?$string_output_adapter@D@__crt_stdio_output@@V?$format_validation_base@DV?$string_output_adapter@D@__crt_stdio_output@@@2@@__crt_stdio_output@@AEAA_NXZ 000000014003fbb0 f i libucrt:output.obj
 0001:0003ed50       ?state_case_normal@?$output_processor@DV?$string_output_adapter@D@__crt_stdio_output@@V?$positional_parameter_base@DV?$string_output_adapter@D@__crt_stdio_output@@@2@@__crt_stdio_output@@AEAA_NXZ 000000014003fd50 f i libucrt:output.obj
 0001:0003ef24       ?state_case_normal@?$output_processor@DV?$string_output_adapter@D@__crt_stdio_output@@V?$standard_base@DV?$string_output_adapter@D@__crt_stdio_output@@@2@@__crt_stdio_output@@AEAA_NXZ 000000014003ff24 f i libucrt:output.obj
 0001:0003f0c4       ?state_case_normal@?$output_processor@_WV?$stream_output_adapter@_W@__crt_stdio_output@@V?$format_validation_base@_WV?$stream_output_adapter@_W@__crt_stdio_output@@@2@@__crt_stdio_output@@AEAA_NXZ 00000001400400c4 f i libucrt:output.obj
 0001:0003f138       ?state_case_normal@?$output_processor@_WV?$stream_output_adapter@_W@__crt_stdio_output@@V?$positional_parameter_base@_WV?$stream_output_adapter@_W@__crt_stdio_output@@@2@@__crt_stdio_output@@AEAA_NXZ 0000000140040138 f i libucrt:output.obj
 0001:0003f1d8       ?state_case_normal@?$output_processor@_WV?$stream_output_adapter@_W@__crt_stdio_output@@V?$standard_base@_WV?$stream_output_adapter@_W@__crt_stdio_output@@@2@@__crt_stdio_output@@AEAA_NXZ 00000001400401d8 f i libucrt:output.obj
 0001:0003f24c       ?state_case_normal@?$output_processor@_WV?$string_output_adapter@_W@__crt_stdio_output@@V?$format_validation_base@_WV?$string_output_adapter@_W@__crt_stdio_output@@@2@@__crt_stdio_output@@AEAA_NXZ 000000014004024c f i libucrt:output.obj
 0001:0003f2b8       ?state_case_normal@?$output_processor@_WV?$string_output_adapter@_W@__crt_stdio_output@@V?$positional_parameter_base@_WV?$string_output_adapter@_W@__crt_stdio_output@@@2@@__crt_stdio_output@@AEAA_NXZ 00000001400402b8 f i libucrt:output.obj
 0001:0003f350       ?state_case_normal@?$output_processor@_WV?$string_output_adapter@_W@__crt_stdio_output@@V?$standard_base@_WV?$string_output_adapter@_W@__crt_stdio_output@@@2@@__crt_stdio_output@@AEAA_NXZ 0000000140040350 f i libucrt:output.obj
 0001:0003f3bc       ?state_case_normal_common@?$output_processor@DV?$stream_output_adapter@D@__crt_stdio_output@@V?$format_validation_base@DV?$stream_output_adapter@D@__crt_stdio_output@@@2@@__crt_stdio_output@@AEAA_NXZ 00000001400403bc f i libucrt:output.obj
 0001:0003f52c       ?state_case_normal_common@?$output_processor@DV?$stream_output_adapter@D@__crt_stdio_output@@V?$positional_parameter_base@DV?$stream_output_adapter@D@__crt_stdio_output@@@2@@__crt_stdio_output@@AEAA_NXZ 000000014004052c f i libucrt:output.obj
 0001:0003f69c       ?state_case_normal_common@?$output_processor@DV?$stream_output_adapter@D@__crt_stdio_output@@V?$standard_base@DV?$stream_output_adapter@D@__crt_stdio_output@@@2@@__crt_stdio_output@@AEAA_NXZ 000000014004069c f i libucrt:output.obj
 0001:0003f80c       ?state_case_normal_common@?$output_processor@DV?$string_output_adapter@D@__crt_stdio_output@@V?$format_validation_base@DV?$string_output_adapter@D@__crt_stdio_output@@@2@@__crt_stdio_output@@AEAA_NXZ 000000014004080c f i libucrt:output.obj
 0001:0003f978       ?state_case_normal_common@?$output_processor@DV?$string_output_adapter@D@__crt_stdio_output@@V?$positional_parameter_base@DV?$string_output_adapter@D@__crt_stdio_output@@@2@@__crt_stdio_output@@AEAA_NXZ 0000000140040978 f i libucrt:output.obj
 0001:0003fae4       ?state_case_normal_common@?$output_processor@DV?$string_output_adapter@D@__crt_stdio_output@@V?$standard_base@DV?$string_output_adapter@D@__crt_stdio_output@@@2@@__crt_stdio_output@@AEAA_NXZ 0000000140040ae4 f i libucrt:output.obj
 0001:0003fc50       ?state_case_normal_common@?$output_processor@_WV?$stream_output_adapter@_W@__crt_stdio_output@@V?$format_validation_base@_WV?$stream_output_adapter@_W@__crt_stdio_output@@@2@@__crt_stdio_output@@AEAA_NXZ 0000000140040c50 f i libucrt:output.obj
 0001:0003fcc4       ?state_case_normal_common@?$output_processor@_WV?$stream_output_adapter@_W@__crt_stdio_output@@V?$positional_parameter_base@_WV?$stream_output_adapter@_W@__crt_stdio_output@@@2@@__crt_stdio_output@@AEAA_NXZ 0000000140040cc4 f i libucrt:output.obj
 0001:0003fd38       ?state_case_normal_common@?$output_processor@_WV?$stream_output_adapter@_W@__crt_stdio_output@@V?$standard_base@_WV?$stream_output_adapter@_W@__crt_stdio_output@@@2@@__crt_stdio_output@@AEAA_NXZ 0000000140040d38 f i libucrt:output.obj
 0001:0003fdac       ?state_case_normal_common@?$output_processor@_WV?$string_output_adapter@_W@__crt_stdio_output@@V?$format_validation_base@_WV?$string_output_adapter@_W@__crt_stdio_output@@@2@@__crt_stdio_output@@AEAA_NXZ 0000000140040dac f i libucrt:output.obj
 0001:0003fe18       ?state_case_normal_common@?$output_processor@_WV?$string_output_adapter@_W@__crt_stdio_output@@V?$positional_parameter_base@_WV?$string_output_adapter@_W@__crt_stdio_output@@@2@@__crt_stdio_output@@AEAA_NXZ 0000000140040e18 f i libucrt:output.obj
 0001:0003fe84       ?state_case_normal_common@?$output_processor@_WV?$string_output_adapter@_W@__crt_stdio_output@@V?$standard_base@_WV?$string_output_adapter@_W@__crt_stdio_output@@@2@@__crt_stdio_output@@AEAA_NXZ 0000000140040e84 f i libucrt:output.obj
 0001:0003fef0       ?state_case_normal_tchar@?$output_processor@DV?$stream_output_adapter@D@__crt_stdio_output@@V?$format_validation_base@DV?$stream_output_adapter@D@__crt_stdio_output@@@2@@__crt_stdio_output@@AEAA_ND@Z 0000000140040ef0 f i libucrt:output.obj
 0001:00040004       ?state_case_normal_tchar@?$output_processor@DV?$stream_output_adapter@D@__crt_stdio_output@@V?$positional_parameter_base@DV?$stream_output_adapter@D@__crt_stdio_output@@@2@@__crt_stdio_output@@AEAA_ND@Z 0000000140041004 f i libucrt:output.obj
 0001:00040118       ?state_case_normal_tchar@?$output_processor@DV?$stream_output_adapter@D@__crt_stdio_output@@V?$standard_base@DV?$stream_output_adapter@D@__crt_stdio_output@@@2@@__crt_stdio_output@@AEAA_ND@Z 0000000140041118 f i libucrt:output.obj
 0001:0004022c       ?state_case_normal_tchar@?$output_processor@DV?$string_output_adapter@D@__crt_stdio_output@@V?$format_validation_base@DV?$string_output_adapter@D@__crt_stdio_output@@@2@@__crt_stdio_output@@AEAA_ND@Z 000000014004122c f i libucrt:output.obj
 0001:00040340       ?state_case_normal_tchar@?$output_processor@DV?$string_output_adapter@D@__crt_stdio_output@@V?$positional_parameter_base@DV?$string_output_adapter@D@__crt_stdio_output@@@2@@__crt_stdio_output@@AEAA_ND@Z 0000000140041340 f i libucrt:output.obj
 0001:00040454       ?state_case_normal_tchar@?$output_processor@DV?$string_output_adapter@D@__crt_stdio_output@@V?$standard_base@DV?$string_output_adapter@D@__crt_stdio_output@@@2@@__crt_stdio_output@@AEAA_ND@Z 0000000140041454 f i libucrt:output.obj
 0001:00040568       ?state_case_normal_tchar@?$output_processor@_WV?$stream_output_adapter@_W@__crt_stdio_output@@V?$format_validation_base@_WV?$stream_output_adapter@_W@__crt_stdio_output@@@2@@__crt_stdio_output@@AEAA_N_W@Z 0000000140041568 f i libucrt:output.obj
 0001:00040570       ?state_case_normal_tchar@?$output_processor@_WV?$stream_output_adapter@_W@__crt_stdio_output@@V?$positional_parameter_base@_WV?$stream_output_adapter@_W@__crt_stdio_output@@@2@@__crt_stdio_output@@AEAA_N_W@Z 0000000140041570 f i libucrt:output.obj
 0001:00040578       ?state_case_normal_tchar@?$output_processor@_WV?$stream_output_adapter@_W@__crt_stdio_output@@V?$standard_base@_WV?$stream_output_adapter@_W@__crt_stdio_output@@@2@@__crt_stdio_output@@AEAA_N_W@Z 0000000140041578 f i libucrt:output.obj
 0001:00040580       ?state_case_normal_tchar@?$output_processor@_WV?$string_output_adapter@_W@__crt_stdio_output@@V?$format_validation_base@_WV?$string_output_adapter@_W@__crt_stdio_output@@@2@@__crt_stdio_output@@AEAA_N_W@Z 0000000140041580 f i libucrt:output.obj
 0001:00040588       ?state_case_normal_tchar@?$output_processor@_WV?$string_output_adapter@_W@__crt_stdio_output@@V?$positional_parameter_base@_WV?$string_output_adapter@_W@__crt_stdio_output@@@2@@__crt_stdio_output@@AEAA_N_W@Z 0000000140041588 f i libucrt:output.obj
 0001:00040590       ?state_case_normal_tchar@?$output_processor@_WV?$string_output_adapter@_W@__crt_stdio_output@@V?$standard_base@_WV?$string_output_adapter@_W@__crt_stdio_output@@@2@@__crt_stdio_output@@AEAA_N_W@Z 0000000140041590 f i libucrt:output.obj
 0001:00040598       ?state_case_percent@?$output_processor@DV?$stream_output_adapter@D@__crt_stdio_output@@V?$format_validation_base@DV?$stream_output_adapter@D@__crt_stdio_output@@@2@@__crt_stdio_output@@AEAA_NXZ 0000000140041598 f i libucrt:output.obj
 0001:000405b4       ?state_case_percent@?$output_processor@DV?$stream_output_adapter@D@__crt_stdio_output@@V?$positional_parameter_base@DV?$stream_output_adapter@D@__crt_stdio_output@@@2@@__crt_stdio_output@@AEAA_NXZ 00000001400415b4 f i libucrt:output.obj
 0001:000405d0       ?state_case_percent@?$output_processor@DV?$stream_output_adapter@D@__crt_stdio_output@@V?$standard_base@DV?$stream_output_adapter@D@__crt_stdio_output@@@2@@__crt_stdio_output@@AEAA_NXZ 00000001400415d0 f i libucrt:output.obj
 0001:000405ec       ?state_case_percent@?$output_processor@DV?$string_output_adapter@D@__crt_stdio_output@@V?$format_validation_base@DV?$string_output_adapter@D@__crt_stdio_output@@@2@@__crt_stdio_output@@AEAA_NXZ 00000001400415ec f i libucrt:output.obj
 0001:00040608       ?state_case_percent@?$output_processor@DV?$string_output_adapter@D@__crt_stdio_output@@V?$positional_parameter_base@DV?$string_output_adapter@D@__crt_stdio_output@@@2@@__crt_stdio_output@@AEAA_NXZ 0000000140041608 f i libucrt:output.obj
 0001:00040624       ?state_case_percent@?$output_processor@DV?$string_output_adapter@D@__crt_stdio_output@@V?$standard_base@DV?$string_output_adapter@D@__crt_stdio_output@@@2@@__crt_stdio_output@@AEAA_NXZ 0000000140041624 f i libucrt:output.obj
 0001:00040640       ?state_case_percent@?$output_processor@_WV?$stream_output_adapter@_W@__crt_stdio_output@@V?$format_validation_base@_WV?$stream_output_adapter@_W@__crt_stdio_output@@@2@@__crt_stdio_output@@AEAA_NXZ 0000000140041640 f i libucrt:output.obj
 0001:0004065c       ?state_case_percent@?$output_processor@_WV?$stream_output_adapter@_W@__crt_stdio_output@@V?$positional_parameter_base@_WV?$stream_output_adapter@_W@__crt_stdio_output@@@2@@__crt_stdio_output@@AEAA_NXZ 000000014004165c f i libucrt:output.obj
 0001:00040678       ?state_case_percent@?$output_processor@_WV?$stream_output_adapter@_W@__crt_stdio_output@@V?$standard_base@_WV?$stream_output_adapter@_W@__crt_stdio_output@@@2@@__crt_stdio_output@@AEAA_NXZ 0000000140041678 f i libucrt:output.obj
 0001:00040694       ?state_case_percent@?$output_processor@_WV?$string_output_adapter@_W@__crt_stdio_output@@V?$format_validation_base@_WV?$string_output_adapter@_W@__crt_stdio_output@@@2@@__crt_stdio_output@@AEAA_NXZ 0000000140041694 f i libucrt:output.obj
 0001:000406b0       ?state_case_percent@?$output_processor@_WV?$string_output_adapter@_W@__crt_stdio_output@@V?$positional_parameter_base@_WV?$string_output_adapter@_W@__crt_stdio_output@@@2@@__crt_stdio_output@@AEAA_NXZ 00000001400416b0 f i libucrt:output.obj
 0001:000406cc       ?state_case_percent@?$output_processor@_WV?$string_output_adapter@_W@__crt_stdio_output@@V?$standard_base@_WV?$string_output_adapter@_W@__crt_stdio_output@@@2@@__crt_stdio_output@@AEAA_NXZ 00000001400416cc f i libucrt:output.obj
 0001:000406e8       ?state_case_precision@?$output_processor@DV?$stream_output_adapter@D@__crt_stdio_output@@V?$format_validation_base@DV?$stream_output_adapter@D@__crt_stdio_output@@@2@@__crt_stdio_output@@AEAA_NXZ 00000001400416e8 f i libucrt:output.obj
 0001:00040718       ?state_case_precision@?$output_processor@DV?$stream_output_adapter@D@__crt_stdio_output@@V?$positional_parameter_base@DV?$stream_output_adapter@D@__crt_stdio_output@@@2@@__crt_stdio_output@@AEAA_NXZ 0000000140041718 f i libucrt:output.obj
 0001:00040774       ?state_case_precision@?$output_processor@DV?$stream_output_adapter@D@__crt_stdio_output@@V?$standard_base@DV?$stream_output_adapter@D@__crt_stdio_output@@@2@@__crt_stdio_output@@AEAA_NXZ 0000000140041774 f i libucrt:output.obj
 0001:000407a4       ?state_case_precision@?$output_processor@DV?$string_output_adapter@D@__crt_stdio_output@@V?$format_validation_base@DV?$string_output_adapter@D@__crt_stdio_output@@@2@@__crt_stdio_output@@AEAA_NXZ 00000001400417a4 f i libucrt:output.obj
 0001:000407d4       ?state_case_precision@?$output_processor@DV?$string_output_adapter@D@__crt_stdio_output@@V?$positional_parameter_base@DV?$string_output_adapter@D@__crt_stdio_output@@@2@@__crt_stdio_output@@AEAA_NXZ 00000001400417d4 f i libucrt:output.obj
 0001:00040830       ?state_case_precision@?$output_processor@DV?$string_output_adapter@D@__crt_stdio_output@@V?$standard_base@DV?$string_output_adapter@D@__crt_stdio_output@@@2@@__crt_stdio_output@@AEAA_NXZ 0000000140041830 f i libucrt:output.obj
 0001:00040860       ?state_case_precision@?$output_processor@_WV?$stream_output_adapter@_W@__crt_stdio_output@@V?$format_validation_base@_WV?$stream_output_adapter@_W@__crt_stdio_output@@@2@@__crt_stdio_output@@AEAA_NXZ 0000000140041860 f i libucrt:output.obj
 0001:00040894       ?state_case_precision@?$output_processor@_WV?$stream_output_adapter@_W@__crt_stdio_output@@V?$positional_parameter_base@_WV?$stream_output_adapter@_W@__crt_stdio_output@@@2@@__crt_stdio_output@@AEAA_NXZ 0000000140041894 f i libucrt:output.obj
 0001:000408f4       ?state_case_precision@?$output_processor@_WV?$stream_output_adapter@_W@__crt_stdio_output@@V?$standard_base@_WV?$stream_output_adapter@_W@__crt_stdio_output@@@2@@__crt_stdio_output@@AEAA_NXZ 00000001400418f4 f i libucrt:output.obj
 0001:00040928       ?state_case_precision@?$output_processor@_WV?$string_output_adapter@_W@__crt_stdio_output@@V?$format_validation_base@_WV?$string_output_adapter@_W@__crt_stdio_output@@@2@@__crt_stdio_output@@AEAA_NXZ 0000000140041928 f i libucrt:output.obj
 0001:0004095c       ?state_case_precision@?$output_processor@_WV?$string_output_adapter@_W@__crt_stdio_output@@V?$positional_parameter_base@_WV?$string_output_adapter@_W@__crt_stdio_output@@@2@@__crt_stdio_output@@AEAA_NXZ 000000014004195c f i libucrt:output.obj
 0001:000409bc       ?state_case_precision@?$output_processor@_WV?$string_output_adapter@_W@__crt_stdio_output@@V?$standard_base@_WV?$string_output_adapter@_W@__crt_stdio_output@@@2@@__crt_stdio_output@@AEAA_NXZ 00000001400419bc f i libucrt:output.obj
 0001:000409f0       ?state_case_size@?$output_processor@DV?$stream_output_adapter@D@__crt_stdio_output@@V?$format_validation_base@DV?$stream_output_adapter@D@__crt_stdio_output@@@2@@__crt_stdio_output@@AEAA_NXZ 00000001400419f0 f i libucrt:output.obj
 0001:00040bd8       ?state_case_size@?$output_processor@DV?$stream_output_adapter@D@__crt_stdio_output@@V?$positional_parameter_base@DV?$stream_output_adapter@D@__crt_stdio_output@@@2@@__crt_stdio_output@@AEAA_NXZ 0000000140041bd8 f i libucrt:output.obj
 0001:00040dc0       ?state_case_size@?$output_processor@DV?$stream_output_adapter@D@__crt_stdio_output@@V?$standard_base@DV?$stream_output_adapter@D@__crt_stdio_output@@@2@@__crt_stdio_output@@AEAA_NXZ 0000000140041dc0 f i libucrt:output.obj
 0001:00040fa8       ?state_case_size@?$output_processor@DV?$string_output_adapter@D@__crt_stdio_output@@V?$format_validation_base@DV?$string_output_adapter@D@__crt_stdio_output@@@2@@__crt_stdio_output@@AEAA_NXZ 0000000140041fa8 f i libucrt:output.obj
 0001:00041190       ?state_case_size@?$output_processor@DV?$string_output_adapter@D@__crt_stdio_output@@V?$positional_parameter_base@DV?$string_output_adapter@D@__crt_stdio_output@@@2@@__crt_stdio_output@@AEAA_NXZ 0000000140042190 f i libucrt:output.obj
 0001:00041378       ?state_case_size@?$output_processor@DV?$string_output_adapter@D@__crt_stdio_output@@V?$standard_base@DV?$string_output_adapter@D@__crt_stdio_output@@@2@@__crt_stdio_output@@AEAA_NXZ 0000000140042378 f i libucrt:output.obj
 0001:00041560       ?state_case_size@?$output_processor@_WV?$stream_output_adapter@_W@__crt_stdio_output@@V?$format_validation_base@_WV?$stream_output_adapter@_W@__crt_stdio_output@@@2@@__crt_stdio_output@@AEAA_NXZ 0000000140042560 f i libucrt:output.obj
 0001:00041774       ?state_case_size@?$output_processor@_WV?$stream_output_adapter@_W@__crt_stdio_output@@V?$positional_parameter_base@_WV?$stream_output_adapter@_W@__crt_stdio_output@@@2@@__crt_stdio_output@@AEAA_NXZ 0000000140042774 f i libucrt:output.obj
 0001:00041988       ?state_case_size@?$output_processor@_WV?$stream_output_adapter@_W@__crt_stdio_output@@V?$standard_base@_WV?$stream_output_adapter@_W@__crt_stdio_output@@@2@@__crt_stdio_output@@AEAA_NXZ 0000000140042988 f i libucrt:output.obj
 0001:00041b9c       ?state_case_size@?$output_processor@_WV?$string_output_adapter@_W@__crt_stdio_output@@V?$format_validation_base@_WV?$string_output_adapter@_W@__crt_stdio_output@@@2@@__crt_stdio_output@@AEAA_NXZ 0000000140042b9c f i libucrt:output.obj
 0001:00041db0       ?state_case_size@?$output_processor@_WV?$string_output_adapter@_W@__crt_stdio_output@@V?$positional_parameter_base@_WV?$string_output_adapter@_W@__crt_stdio_output@@@2@@__crt_stdio_output@@AEAA_NXZ 0000000140042db0 f i libucrt:output.obj
 0001:00041fc4       ?state_case_size@?$output_processor@_WV?$string_output_adapter@_W@__crt_stdio_output@@V?$standard_base@_WV?$string_output_adapter@_W@__crt_stdio_output@@@2@@__crt_stdio_output@@AEAA_NXZ 0000000140042fc4 f i libucrt:output.obj
 0001:000421d8       ?state_case_type@?$output_processor@DV?$stream_output_adapter@D@__crt_stdio_output@@V?$format_validation_base@DV?$stream_output_adapter@D@__crt_stdio_output@@@2@@__crt_stdio_output@@AEAA_NXZ 00000001400431d8 f i libucrt:output.obj
 0001:00042718       ?state_case_type@?$output_processor@DV?$stream_output_adapter@D@__crt_stdio_output@@V?$positional_parameter_base@DV?$stream_output_adapter@D@__crt_stdio_output@@@2@@__crt_stdio_output@@AEAA_NXZ 0000000140043718 f i libucrt:output.obj
 0001:00042c74       ?state_case_type@?$output_processor@DV?$stream_output_adapter@D@__crt_stdio_output@@V?$standard_base@DV?$stream_output_adapter@D@__crt_stdio_output@@@2@@__crt_stdio_output@@AEAA_NXZ 0000000140043c74 f i libucrt:output.obj
 0001:000431b4       ?state_case_type@?$output_processor@DV?$string_output_adapter@D@__crt_stdio_output@@V?$format_validation_base@DV?$string_output_adapter@D@__crt_stdio_output@@@2@@__crt_stdio_output@@AEAA_NXZ 00000001400441b4 f i libucrt:output.obj
 0001:00043674       ?state_case_type@?$output_processor@DV?$string_output_adapter@D@__crt_stdio_output@@V?$positional_parameter_base@DV?$string_output_adapter@D@__crt_stdio_output@@@2@@__crt_stdio_output@@AEAA_NXZ 0000000140044674 f i libucrt:output.obj
 0001:00043b50       ?state_case_type@?$output_processor@DV?$string_output_adapter@D@__crt_stdio_output@@V?$standard_base@DV?$string_output_adapter@D@__crt_stdio_output@@@2@@__crt_stdio_output@@AEAA_NXZ 0000000140044b50 f i libucrt:output.obj
 0001:00044010       ?state_case_type@?$output_processor@_WV?$stream_output_adapter@_W@__crt_stdio_output@@V?$format_validation_base@_WV?$stream_output_adapter@_W@__crt_stdio_output@@@2@@__crt_stdio_output@@AEAA_NXZ 0000000140045010 f i libucrt:output.obj
 0001:00044614       ?state_case_type@?$output_processor@_WV?$stream_output_adapter@_W@__crt_stdio_output@@V?$positional_parameter_base@_WV?$stream_output_adapter@_W@__crt_stdio_output@@@2@@__crt_stdio_output@@AEAA_NXZ 0000000140045614 f i libucrt:output.obj
 0001:00044c34       ?state_case_type@?$output_processor@_WV?$stream_output_adapter@_W@__crt_stdio_output@@V?$standard_base@_WV?$stream_output_adapter@_W@__crt_stdio_output@@@2@@__crt_stdio_output@@AEAA_NXZ 0000000140045c34 f i libucrt:output.obj
 0001:00045238       ?state_case_type@?$output_processor@_WV?$string_output_adapter@_W@__crt_stdio_output@@V?$format_validation_base@_WV?$string_output_adapter@_W@__crt_stdio_output@@@2@@__crt_stdio_output@@AEAA_NXZ 0000000140046238 f i libucrt:output.obj
 0001:000457ac       ?state_case_type@?$output_processor@_WV?$string_output_adapter@_W@__crt_stdio_output@@V?$positional_parameter_base@_WV?$string_output_adapter@_W@__crt_stdio_output@@@2@@__crt_stdio_output@@AEAA_NXZ 00000001400467ac f i libucrt:output.obj
 0001:00045d3c       ?state_case_type@?$output_processor@_WV?$string_output_adapter@_W@__crt_stdio_output@@V?$standard_base@_WV?$string_output_adapter@_W@__crt_stdio_output@@@2@@__crt_stdio_output@@AEAA_NXZ 0000000140046d3c f i libucrt:output.obj
 0001:000462b0       ?state_case_width@?$output_processor@DV?$stream_output_adapter@D@__crt_stdio_output@@V?$format_validation_base@DV?$stream_output_adapter@D@__crt_stdio_output@@@2@@__crt_stdio_output@@AEAA_NXZ 00000001400472b0 f i libucrt:output.obj
 0001:000462f0       ?state_case_width@?$output_processor@DV?$stream_output_adapter@D@__crt_stdio_output@@V?$positional_parameter_base@DV?$stream_output_adapter@D@__crt_stdio_output@@@2@@__crt_stdio_output@@AEAA_NXZ 00000001400472f0 f i libucrt:output.obj
 0001:00046354       ?state_case_width@?$output_processor@DV?$stream_output_adapter@D@__crt_stdio_output@@V?$standard_base@DV?$stream_output_adapter@D@__crt_stdio_output@@@2@@__crt_stdio_output@@AEAA_NXZ 0000000140047354 f i libucrt:output.obj
 0001:00046394       ?state_case_width@?$output_processor@DV?$string_output_adapter@D@__crt_stdio_output@@V?$format_validation_base@DV?$string_output_adapter@D@__crt_stdio_output@@@2@@__crt_stdio_output@@AEAA_NXZ 0000000140047394 f i libucrt:output.obj
 0001:000463d4       ?state_case_width@?$output_processor@DV?$string_output_adapter@D@__crt_stdio_output@@V?$positional_parameter_base@DV?$string_output_adapter@D@__crt_stdio_output@@@2@@__crt_stdio_output@@AEAA_NXZ 00000001400473d4 f i libucrt:output.obj
 0001:00046438       ?state_case_width@?$output_processor@DV?$string_output_adapter@D@__crt_stdio_output@@V?$standard_base@DV?$string_output_adapter@D@__crt_stdio_output@@@2@@__crt_stdio_output@@AEAA_NXZ 0000000140047438 f i libucrt:output.obj
 0001:00046478       ?state_case_width@?$output_processor@_WV?$stream_output_adapter@_W@__crt_stdio_output@@V?$format_validation_base@_WV?$stream_output_adapter@_W@__crt_stdio_output@@@2@@__crt_stdio_output@@AEAA_NXZ 0000000140047478 f i libucrt:output.obj
 0001:000464b8       ?state_case_width@?$output_processor@_WV?$stream_output_adapter@_W@__crt_stdio_output@@V?$positional_parameter_base@_WV?$stream_output_adapter@_W@__crt_stdio_output@@@2@@__crt_stdio_output@@AEAA_NXZ 00000001400474b8 f i libucrt:output.obj
 0001:00046520       ?state_case_width@?$output_processor@_WV?$stream_output_adapter@_W@__crt_stdio_output@@V?$standard_base@_WV?$stream_output_adapter@_W@__crt_stdio_output@@@2@@__crt_stdio_output@@AEAA_NXZ 0000000140047520 f i libucrt:output.obj
 0001:00046560       ?state_case_width@?$output_processor@_WV?$string_output_adapter@_W@__crt_stdio_output@@V?$format_validation_base@_WV?$string_output_adapter@_W@__crt_stdio_output@@@2@@__crt_stdio_output@@AEAA_NXZ 0000000140047560 f i libucrt:output.obj
 0001:000465a0       ?state_case_width@?$output_processor@_WV?$string_output_adapter@_W@__crt_stdio_output@@V?$positional_parameter_base@_WV?$string_output_adapter@_W@__crt_stdio_output@@@2@@__crt_stdio_output@@AEAA_NXZ 00000001400475a0 f i libucrt:output.obj
 0001:00046608       ?state_case_width@?$output_processor@_WV?$string_output_adapter@_W@__crt_stdio_output@@V?$standard_base@_WV?$string_output_adapter@_W@__crt_stdio_output@@@2@@__crt_stdio_output@@AEAA_NXZ 0000000140047608 f i libucrt:output.obj
 0001:00046648       ?state_count@?$format_validation_base@DV?$stream_output_adapter@D@__crt_stdio_output@@@__crt_stdio_output@@KAIXZ 0000000140047648 f i libucrt:output.obj
 0001:00046650       ?state_count@?$format_validation_base@DV?$string_output_adapter@D@__crt_stdio_output@@@__crt_stdio_output@@KAIXZ 0000000140047650 f i libucrt:output.obj
 0001:00046658       ?state_count@?$format_validation_base@_WV?$stream_output_adapter@_W@__crt_stdio_output@@@__crt_stdio_output@@KAIXZ 0000000140047658 f i libucrt:output.obj
 0001:00046660       ?state_count@?$format_validation_base@_WV?$string_output_adapter@_W@__crt_stdio_output@@@__crt_stdio_output@@KAIXZ 0000000140047660 f i libucrt:output.obj
 0001:00046668       ?state_count@?$standard_base@DV?$stream_output_adapter@D@__crt_stdio_output@@@__crt_stdio_output@@KAIXZ 0000000140047668 f i libucrt:output.obj
 0001:00046670       ?state_count@?$standard_base@DV?$string_output_adapter@D@__crt_stdio_output@@@__crt_stdio_output@@KAIXZ 0000000140047670 f i libucrt:output.obj
 0001:00046678       ?state_count@?$standard_base@_WV?$stream_output_adapter@_W@__crt_stdio_output@@@__crt_stdio_output@@KAIXZ 0000000140047678 f i libucrt:output.obj
 0001:00046680       ?state_count@?$standard_base@_WV?$string_output_adapter@_W@__crt_stdio_output@@@__crt_stdio_output@@KAIXZ 0000000140047680 f i libucrt:output.obj
 0001:00046688       ?state_transition_table@?$format_validation_base@DV?$stream_output_adapter@D@__crt_stdio_output@@@__crt_stdio_output@@KAAEBV?$spectre_mitigated_lookup_table@Ustate_transition_pair@__crt_stdio_output@@$0IA@@2@XZ 0000000140047688 f i libucrt:output.obj
 0001:00046694       ?state_transition_table@?$format_validation_base@DV?$string_output_adapter@D@__crt_stdio_output@@@__crt_stdio_output@@KAAEBV?$spectre_mitigated_lookup_table@Ustate_transition_pair@__crt_stdio_output@@$0IA@@2@XZ 0000000140047694 f i libucrt:output.obj
 0001:000466a0       ?state_transition_table@?$format_validation_base@_WV?$stream_output_adapter@_W@__crt_stdio_output@@@__crt_stdio_output@@KAAEBV?$spectre_mitigated_lookup_table@Ustate_transition_pair@__crt_stdio_output@@$0IA@@2@XZ 00000001400476a0 f i libucrt:output.obj
 0001:000466ac       ?state_transition_table@?$format_validation_base@_WV?$string_output_adapter@_W@__crt_stdio_output@@@__crt_stdio_output@@KAAEBV?$spectre_mitigated_lookup_table@Ustate_transition_pair@__crt_stdio_output@@$0IA@@2@XZ 00000001400476ac f i libucrt:output.obj
 0001:000466b8       ?state_transition_table@?$standard_base@DV?$stream_output_adapter@D@__crt_stdio_output@@@__crt_stdio_output@@KAAEBV?$spectre_mitigated_lookup_table@Ustate_transition_pair@__crt_stdio_output@@$0IA@@2@XZ 00000001400476b8 f i libucrt:output.obj
 0001:000466c4       ?state_transition_table@?$standard_base@DV?$string_output_adapter@D@__crt_stdio_output@@@__crt_stdio_output@@KAAEBV?$spectre_mitigated_lookup_table@Ustate_transition_pair@__crt_stdio_output@@$0IA@@2@XZ 00000001400476c4 f i libucrt:output.obj
 0001:000466d0       ?state_transition_table@?$standard_base@_WV?$stream_output_adapter@_W@__crt_stdio_output@@@__crt_stdio_output@@KAAEBV?$spectre_mitigated_lookup_table@Ustate_transition_pair@__crt_stdio_output@@$0IA@@2@XZ 00000001400476d0 f i libucrt:output.obj
 0001:000466dc       ?state_transition_table@?$standard_base@_WV?$string_output_adapter@_W@__crt_stdio_output@@@__crt_stdio_output@@KAAEBV?$spectre_mitigated_lookup_table@Ustate_transition_pair@__crt_stdio_output@@$0IA@@2@XZ 00000001400476dc f i libucrt:output.obj
 0001:000466e8       ?tchar_string@?$common_data@D@__crt_stdio_output@@IEAAAEAPEADD@Z 00000001400476e8 f i libucrt:output.obj
 0001:000466f0       ?tchar_string@?$common_data@D@__crt_stdio_output@@IEAAAEAPEADXZ 00000001400476f0 f i libucrt:output.obj
 0001:000466f8       ?tchar_string@?$common_data@_W@__crt_stdio_output@@IEAAAEAPEA_WXZ 00000001400476f8 f i libucrt:output.obj
 0001:00046700       ?tchar_string@?$common_data@_W@__crt_stdio_output@@IEAAAEAPEA_W_W@Z 0000000140047700 f i libucrt:output.obj
 0001:00046708       ?to_integer_size@__crt_stdio_output@@YA_KW4length_modifier@1@@Z 0000000140047708 f i libucrt:output.obj
 0001:00046760       ?type_case_X@?$output_processor@DV?$stream_output_adapter@D@__crt_stdio_output@@V?$format_validation_base@DV?$stream_output_adapter@D@__crt_stdio_output@@@2@@__crt_stdio_output@@AEAA_NXZ 0000000140047760 f i libucrt:output.obj
 0001:00046768       ?type_case_X@?$output_processor@DV?$stream_output_adapter@D@__crt_stdio_output@@V?$positional_parameter_base@DV?$stream_output_adapter@D@__crt_stdio_output@@@2@@__crt_stdio_output@@AEAA_NXZ 0000000140047768 f i libucrt:output.obj
 0001:00046770       ?type_case_X@?$output_processor@DV?$stream_output_adapter@D@__crt_stdio_output@@V?$standard_base@DV?$stream_output_adapter@D@__crt_stdio_output@@@2@@__crt_stdio_output@@AEAA_NXZ 0000000140047770 f i libucrt:output.obj
 0001:00046778       ?type_case_X@?$output_processor@DV?$string_output_adapter@D@__crt_stdio_output@@V?$format_validation_base@DV?$string_output_adapter@D@__crt_stdio_output@@@2@@__crt_stdio_output@@AEAA_NXZ 0000000140047778 f i libucrt:output.obj
 0001:00046780       ?type_case_X@?$output_processor@DV?$string_output_adapter@D@__crt_stdio_output@@V?$positional_parameter_base@DV?$string_output_adapter@D@__crt_stdio_output@@@2@@__crt_stdio_output@@AEAA_NXZ 0000000140047780 f i libucrt:output.obj
 0001:00046788       ?type_case_X@?$output_processor@DV?$string_output_adapter@D@__crt_stdio_output@@V?$standard_base@DV?$string_output_adapter@D@__crt_stdio_output@@@2@@__crt_stdio_output@@AEAA_NXZ 0000000140047788 f i libucrt:output.obj
 0001:00046790       ?type_case_X@?$output_processor@_WV?$stream_output_adapter@_W@__crt_stdio_output@@V?$format_validation_base@_WV?$stream_output_adapter@_W@__crt_stdio_output@@@2@@__crt_stdio_output@@AEAA_NXZ 0000000140047790 f i libucrt:output.obj
 0001:00046798       ?type_case_X@?$output_processor@_WV?$stream_output_adapter@_W@__crt_stdio_output@@V?$positional_parameter_base@_WV?$stream_output_adapter@_W@__crt_stdio_output@@@2@@__crt_stdio_output@@AEAA_NXZ 0000000140047798 f i libucrt:output.obj
 0001:000467a0       ?type_case_X@?$output_processor@_WV?$stream_output_adapter@_W@__crt_stdio_output@@V?$standard_base@_WV?$stream_output_adapter@_W@__crt_stdio_output@@@2@@__crt_stdio_output@@AEAA_NXZ 00000001400477a0 f i libucrt:output.obj
 0001:000467a8       ?type_case_X@?$output_processor@_WV?$string_output_adapter@_W@__crt_stdio_output@@V?$format_validation_base@_WV?$string_output_adapter@_W@__crt_stdio_output@@@2@@__crt_stdio_output@@AEAA_NXZ 00000001400477a8 f i libucrt:output.obj
 0001:000467b0       ?type_case_X@?$output_processor@_WV?$string_output_adapter@_W@__crt_stdio_output@@V?$positional_parameter_base@_WV?$string_output_adapter@_W@__crt_stdio_output@@@2@@__crt_stdio_output@@AEAA_NXZ 00000001400477b0 f i libucrt:output.obj
 0001:000467b8       ?type_case_X@?$output_processor@_WV?$string_output_adapter@_W@__crt_stdio_output@@V?$standard_base@_WV?$string_output_adapter@_W@__crt_stdio_output@@@2@@__crt_stdio_output@@AEAA_NXZ 00000001400477b8 f i libucrt:output.obj
 0001:000467c0       ?type_case_Z@?$output_processor@DV?$stream_output_adapter@D@__crt_stdio_output@@V?$format_validation_base@DV?$stream_output_adapter@D@__crt_stdio_output@@@2@@__crt_stdio_output@@AEAA_NXZ 00000001400477c0 f i libucrt:output.obj
 0001:00046858       ?type_case_Z@?$output_processor@DV?$stream_output_adapter@D@__crt_stdio_output@@V?$positional_parameter_base@DV?$stream_output_adapter@D@__crt_stdio_output@@@2@@__crt_stdio_output@@AEAA_NXZ 0000000140047858 f i libucrt:output.obj
 0001:00046928       ?type_case_Z@?$output_processor@DV?$stream_output_adapter@D@__crt_stdio_output@@V?$standard_base@DV?$stream_output_adapter@D@__crt_stdio_output@@@2@@__crt_stdio_output@@AEAA_NXZ 0000000140047928 f i libucrt:output.obj
 0001:000469c0       ?type_case_Z@?$output_processor@DV?$string_output_adapter@D@__crt_stdio_output@@V?$format_validation_base@DV?$string_output_adapter@D@__crt_stdio_output@@@2@@__crt_stdio_output@@AEAA_NXZ 00000001400479c0 f i libucrt:output.obj
 0001:00046a58       ?type_case_Z@?$output_processor@DV?$string_output_adapter@D@__crt_stdio_output@@V?$positional_parameter_base@DV?$string_output_adapter@D@__crt_stdio_output@@@2@@__crt_stdio_output@@AEAA_NXZ 0000000140047a58 f i libucrt:output.obj
 0001:00046b28       ?type_case_Z@?$output_processor@DV?$string_output_adapter@D@__crt_stdio_output@@V?$standard_base@DV?$string_output_adapter@D@__crt_stdio_output@@@2@@__crt_stdio_output@@AEAA_NXZ 0000000140047b28 f i libucrt:output.obj
 0001:00046bc0       ?type_case_Z@?$output_processor@_WV?$stream_output_adapter@_W@__crt_stdio_output@@V?$format_validation_base@_WV?$stream_output_adapter@_W@__crt_stdio_output@@@2@@__crt_stdio_output@@AEAA_NXZ 0000000140047bc0 f i libucrt:output.obj
 0001:00046c58       ?type_case_Z@?$output_processor@_WV?$stream_output_adapter@_W@__crt_stdio_output@@V?$positional_parameter_base@_WV?$stream_output_adapter@_W@__crt_stdio_output@@@2@@__crt_stdio_output@@AEAA_NXZ 0000000140047c58 f i libucrt:output.obj
 0001:00046d14       ?type_case_Z@?$output_processor@_WV?$stream_output_adapter@_W@__crt_stdio_output@@V?$standard_base@_WV?$stream_output_adapter@_W@__crt_stdio_output@@@2@@__crt_stdio_output@@AEAA_NXZ 0000000140047d14 f i libucrt:output.obj
 0001:00046dac       ?type_case_Z@?$output_processor@_WV?$string_output_adapter@_W@__crt_stdio_output@@V?$format_validation_base@_WV?$string_output_adapter@_W@__crt_stdio_output@@@2@@__crt_stdio_output@@AEAA_NXZ 0000000140047dac f i libucrt:output.obj
 0001:00046e44       ?type_case_Z@?$output_processor@_WV?$string_output_adapter@_W@__crt_stdio_output@@V?$positional_parameter_base@_WV?$string_output_adapter@_W@__crt_stdio_output@@@2@@__crt_stdio_output@@AEAA_NXZ 0000000140047e44 f i libucrt:output.obj
 0001:00046f00       ?type_case_Z@?$output_processor@_WV?$string_output_adapter@_W@__crt_stdio_output@@V?$standard_base@_WV?$string_output_adapter@_W@__crt_stdio_output@@@2@@__crt_stdio_output@@AEAA_NXZ 0000000140047f00 f i libucrt:output.obj
 0001:00046f98       ?type_case_a@?$output_processor@DV?$stream_output_adapter@D@__crt_stdio_output@@V?$format_validation_base@DV?$stream_output_adapter@D@__crt_stdio_output@@@2@@__crt_stdio_output@@AEAA_NXZ 0000000140047f98 f i libucrt:output.obj
 0001:00047274       ?type_case_a@?$output_processor@DV?$stream_output_adapter@D@__crt_stdio_output@@V?$positional_parameter_base@DV?$stream_output_adapter@D@__crt_stdio_output@@@2@@__crt_stdio_output@@AEAA_NXZ 0000000140048274 f i libucrt:output.obj
 0001:00047590       ?type_case_a@?$output_processor@DV?$stream_output_adapter@D@__crt_stdio_output@@V?$standard_base@DV?$stream_output_adapter@D@__crt_stdio_output@@@2@@__crt_stdio_output@@AEAA_NXZ 0000000140048590 f i libucrt:output.obj
 0001:0004786c       ?type_case_a@?$output_processor@DV?$string_output_adapter@D@__crt_stdio_output@@V?$format_validation_base@DV?$string_output_adapter@D@__crt_stdio_output@@@2@@__crt_stdio_output@@AEAA_NXZ 000000014004886c f i libucrt:output.obj
 0001:00047b48       ?type_case_a@?$output_processor@DV?$string_output_adapter@D@__crt_stdio_output@@V?$positional_parameter_base@DV?$string_output_adapter@D@__crt_stdio_output@@@2@@__crt_stdio_output@@AEAA_NXZ 0000000140048b48 f i libucrt:output.obj
 0001:00047e64       ?type_case_a@?$output_processor@DV?$string_output_adapter@D@__crt_stdio_output@@V?$standard_base@DV?$string_output_adapter@D@__crt_stdio_output@@@2@@__crt_stdio_output@@AEAA_NXZ 0000000140048e64 f i libucrt:output.obj
 0001:00048140       ?type_case_a@?$output_processor@_WV?$stream_output_adapter@_W@__crt_stdio_output@@V?$format_validation_base@_WV?$stream_output_adapter@_W@__crt_stdio_output@@@2@@__crt_stdio_output@@AEAA_NXZ 0000000140049140 f i libucrt:output.obj
 0001:00048438       ?type_case_a@?$output_processor@_WV?$stream_output_adapter@_W@__crt_stdio_output@@V?$positional_parameter_base@_WV?$stream_output_adapter@_W@__crt_stdio_output@@@2@@__crt_stdio_output@@AEAA_NXZ 0000000140049438 f i libucrt:output.obj
 0001:00048770       ?type_case_a@?$output_processor@_WV?$stream_output_adapter@_W@__crt_stdio_output@@V?$standard_base@_WV?$stream_output_adapter@_W@__crt_stdio_output@@@2@@__crt_stdio_output@@AEAA_NXZ 0000000140049770 f i libucrt:output.obj
 0001:00048a68       ?type_case_a@?$output_processor@_WV?$string_output_adapter@_W@__crt_stdio_output@@V?$format_validation_base@_WV?$string_output_adapter@_W@__crt_stdio_output@@@2@@__crt_stdio_output@@AEAA_NXZ 0000000140049a68 f i libucrt:output.obj
 0001:00048d60       ?type_case_a@?$output_processor@_WV?$string_output_adapter@_W@__crt_stdio_output@@V?$positional_parameter_base@_WV?$string_output_adapter@_W@__crt_stdio_output@@@2@@__crt_stdio_output@@AEAA_NXZ 0000000140049d60 f i libucrt:output.obj
 0001:00049098       ?type_case_a@?$output_processor@_WV?$string_output_adapter@_W@__crt_stdio_output@@V?$standard_base@_WV?$string_output_adapter@_W@__crt_stdio_output@@@2@@__crt_stdio_output@@AEAA_NXZ 000000014004a098 f i libucrt:output.obj
 0001:00049390       ?type_case_c@?$output_processor@DV?$stream_output_adapter@D@__crt_stdio_output@@V?$format_validation_base@DV?$stream_output_adapter@D@__crt_stdio_output@@@2@@__crt_stdio_output@@AEAA_NXZ 000000014004a390 f i libucrt:output.obj
 0001:00049398       ?type_case_c@?$output_processor@DV?$stream_output_adapter@D@__crt_stdio_output@@V?$positional_parameter_base@DV?$stream_output_adapter@D@__crt_stdio_output@@@2@@__crt_stdio_output@@AEAA_NXZ 000000014004a398 f i libucrt:output.obj
 0001:000493a0       ?type_case_c@?$output_processor@DV?$stream_output_adapter@D@__crt_stdio_output@@V?$standard_base@DV?$stream_output_adapter@D@__crt_stdio_output@@@2@@__crt_stdio_output@@AEAA_NXZ 000000014004a3a0 f i libucrt:output.obj
 0001:000493a8       ?type_case_c@?$output_processor@DV?$string_output_adapter@D@__crt_stdio_output@@V?$format_validation_base@DV?$string_output_adapter@D@__crt_stdio_output@@@2@@__crt_stdio_output@@AEAA_NXZ 000000014004a3a8 f i libucrt:output.obj
 0001:000493b0       ?type_case_c@?$output_processor@DV?$string_output_adapter@D@__crt_stdio_output@@V?$positional_parameter_base@DV?$string_output_adapter@D@__crt_stdio_output@@@2@@__crt_stdio_output@@AEAA_NXZ 000000014004a3b0 f i libucrt:output.obj
 0001:000493b8       ?type_case_c@?$output_processor@DV?$string_output_adapter@D@__crt_stdio_output@@V?$standard_base@DV?$string_output_adapter@D@__crt_stdio_output@@@2@@__crt_stdio_output@@AEAA_NXZ 000000014004a3b8 f i libucrt:output.obj
 0001:000493c0       ?type_case_c@?$output_processor@_WV?$stream_output_adapter@_W@__crt_stdio_output@@V?$format_validation_base@_WV?$stream_output_adapter@_W@__crt_stdio_output@@@2@@__crt_stdio_output@@AEAA_NXZ 000000014004a3c0 f i libucrt:output.obj
 0001:000493c8       ?type_case_c@?$output_processor@_WV?$stream_output_adapter@_W@__crt_stdio_output@@V?$positional_parameter_base@_WV?$stream_output_adapter@_W@__crt_stdio_output@@@2@@__crt_stdio_output@@AEAA_NXZ 000000014004a3c8 f i libucrt:output.obj
 0001:000493d0       ?type_case_c@?$output_processor@_WV?$stream_output_adapter@_W@__crt_stdio_output@@V?$standard_base@_WV?$stream_output_adapter@_W@__crt_stdio_output@@@2@@__crt_stdio_output@@AEAA_NXZ 000000014004a3d0 f i libucrt:output.obj
 0001:000493d8       ?type_case_c@?$output_processor@_WV?$string_output_adapter@_W@__crt_stdio_output@@V?$format_validation_base@_WV?$string_output_adapter@_W@__crt_stdio_output@@@2@@__crt_stdio_output@@AEAA_NXZ 000000014004a3d8 f i libucrt:output.obj
 0001:000493e0       ?type_case_c@?$output_processor@_WV?$string_output_adapter@_W@__crt_stdio_output@@V?$positional_parameter_base@_WV?$string_output_adapter@_W@__crt_stdio_output@@@2@@__crt_stdio_output@@AEAA_NXZ 000000014004a3e0 f i libucrt:output.obj
 0001:000493e8       ?type_case_c@?$output_processor@_WV?$string_output_adapter@_W@__crt_stdio_output@@V?$standard_base@_WV?$string_output_adapter@_W@__crt_stdio_output@@@2@@__crt_stdio_output@@AEAA_NXZ 000000014004a3e8 f i libucrt:output.obj
 0001:000493f0       ?type_case_c_tchar@?$output_processor@DV?$stream_output_adapter@D@__crt_stdio_output@@V?$format_validation_base@DV?$stream_output_adapter@D@__crt_stdio_output@@@2@@__crt_stdio_output@@AEAA_ND@Z 000000014004a3f0 f i libucrt:output.obj
 0001:000494e4       ?type_case_c_tchar@?$output_processor@DV?$stream_output_adapter@D@__crt_stdio_output@@V?$positional_parameter_base@DV?$stream_output_adapter@D@__crt_stdio_output@@@2@@__crt_stdio_output@@AEAA_ND@Z 000000014004a4e4 f i libucrt:output.obj
 0001:00049630       ?type_case_c_tchar@?$output_processor@DV?$stream_output_adapter@D@__crt_stdio_output@@V?$standard_base@DV?$stream_output_adapter@D@__crt_stdio_output@@@2@@__crt_stdio_output@@AEAA_ND@Z 000000014004a630 f i libucrt:output.obj
 0001:00049724       ?type_case_c_tchar@?$output_processor@DV?$string_output_adapter@D@__crt_stdio_output@@V?$format_validation_base@DV?$string_output_adapter@D@__crt_stdio_output@@@2@@__crt_stdio_output@@AEAA_ND@Z 000000014004a724 f i libucrt:output.obj
 0001:00049818       ?type_case_c_tchar@?$output_processor@DV?$string_output_adapter@D@__crt_stdio_output@@V?$positional_parameter_base@DV?$string_output_adapter@D@__crt_stdio_output@@@2@@__crt_stdio_output@@AEAA_ND@Z 000000014004a818 f i libucrt:output.obj
 0001:00049964       ?type_case_c_tchar@?$output_processor@DV?$string_output_adapter@D@__crt_stdio_output@@V?$standard_base@DV?$string_output_adapter@D@__crt_stdio_output@@@2@@__crt_stdio_output@@AEAA_ND@Z 000000014004a964 f i libucrt:output.obj
 0001:00049a58       ?type_case_c_tchar@?$output_processor@_WV?$stream_output_adapter@_W@__crt_stdio_output@@V?$format_validation_base@_WV?$stream_output_adapter@_W@__crt_stdio_output@@@2@@__crt_stdio_output@@AEAA_N_W@Z 000000014004aa58 f i libucrt:output.obj
 0001:00049b4c       ?type_case_c_tchar@?$output_processor@_WV?$stream_output_adapter@_W@__crt_stdio_output@@V?$positional_parameter_base@_WV?$stream_output_adapter@_W@__crt_stdio_output@@@2@@__crt_stdio_output@@AEAA_N_W@Z 000000014004ab4c f i libucrt:output.obj
 0001:00049c80       ?type_case_c_tchar@?$output_processor@_WV?$stream_output_adapter@_W@__crt_stdio_output@@V?$standard_base@_WV?$stream_output_adapter@_W@__crt_stdio_output@@@2@@__crt_stdio_output@@AEAA_N_W@Z 000000014004ac80 f i libucrt:output.obj
 0001:00049d74       ?type_case_c_tchar@?$output_processor@_WV?$string_output_adapter@_W@__crt_stdio_output@@V?$format_validation_base@_WV?$string_output_adapter@_W@__crt_stdio_output@@@2@@__crt_stdio_output@@AEAA_N_W@Z 000000014004ad74 f i libucrt:output.obj
 0001:00049e68       ?type_case_c_tchar@?$output_processor@_WV?$string_output_adapter@_W@__crt_stdio_output@@V?$positional_parameter_base@_WV?$string_output_adapter@_W@__crt_stdio_output@@@2@@__crt_stdio_output@@AEAA_N_W@Z 000000014004ae68 f i libucrt:output.obj
 0001:00049f9c       ?type_case_c_tchar@?$output_processor@_WV?$string_output_adapter@_W@__crt_stdio_output@@V?$standard_base@_WV?$string_output_adapter@_W@__crt_stdio_output@@@2@@__crt_stdio_output@@AEAA_N_W@Z 000000014004af9c f i libucrt:output.obj
 0001:0004a090       ?type_case_d@?$output_processor@DV?$stream_output_adapter@D@__crt_stdio_output@@V?$format_validation_base@DV?$stream_output_adapter@D@__crt_stdio_output@@@2@@__crt_stdio_output@@AEAA_NXZ 000000014004b090 f i libucrt:output.obj
 0001:0004a0a0       ?type_case_d@?$output_processor@DV?$stream_output_adapter@D@__crt_stdio_output@@V?$positional_parameter_base@DV?$stream_output_adapter@D@__crt_stdio_output@@@2@@__crt_stdio_output@@AEAA_NXZ 000000014004b0a0 f i libucrt:output.obj
 0001:0004a0b0       ?type_case_d@?$output_processor@DV?$stream_output_adapter@D@__crt_stdio_output@@V?$standard_base@DV?$stream_output_adapter@D@__crt_stdio_output@@@2@@__crt_stdio_output@@AEAA_NXZ 000000014004b0b0 f i libucrt:output.obj
 0001:0004a0c0       ?type_case_d@?$output_processor@DV?$string_output_adapter@D@__crt_stdio_output@@V?$format_validation_base@DV?$string_output_adapter@D@__crt_stdio_output@@@2@@__crt_stdio_output@@AEAA_NXZ 000000014004b0c0 f i libucrt:output.obj
 0001:0004a0d0       ?type_case_d@?$output_processor@DV?$string_output_adapter@D@__crt_stdio_output@@V?$positional_parameter_base@DV?$string_output_adapter@D@__crt_stdio_output@@@2@@__crt_stdio_output@@AEAA_NXZ 000000014004b0d0 f i libucrt:output.obj
 0001:0004a0e0       ?type_case_d@?$output_processor@DV?$string_output_adapter@D@__crt_stdio_output@@V?$standard_base@DV?$string_output_adapter@D@__crt_stdio_output@@@2@@__crt_stdio_output@@AEAA_NXZ 000000014004b0e0 f i libucrt:output.obj
 0001:0004a0f0       ?type_case_d@?$output_processor@_WV?$stream_output_adapter@_W@__crt_stdio_output@@V?$format_validation_base@_WV?$stream_output_adapter@_W@__crt_stdio_output@@@2@@__crt_stdio_output@@AEAA_NXZ 000000014004b0f0 f i libucrt:output.obj
 0001:0004a100       ?type_case_d@?$output_processor@_WV?$stream_output_adapter@_W@__crt_stdio_output@@V?$positional_parameter_base@_WV?$stream_output_adapter@_W@__crt_stdio_output@@@2@@__crt_stdio_output@@AEAA_NXZ 000000014004b100 f i libucrt:output.obj
 0001:0004a110       ?type_case_d@?$output_processor@_WV?$stream_output_adapter@_W@__crt_stdio_output@@V?$standard_base@_WV?$stream_output_adapter@_W@__crt_stdio_output@@@2@@__crt_stdio_output@@AEAA_NXZ 000000014004b110 f i libucrt:output.obj
 0001:0004a120       ?type_case_d@?$output_processor@_WV?$string_output_adapter@_W@__crt_stdio_output@@V?$format_validation_base@_WV?$string_output_adapter@_W@__crt_stdio_output@@@2@@__crt_stdio_output@@AEAA_NXZ 000000014004b120 f i libucrt:output.obj
 0001:0004a130       ?type_case_d@?$output_processor@_WV?$string_output_adapter@_W@__crt_stdio_output@@V?$positional_parameter_base@_WV?$string_output_adapter@_W@__crt_stdio_output@@@2@@__crt_stdio_output@@AEAA_NXZ 000000014004b130 f i libucrt:output.obj
 0001:0004a140       ?type_case_d@?$output_processor@_WV?$string_output_adapter@_W@__crt_stdio_output@@V?$standard_base@_WV?$string_output_adapter@_W@__crt_stdio_output@@@2@@__crt_stdio_output@@AEAA_NXZ 000000014004b140 f i libucrt:output.obj
 0001:0004a150       ?type_case_n@?$output_processor@DV?$stream_output_adapter@D@__crt_stdio_output@@V?$format_validation_base@DV?$stream_output_adapter@D@__crt_stdio_output@@@2@@__crt_stdio_output@@AEAA_NXZ 000000014004b150 f i libucrt:output.obj
 0001:0004a234       ?type_case_n@?$output_processor@DV?$stream_output_adapter@D@__crt_stdio_output@@V?$positional_parameter_base@DV?$stream_output_adapter@D@__crt_stdio_output@@@2@@__crt_stdio_output@@AEAA_NXZ 000000014004b234 f i libucrt:output.obj
 0001:0004a350       ?type_case_n@?$output_processor@DV?$stream_output_adapter@D@__crt_stdio_output@@V?$standard_base@DV?$stream_output_adapter@D@__crt_stdio_output@@@2@@__crt_stdio_output@@AEAA_NXZ 000000014004b350 f i libucrt:output.obj
 0001:0004a434       ?type_case_n@?$output_processor@DV?$string_output_adapter@D@__crt_stdio_output@@V?$format_validation_base@DV?$string_output_adapter@D@__crt_stdio_output@@@2@@__crt_stdio_output@@AEAA_NXZ 000000014004b434 f i libucrt:output.obj
 0001:0004a518       ?type_case_n@?$output_processor@DV?$string_output_adapter@D@__crt_stdio_output@@V?$positional_parameter_base@DV?$string_output_adapter@D@__crt_stdio_output@@@2@@__crt_stdio_output@@AEAA_NXZ 000000014004b518 f i libucrt:output.obj
 0001:0004a634       ?type_case_n@?$output_processor@DV?$string_output_adapter@D@__crt_stdio_output@@V?$standard_base@DV?$string_output_adapter@D@__crt_stdio_output@@@2@@__crt_stdio_output@@AEAA_NXZ 000000014004b634 f i libucrt:output.obj
 0001:0004a718       ?type_case_n@?$output_processor@_WV?$stream_output_adapter@_W@__crt_stdio_output@@V?$format_validation_base@_WV?$stream_output_adapter@_W@__crt_stdio_output@@@2@@__crt_stdio_output@@AEAA_NXZ 000000014004b718 f i libucrt:output.obj
 0001:0004a7fc       ?type_case_n@?$output_processor@_WV?$stream_output_adapter@_W@__crt_stdio_output@@V?$positional_parameter_base@_WV?$stream_output_adapter@_W@__crt_stdio_output@@@2@@__crt_stdio_output@@AEAA_NXZ 000000014004b7fc f i libucrt:output.obj
 0001:0004a918       ?type_case_n@?$output_processor@_WV?$stream_output_adapter@_W@__crt_stdio_output@@V?$standard_base@_WV?$stream_output_adapter@_W@__crt_stdio_output@@@2@@__crt_stdio_output@@AEAA_NXZ 000000014004b918 f i libucrt:output.obj
 0001:0004a9fc       ?type_case_n@?$output_processor@_WV?$string_output_adapter@_W@__crt_stdio_output@@V?$format_validation_base@_WV?$string_output_adapter@_W@__crt_stdio_output@@@2@@__crt_stdio_output@@AEAA_NXZ 000000014004b9fc f i libucrt:output.obj
 0001:0004aae0       ?type_case_n@?$output_processor@_WV?$string_output_adapter@_W@__crt_stdio_output@@V?$positional_parameter_base@_WV?$string_output_adapter@_W@__crt_stdio_output@@@2@@__crt_stdio_output@@AEAA_NXZ 000000014004bae0 f i libucrt:output.obj
 0001:0004abfc       ?type_case_n@?$output_processor@_WV?$string_output_adapter@_W@__crt_stdio_output@@V?$standard_base@_WV?$string_output_adapter@_W@__crt_stdio_output@@@2@@__crt_stdio_output@@AEAA_NXZ 000000014004bbfc f i libucrt:output.obj
 0001:0004ace0       ?type_case_o@?$output_processor@DV?$stream_output_adapter@D@__crt_stdio_output@@V?$format_validation_base@DV?$stream_output_adapter@D@__crt_stdio_output@@@2@@__crt_stdio_output@@AEAA_NXZ 000000014004bce0 f i libucrt:output.obj
 0001:0004ad00       ?type_case_o@?$output_processor@DV?$stream_output_adapter@D@__crt_stdio_output@@V?$positional_parameter_base@DV?$stream_output_adapter@D@__crt_stdio_output@@@2@@__crt_stdio_output@@AEAA_NXZ 000000014004bd00 f i libucrt:output.obj
 0001:0004ad20       ?type_case_o@?$output_processor@DV?$stream_output_adapter@D@__crt_stdio_output@@V?$standard_base@DV?$stream_output_adapter@D@__crt_stdio_output@@@2@@__crt_stdio_output@@AEAA_NXZ 000000014004bd20 f i libucrt:output.obj
 0001:0004ad40       ?type_case_o@?$output_processor@DV?$string_output_adapter@D@__crt_stdio_output@@V?$format_validation_base@DV?$string_output_adapter@D@__crt_stdio_output@@@2@@__crt_stdio_output@@AEAA_NXZ 000000014004bd40 f i libucrt:output.obj
 0001:0004ad60       ?type_case_o@?$output_processor@DV?$string_output_adapter@D@__crt_stdio_output@@V?$positional_parameter_base@DV?$string_output_adapter@D@__crt_stdio_output@@@2@@__crt_stdio_output@@AEAA_NXZ 000000014004bd60 f i libucrt:output.obj
 0001:0004ad80       ?type_case_o@?$output_processor@DV?$string_output_adapter@D@__crt_stdio_output@@V?$standard_base@DV?$string_output_adapter@D@__crt_stdio_output@@@2@@__crt_stdio_output@@AEAA_NXZ 000000014004bd80 f i libucrt:output.obj
 0001:0004ada0       ?type_case_o@?$output_processor@_WV?$stream_output_adapter@_W@__crt_stdio_output@@V?$format_validation_base@_WV?$stream_output_adapter@_W@__crt_stdio_output@@@2@@__crt_stdio_output@@AEAA_NXZ 000000014004bda0 f i libucrt:output.obj
 0001:0004adc0       ?type_case_o@?$output_processor@_WV?$stream_output_adapter@_W@__crt_stdio_output@@V?$positional_parameter_base@_WV?$stream_output_adapter@_W@__crt_stdio_output@@@2@@__crt_stdio_output@@AEAA_NXZ 000000014004bdc0 f i libucrt:output.obj
 0001:0004ade0       ?type_case_o@?$output_processor@_WV?$stream_output_adapter@_W@__crt_stdio_output@@V?$standard_base@_WV?$stream_output_adapter@_W@__crt_stdio_output@@@2@@__crt_stdio_output@@AEAA_NXZ 000000014004bde0 f i libucrt:output.obj
 0001:0004ae00       ?type_case_o@?$output_processor@_WV?$string_output_adapter@_W@__crt_stdio_output@@V?$format_validation_base@_WV?$string_output_adapter@_W@__crt_stdio_output@@@2@@__crt_stdio_output@@AEAA_NXZ 000000014004be00 f i libucrt:output.obj
 0001:0004ae20       ?type_case_o@?$output_processor@_WV?$string_output_adapter@_W@__crt_stdio_output@@V?$positional_parameter_base@_WV?$string_output_adapter@_W@__crt_stdio_output@@@2@@__crt_stdio_output@@AEAA_NXZ 000000014004be20 f i libucrt:output.obj
 0001:0004ae40       ?type_case_o@?$output_processor@_WV?$string_output_adapter@_W@__crt_stdio_output@@V?$standard_base@_WV?$string_output_adapter@_W@__crt_stdio_output@@@2@@__crt_stdio_output@@AEAA_NXZ 000000014004be40 f i libucrt:output.obj
 0001:0004ae60       ?type_case_p@?$output_processor@DV?$stream_output_adapter@D@__crt_stdio_output@@V?$format_validation_base@DV?$stream_output_adapter@D@__crt_stdio_output@@@2@@__crt_stdio_output@@AEAA_NXZ 000000014004be60 f i libucrt:output.obj
 0001:0004ae7c       ?type_case_p@?$output_processor@DV?$stream_output_adapter@D@__crt_stdio_output@@V?$positional_parameter_base@DV?$stream_output_adapter@D@__crt_stdio_output@@@2@@__crt_stdio_output@@AEAA_NXZ 000000014004be7c f i libucrt:output.obj
 0001:0004ae98       ?type_case_p@?$output_processor@DV?$stream_output_adapter@D@__crt_stdio_output@@V?$standard_base@DV?$stream_output_adapter@D@__crt_stdio_output@@@2@@__crt_stdio_output@@AEAA_NXZ 000000014004be98 f i libucrt:output.obj
 0001:0004aeb4       ?type_case_p@?$output_processor@DV?$string_output_adapter@D@__crt_stdio_output@@V?$format_validation_base@DV?$string_output_adapter@D@__crt_stdio_output@@@2@@__crt_stdio_output@@AEAA_NXZ 000000014004beb4 f i libucrt:output.obj
 0001:0004aed0       ?type_case_p@?$output_processor@DV?$string_output_adapter@D@__crt_stdio_output@@V?$positional_parameter_base@DV?$string_output_adapter@D@__crt_stdio_output@@@2@@__crt_stdio_output@@AEAA_NXZ 000000014004bed0 f i libucrt:output.obj
 0001:0004aeec       ?type_case_p@?$output_processor@DV?$string_output_adapter@D@__crt_stdio_output@@V?$standard_base@DV?$string_output_adapter@D@__crt_stdio_output@@@2@@__crt_stdio_output@@AEAA_NXZ 000000014004beec f i libucrt:output.obj
 0001:0004af08       ?type_case_p@?$output_processor@_WV?$stream_output_adapter@_W@__crt_stdio_output@@V?$format_validation_base@_WV?$stream_output_adapter@_W@__crt_stdio_output@@@2@@__crt_stdio_output@@AEAA_NXZ 000000014004bf08 f i libucrt:output.obj
 0001:0004af24       ?type_case_p@?$output_processor@_WV?$stream_output_adapter@_W@__crt_stdio_output@@V?$positional_parameter_base@_WV?$stream_output_adapter@_W@__crt_stdio_output@@@2@@__crt_stdio_output@@AEAA_NXZ 000000014004bf24 f i libucrt:output.obj
 0001:0004af40       ?type_case_p@?$output_processor@_WV?$stream_output_adapter@_W@__crt_stdio_output@@V?$standard_base@_WV?$stream_output_adapter@_W@__crt_stdio_output@@@2@@__crt_stdio_output@@AEAA_NXZ 000000014004bf40 f i libucrt:output.obj
 0001:0004af5c       ?type_case_p@?$output_processor@_WV?$string_output_adapter@_W@__crt_stdio_output@@V?$format_validation_base@_WV?$string_output_adapter@_W@__crt_stdio_output@@@2@@__crt_stdio_output@@AEAA_NXZ 000000014004bf5c f i libucrt:output.obj
 0001:0004af78       ?type_case_p@?$output_processor@_WV?$string_output_adapter@_W@__crt_stdio_output@@V?$positional_parameter_base@_WV?$string_output_adapter@_W@__crt_stdio_output@@@2@@__crt_stdio_output@@AEAA_NXZ 000000014004bf78 f i libucrt:output.obj
 0001:0004af94       ?type_case_p@?$output_processor@_WV?$string_output_adapter@_W@__crt_stdio_output@@V?$standard_base@_WV?$string_output_adapter@_W@__crt_stdio_output@@@2@@__crt_stdio_output@@AEAA_NXZ 000000014004bf94 f i libucrt:output.obj
 0001:0004afb0       ?type_case_s@?$output_processor@DV?$stream_output_adapter@D@__crt_stdio_output@@V?$format_validation_base@DV?$stream_output_adapter@D@__crt_stdio_output@@@2@@__crt_stdio_output@@AEAA_NXZ 000000014004bfb0 f i libucrt:output.obj
 0001:0004b06c       ?type_case_s@?$output_processor@DV?$stream_output_adapter@D@__crt_stdio_output@@V?$positional_parameter_base@DV?$stream_output_adapter@D@__crt_stdio_output@@@2@@__crt_stdio_output@@AEAA_NXZ 000000014004c06c f i libucrt:output.obj
 0001:0004b150       ?type_case_s@?$output_processor@DV?$stream_output_adapter@D@__crt_stdio_output@@V?$standard_base@DV?$stream_output_adapter@D@__crt_stdio_output@@@2@@__crt_stdio_output@@AEAA_NXZ 000000014004c150 f i libucrt:output.obj
 0001:0004b20c       ?type_case_s@?$output_processor@DV?$string_output_adapter@D@__crt_stdio_output@@V?$format_validation_base@DV?$string_output_adapter@D@__crt_stdio_output@@@2@@__crt_stdio_output@@AEAA_NXZ 000000014004c20c f i libucrt:output.obj
 0001:0004b2c8       ?type_case_s@?$output_processor@DV?$string_output_adapter@D@__crt_stdio_output@@V?$positional_parameter_base@DV?$string_output_adapter@D@__crt_stdio_output@@@2@@__crt_stdio_output@@AEAA_NXZ 000000014004c2c8 f i libucrt:output.obj
 0001:0004b3ac       ?type_case_s@?$output_processor@DV?$string_output_adapter@D@__crt_stdio_output@@V?$standard_base@DV?$string_output_adapter@D@__crt_stdio_output@@@2@@__crt_stdio_output@@AEAA_NXZ 000000014004c3ac f i libucrt:output.obj
 0001:0004b468       ?type_case_s@?$output_processor@_WV?$stream_output_adapter@_W@__crt_stdio_output@@V?$format_validation_base@_WV?$stream_output_adapter@_W@__crt_stdio_output@@@2@@__crt_stdio_output@@AEAA_NXZ 000000014004c468 f i libucrt:output.obj
 0001:0004b528       ?type_case_s@?$output_processor@_WV?$stream_output_adapter@_W@__crt_stdio_output@@V?$positional_parameter_base@_WV?$stream_output_adapter@_W@__crt_stdio_output@@@2@@__crt_stdio_output@@AEAA_NXZ 000000014004c528 f i libucrt:output.obj
 0001:0004b60c       ?type_case_s@?$output_processor@_WV?$stream_output_adapter@_W@__crt_stdio_output@@V?$standard_base@_WV?$stream_output_adapter@_W@__crt_stdio_output@@@2@@__crt_stdio_output@@AEAA_NXZ 000000014004c60c f i libucrt:output.obj
 0001:0004b6cc       ?type_case_s@?$output_processor@_WV?$string_output_adapter@_W@__crt_stdio_output@@V?$format_validation_base@_WV?$string_output_adapter@_W@__crt_stdio_output@@@2@@__crt_stdio_output@@AEAA_NXZ 000000014004c6cc f i libucrt:output.obj
 0001:0004b78c       ?type_case_s@?$output_processor@_WV?$string_output_adapter@_W@__crt_stdio_output@@V?$positional_parameter_base@_WV?$string_output_adapter@_W@__crt_stdio_output@@@2@@__crt_stdio_output@@AEAA_NXZ 000000014004c78c f i libucrt:output.obj
 0001:0004b870       ?type_case_s@?$output_processor@_WV?$string_output_adapter@_W@__crt_stdio_output@@V?$standard_base@_WV?$string_output_adapter@_W@__crt_stdio_output@@@2@@__crt_stdio_output@@AEAA_NXZ 000000014004c870 f i libucrt:output.obj
 0001:0004b930       ?type_case_s_compute_narrow_string_length@?$output_processor@DV?$stream_output_adapter@D@__crt_stdio_output@@V?$format_validation_base@DV?$stream_output_adapter@D@__crt_stdio_output@@@2@@__crt_stdio_output@@AEAAHHD@Z 000000014004c930 f i libucrt:output.obj
 0001:0004b940       ?type_case_s_compute_narrow_string_length@?$output_processor@DV?$stream_output_adapter@D@__crt_stdio_output@@V?$positional_parameter_base@DV?$stream_output_adapter@D@__crt_stdio_output@@@2@@__crt_stdio_output@@AEAAHHD@Z 000000014004c940 f i libucrt:output.obj
 0001:0004b950       ?type_case_s_compute_narrow_string_length@?$output_processor@DV?$stream_output_adapter@D@__crt_stdio_output@@V?$standard_base@DV?$stream_output_adapter@D@__crt_stdio_output@@@2@@__crt_stdio_output@@AEAAHHD@Z 000000014004c950 f i libucrt:output.obj
 0001:0004b960       ?type_case_s_compute_narrow_string_length@?$output_processor@DV?$string_output_adapter@D@__crt_stdio_output@@V?$format_validation_base@DV?$string_output_adapter@D@__crt_stdio_output@@@2@@__crt_stdio_output@@AEAAHHD@Z 000000014004c960 f i libucrt:output.obj
 0001:0004b970       ?type_case_s_compute_narrow_string_length@?$output_processor@DV?$string_output_adapter@D@__crt_stdio_output@@V?$positional_parameter_base@DV?$string_output_adapter@D@__crt_stdio_output@@@2@@__crt_stdio_output@@AEAAHHD@Z 000000014004c970 f i libucrt:output.obj
 0001:0004b980       ?type_case_s_compute_narrow_string_length@?$output_processor@DV?$string_output_adapter@D@__crt_stdio_output@@V?$standard_base@DV?$string_output_adapter@D@__crt_stdio_output@@@2@@__crt_stdio_output@@AEAAHHD@Z 000000014004c980 f i libucrt:output.obj
 0001:0004b990       ?type_case_s_compute_narrow_string_length@?$output_processor@_WV?$stream_output_adapter@_W@__crt_stdio_output@@V?$format_validation_base@_WV?$stream_output_adapter@_W@__crt_stdio_output@@@2@@__crt_stdio_output@@AEAAHH_W@Z 000000014004c990 f i libucrt:output.obj
 0001:0004ba24       ?type_case_s_compute_narrow_string_length@?$output_processor@_WV?$stream_output_adapter@_W@__crt_stdio_output@@V?$positional_parameter_base@_WV?$stream_output_adapter@_W@__crt_stdio_output@@@2@@__crt_stdio_output@@AEAAHH_W@Z 000000014004ca24 f i libucrt:output.obj
 0001:0004bab8       ?type_case_s_compute_narrow_string_length@?$output_processor@_WV?$stream_output_adapter@_W@__crt_stdio_output@@V?$standard_base@_WV?$stream_output_adapter@_W@__crt_stdio_output@@@2@@__crt_stdio_output@@AEAAHH_W@Z 000000014004cab8 f i libucrt:output.obj
 0001:0004bb4c       ?type_case_s_compute_narrow_string_length@?$output_processor@_WV?$string_output_adapter@_W@__crt_stdio_output@@V?$format_validation_base@_WV?$string_output_adapter@_W@__crt_stdio_output@@@2@@__crt_stdio_output@@AEAAHH_W@Z 000000014004cb4c f i libucrt:output.obj
 0001:0004bbe0       ?type_case_s_compute_narrow_string_length@?$output_processor@_WV?$string_output_adapter@_W@__crt_stdio_output@@V?$positional_parameter_base@_WV?$string_output_adapter@_W@__crt_stdio_output@@@2@@__crt_stdio_output@@AEAAHH_W@Z 000000014004cbe0 f i libucrt:output.obj
 0001:0004bc74       ?type_case_s_compute_narrow_string_length@?$output_processor@_WV?$string_output_adapter@_W@__crt_stdio_output@@V?$standard_base@_WV?$string_output_adapter@_W@__crt_stdio_output@@@2@@__crt_stdio_output@@AEAAHH_W@Z 000000014004cc74 f i libucrt:output.obj
 0001:0004bd08       ?type_case_u@?$output_processor@DV?$stream_output_adapter@D@__crt_stdio_output@@V?$format_validation_base@DV?$stream_output_adapter@D@__crt_stdio_output@@@2@@__crt_stdio_output@@AEAA_NXZ 000000014004cd08 f i libucrt:output.obj
 0001:0004bd10       ?type_case_u@?$output_processor@DV?$stream_output_adapter@D@__crt_stdio_output@@V?$positional_parameter_base@DV?$stream_output_adapter@D@__crt_stdio_output@@@2@@__crt_stdio_output@@AEAA_NXZ 000000014004cd10 f i libucrt:output.obj
 0001:0004bd18       ?type_case_u@?$output_processor@DV?$stream_output_adapter@D@__crt_stdio_output@@V?$standard_base@DV?$stream_output_adapter@D@__crt_stdio_output@@@2@@__crt_stdio_output@@AEAA_NXZ 000000014004cd18 f i libucrt:output.obj
 0001:0004bd20       ?type_case_u@?$output_processor@DV?$string_output_adapter@D@__crt_stdio_output@@V?$format_validation_base@DV?$string_output_adapter@D@__crt_stdio_output@@@2@@__crt_stdio_output@@AEAA_NXZ 000000014004cd20 f i libucrt:output.obj
 0001:0004bd28       ?type_case_u@?$output_processor@DV?$string_output_adapter@D@__crt_stdio_output@@V?$positional_parameter_base@DV?$string_output_adapter@D@__crt_stdio_output@@@2@@__crt_stdio_output@@AEAA_NXZ 000000014004cd28 f i libucrt:output.obj
 0001:0004bd30       ?type_case_u@?$output_processor@DV?$string_output_adapter@D@__crt_stdio_output@@V?$standard_base@DV?$string_output_adapter@D@__crt_stdio_output@@@2@@__crt_stdio_output@@AEAA_NXZ 000000014004cd30 f i libucrt:output.obj
 0001:0004bd38       ?type_case_u@?$output_processor@_WV?$stream_output_adapter@_W@__crt_stdio_output@@V?$format_validation_base@_WV?$stream_output_adapter@_W@__crt_stdio_output@@@2@@__crt_stdio_output@@AEAA_NXZ 000000014004cd38 f i libucrt:output.obj
 0001:0004bd40       ?type_case_u@?$output_processor@_WV?$stream_output_adapter@_W@__crt_stdio_output@@V?$positional_parameter_base@_WV?$stream_output_adapter@_W@__crt_stdio_output@@@2@@__crt_stdio_output@@AEAA_NXZ 000000014004cd40 f i libucrt:output.obj
 0001:0004bd48       ?type_case_u@?$output_processor@_WV?$stream_output_adapter@_W@__crt_stdio_output@@V?$standard_base@_WV?$stream_output_adapter@_W@__crt_stdio_output@@@2@@__crt_stdio_output@@AEAA_NXZ 000000014004cd48 f i libucrt:output.obj
 0001:0004bd50       ?type_case_u@?$output_processor@_WV?$string_output_adapter@_W@__crt_stdio_output@@V?$format_validation_base@_WV?$string_output_adapter@_W@__crt_stdio_output@@@2@@__crt_stdio_output@@AEAA_NXZ 000000014004cd50 f i libucrt:output.obj
 0001:0004bd58       ?type_case_u@?$output_processor@_WV?$string_output_adapter@_W@__crt_stdio_output@@V?$positional_parameter_base@_WV?$string_output_adapter@_W@__crt_stdio_output@@@2@@__crt_stdio_output@@AEAA_NXZ 000000014004cd58 f i libucrt:output.obj
 0001:0004bd60       ?type_case_u@?$output_processor@_WV?$string_output_adapter@_W@__crt_stdio_output@@V?$standard_base@_WV?$string_output_adapter@_W@__crt_stdio_output@@@2@@__crt_stdio_output@@AEAA_NXZ 000000014004cd60 f i libucrt:output.obj
 0001:0004bd68       ?type_case_x@?$output_processor@DV?$stream_output_adapter@D@__crt_stdio_output@@V?$format_validation_base@DV?$stream_output_adapter@D@__crt_stdio_output@@@2@@__crt_stdio_output@@AEAA_NXZ 000000014004cd68 f i libucrt:output.obj
 0001:0004bd70       ?type_case_x@?$output_processor@DV?$stream_output_adapter@D@__crt_stdio_output@@V?$positional_parameter_base@DV?$stream_output_adapter@D@__crt_stdio_output@@@2@@__crt_stdio_output@@AEAA_NXZ 000000014004cd70 f i libucrt:output.obj
 0001:0004bd78       ?type_case_x@?$output_processor@DV?$stream_output_adapter@D@__crt_stdio_output@@V?$standard_base@DV?$stream_output_adapter@D@__crt_stdio_output@@@2@@__crt_stdio_output@@AEAA_NXZ 000000014004cd78 f i libucrt:output.obj
 0001:0004bd80       ?type_case_x@?$output_processor@DV?$string_output_adapter@D@__crt_stdio_output@@V?$format_validation_base@DV?$string_output_adapter@D@__crt_stdio_output@@@2@@__crt_stdio_output@@AEAA_NXZ 000000014004cd80 f i libucrt:output.obj
 0001:0004bd88       ?type_case_x@?$output_processor@DV?$string_output_adapter@D@__crt_stdio_output@@V?$positional_parameter_base@DV?$string_output_adapter@D@__crt_stdio_output@@@2@@__crt_stdio_output@@AEAA_NXZ 000000014004cd88 f i libucrt:output.obj
 0001:0004bd90       ?type_case_x@?$output_processor@DV?$string_output_adapter@D@__crt_stdio_output@@V?$standard_base@DV?$string_output_adapter@D@__crt_stdio_output@@@2@@__crt_stdio_output@@AEAA_NXZ 000000014004cd90 f i libucrt:output.obj
 0001:0004bd98       ?type_case_x@?$output_processor@_WV?$stream_output_adapter@_W@__crt_stdio_output@@V?$format_validation_base@_WV?$stream_output_adapter@_W@__crt_stdio_output@@@2@@__crt_stdio_output@@AEAA_NXZ 000000014004cd98 f i libucrt:output.obj
 0001:0004bda0       ?type_case_x@?$output_processor@_WV?$stream_output_adapter@_W@__crt_stdio_output@@V?$positional_parameter_base@_WV?$stream_output_adapter@_W@__crt_stdio_output@@@2@@__crt_stdio_output@@AEAA_NXZ 000000014004cda0 f i libucrt:output.obj
 0001:0004bda8       ?type_case_x@?$output_processor@_WV?$stream_output_adapter@_W@__crt_stdio_output@@V?$standard_base@_WV?$stream_output_adapter@_W@__crt_stdio_output@@@2@@__crt_stdio_output@@AEAA_NXZ 000000014004cda8 f i libucrt:output.obj
 0001:0004bdb0       ?type_case_x@?$output_processor@_WV?$string_output_adapter@_W@__crt_stdio_output@@V?$format_validation_base@_WV?$string_output_adapter@_W@__crt_stdio_output@@@2@@__crt_stdio_output@@AEAA_NXZ 000000014004cdb0 f i libucrt:output.obj
 0001:0004bdb8       ?type_case_x@?$output_processor@_WV?$string_output_adapter@_W@__crt_stdio_output@@V?$positional_parameter_base@_WV?$string_output_adapter@_W@__crt_stdio_output@@@2@@__crt_stdio_output@@AEAA_NXZ 000000014004cdb8 f i libucrt:output.obj
 0001:0004bdc0       ?type_case_x@?$output_processor@_WV?$string_output_adapter@_W@__crt_stdio_output@@V?$standard_base@_WV?$string_output_adapter@_W@__crt_stdio_output@@@2@@__crt_stdio_output@@AEAA_NXZ 000000014004cdc0 f i libucrt:output.obj
 0001:0004bdc8       ?unget@?$c_string_character_source@D@__crt_strtox@@QEAAXD@Z 000000014004cdc8 f i libucrt:output.obj
 0001:0004bdfc       ?unget@?$c_string_character_source@_W@__crt_strtox@@QEAAX_W@Z 000000014004cdfc f i libucrt:output.obj
 0001:0004be34       ?unsafe_value@?$cached@H@__crt_cached_ptd_host@@QEAAHXZ 000000014004ce34 f i libucrt:output.obj
 0001:0004be38       ?unsafe_value@?$cached@K@__crt_cached_ptd_host@@QEAAKXZ 000000014004ce38 f i libucrt:output.obj
 0001:0004be3c       ?unset_flag@?$output_processor@DV?$stream_output_adapter@D@__crt_stdio_output@@V?$format_validation_base@DV?$stream_output_adapter@D@__crt_stdio_output@@@2@@__crt_stdio_output@@AEAAXI@Z 000000014004ce3c f i libucrt:output.obj
 0001:0004be44       ?unset_flag@?$output_processor@DV?$stream_output_adapter@D@__crt_stdio_output@@V?$positional_parameter_base@DV?$stream_output_adapter@D@__crt_stdio_output@@@2@@__crt_stdio_output@@AEAAXI@Z 000000014004ce44 f i libucrt:output.obj
 0001:0004be4c       ?unset_flag@?$output_processor@DV?$stream_output_adapter@D@__crt_stdio_output@@V?$standard_base@DV?$stream_output_adapter@D@__crt_stdio_output@@@2@@__crt_stdio_output@@AEAAXI@Z 000000014004ce4c f i libucrt:output.obj
 0001:0004be54       ?unset_flag@?$output_processor@DV?$string_output_adapter@D@__crt_stdio_output@@V?$format_validation_base@DV?$string_output_adapter@D@__crt_stdio_output@@@2@@__crt_stdio_output@@AEAAXI@Z 000000014004ce54 f i libucrt:output.obj
 0001:0004be5c       ?unset_flag@?$output_processor@DV?$string_output_adapter@D@__crt_stdio_output@@V?$positional_parameter_base@DV?$string_output_adapter@D@__crt_stdio_output@@@2@@__crt_stdio_output@@AEAAXI@Z 000000014004ce5c f i libucrt:output.obj
 0001:0004be64       ?unset_flag@?$output_processor@DV?$string_output_adapter@D@__crt_stdio_output@@V?$standard_base@DV?$string_output_adapter@D@__crt_stdio_output@@@2@@__crt_stdio_output@@AEAAXI@Z 000000014004ce64 f i libucrt:output.obj
 0001:0004be6c       ?unset_flag@?$output_processor@_WV?$stream_output_adapter@_W@__crt_stdio_output@@V?$format_validation_base@_WV?$stream_output_adapter@_W@__crt_stdio_output@@@2@@__crt_stdio_output@@AEAAXI@Z 000000014004ce6c f i libucrt:output.obj
 0001:0004be74       ?unset_flag@?$output_processor@_WV?$stream_output_adapter@_W@__crt_stdio_output@@V?$positional_parameter_base@_WV?$stream_output_adapter@_W@__crt_stdio_output@@@2@@__crt_stdio_output@@AEAAXI@Z 000000014004ce74 f i libucrt:output.obj
 0001:0004be7c       ?unset_flag@?$output_processor@_WV?$stream_output_adapter@_W@__crt_stdio_output@@V?$standard_base@_WV?$stream_output_adapter@_W@__crt_stdio_output@@@2@@__crt_stdio_output@@AEAAXI@Z 000000014004ce7c f i libucrt:output.obj
 0001:0004be84       ?unset_flag@?$output_processor@_WV?$string_output_adapter@_W@__crt_stdio_output@@V?$format_validation_base@_WV?$string_output_adapter@_W@__crt_stdio_output@@@2@@__crt_stdio_output@@AEAAXI@Z 000000014004ce84 f i libucrt:output.obj
 0001:0004be8c       ?unset_flag@?$output_processor@_WV?$string_output_adapter@_W@__crt_stdio_output@@V?$positional_parameter_base@_WV?$string_output_adapter@_W@__crt_stdio_output@@@2@@__crt_stdio_output@@AEAAXI@Z 000000014004ce8c f i libucrt:output.obj
 0001:0004be94       ?unset_flag@?$output_processor@_WV?$string_output_adapter@_W@__crt_stdio_output@@V?$standard_base@_WV?$string_output_adapter@_W@__crt_stdio_output@@@2@@__crt_stdio_output@@AEAAXI@Z 000000014004ce94 f i libucrt:output.obj
 0001:0004be9c       ?update_field_width@?$positional_parameter_base@DV?$stream_output_adapter@D@__crt_stdio_output@@@__crt_stdio_output@@IEAA_NXZ 000000014004ce9c f i libucrt:output.obj
 0001:0004c068       ?update_field_width@?$positional_parameter_base@DV?$string_output_adapter@D@__crt_stdio_output@@@__crt_stdio_output@@IEAA_NXZ 000000014004d068 f i libucrt:output.obj
 0001:0004c234       ?update_field_width@?$positional_parameter_base@_WV?$stream_output_adapter@_W@__crt_stdio_output@@@__crt_stdio_output@@IEAA_NXZ 000000014004d234 f i libucrt:output.obj
 0001:0004c404       ?update_field_width@?$positional_parameter_base@_WV?$string_output_adapter@_W@__crt_stdio_output@@@__crt_stdio_output@@IEAA_NXZ 000000014004d404 f i libucrt:output.obj
 0001:0004c5d4       ?update_field_width@?$standard_base@DV?$stream_output_adapter@D@__crt_stdio_output@@@__crt_stdio_output@@IEAA_NXZ 000000014004d5d4 f i libucrt:output.obj
 0001:0004c5ec       ?update_field_width@?$standard_base@DV?$string_output_adapter@D@__crt_stdio_output@@@__crt_stdio_output@@IEAA_NXZ 000000014004d5ec f i libucrt:output.obj
 0001:0004c604       ?update_field_width@?$standard_base@_WV?$stream_output_adapter@_W@__crt_stdio_output@@@__crt_stdio_output@@IEAA_NXZ 000000014004d604 f i libucrt:output.obj
 0001:0004c61c       ?update_field_width@?$standard_base@_WV?$string_output_adapter@_W@__crt_stdio_output@@@__crt_stdio_output@@IEAA_NXZ 000000014004d61c f i libucrt:output.obj
 0001:0004c640       ?update_locale@__crt_cached_ptd_host@@AEAAXXZ 000000014004d640 f i libucrt:output.obj
 0001:0004c650       ?update_locale_slow@__crt_cached_ptd_host@@AEAAXXZ 000000014004d650 f i libucrt:output.obj
 0001:0004c6e4       ?update_precision@?$positional_parameter_base@DV?$stream_output_adapter@D@__crt_stdio_output@@@__crt_stdio_output@@IEAA_NXZ 000000014004d6e4 f i libucrt:output.obj
 0001:0004c8b0       ?update_precision@?$positional_parameter_base@DV?$string_output_adapter@D@__crt_stdio_output@@@__crt_stdio_output@@IEAA_NXZ 000000014004d8b0 f i libucrt:output.obj
 0001:0004ca7c       ?update_precision@?$positional_parameter_base@_WV?$stream_output_adapter@_W@__crt_stdio_output@@@__crt_stdio_output@@IEAA_NXZ 000000014004da7c f i libucrt:output.obj
 0001:0004cc4c       ?update_precision@?$positional_parameter_base@_WV?$string_output_adapter@_W@__crt_stdio_output@@@__crt_stdio_output@@IEAA_NXZ 000000014004dc4c f i libucrt:output.obj
 0001:0004ce1c       ?update_precision@?$standard_base@DV?$stream_output_adapter@D@__crt_stdio_output@@@__crt_stdio_output@@IEAA_NXZ 000000014004de1c f i libucrt:output.obj
 0001:0004ce34       ?update_precision@?$standard_base@DV?$string_output_adapter@D@__crt_stdio_output@@@__crt_stdio_output@@IEAA_NXZ 000000014004de34 f i libucrt:output.obj
 0001:0004ce4c       ?update_precision@?$standard_base@_WV?$stream_output_adapter@_W@__crt_stdio_output@@@__crt_stdio_output@@IEAA_NXZ 000000014004de4c f i libucrt:output.obj
 0001:0004ce64       ?update_precision@?$standard_base@_WV?$string_output_adapter@_W@__crt_stdio_output@@@__crt_stdio_output@@IEAA_NXZ 000000014004de64 f i libucrt:output.obj
 0001:0004ce7c       ?valid@?$cached@H@__crt_cached_ptd_host@@QEBA_NXZ 000000014004de7c f i libucrt:output.obj
 0001:0004ce80       ?valid@?$cached@K@__crt_cached_ptd_host@@QEBA_NXZ 000000014004de80 f i libucrt:output.obj
 0001:0004ce84       ?valid@__crt_stdio_stream@@QEBA_NXZ 000000014004de84 f i libucrt:output.obj
 0001:0004ce90       ?validate@?$c_string_character_source@D@__crt_strtox@@QEBA_NXZ 000000014004de90 f i libucrt:output.obj
 0001:0004cec0       ?validate@?$c_string_character_source@_W@__crt_strtox@@QEBA_NXZ 000000014004dec0 f i libucrt:output.obj
 0001:0004cef0       ?validate@?$stream_output_adapter@D@__crt_stdio_output@@QEBA_NAEAV__crt_cached_ptd_host@@@Z 000000014004def0 f i libucrt:output.obj
 0001:0004cf40       ?validate@?$stream_output_adapter@_W@__crt_stdio_output@@QEBA_NAEAV__crt_cached_ptd_host@@@Z 000000014004df40 f i libucrt:output.obj
 0001:0004cf88       ?validate@?$string_output_adapter@D@__crt_stdio_output@@QEBA_NAEAV__crt_cached_ptd_host@@@Z 000000014004df88 f i libucrt:output.obj
 0001:0004cfd0       ?validate@?$string_output_adapter@_W@__crt_stdio_output@@QEBA_NAEAV__crt_cached_ptd_host@@@Z 000000014004dfd0 f i libucrt:output.obj
 0001:0004d018       ?validate_and_store_parameter_data@?$positional_parameter_base@DV?$stream_output_adapter@D@__crt_stdio_output@@@__crt_stdio_output@@AEAA_NAEAUparameter_data@12@W4parameter_type@12@DW4length_modifier@2@@Z 000000014004e018 f i libucrt:output.obj
 0001:0004d094       ?validate_and_store_parameter_data@?$positional_parameter_base@DV?$string_output_adapter@D@__crt_stdio_output@@@__crt_stdio_output@@AEAA_NAEAUparameter_data@12@W4parameter_type@12@DW4length_modifier@2@@Z 000000014004e094 f i libucrt:output.obj
 0001:0004d110       ?validate_and_store_parameter_data@?$positional_parameter_base@_WV?$stream_output_adapter@_W@__crt_stdio_output@@@__crt_stdio_output@@AEAA_NAEAUparameter_data@12@W4parameter_type@12@_WW4length_modifier@2@@Z 000000014004e110 f i libucrt:output.obj
 0001:0004d18c       ?validate_and_store_parameter_data@?$positional_parameter_base@_WV?$string_output_adapter@_W@__crt_stdio_output@@@__crt_stdio_output@@AEAA_NAEAUparameter_data@12@W4parameter_type@12@_WW4length_modifier@2@@Z 000000014004e18c f i libucrt:output.obj
 0001:0004d208       ?validate_and_update_state_at_beginning_of_format_character@?$positional_parameter_base@DV?$stream_output_adapter@D@__crt_stdio_output@@@__crt_stdio_output@@IEAA_NXZ 000000014004e208 f i libucrt:output.obj
 0001:0004d3a0       ?validate_and_update_state_at_beginning_of_format_character@?$positional_parameter_base@DV?$string_output_adapter@D@__crt_stdio_output@@@__crt_stdio_output@@IEAA_NXZ 000000014004e3a0 f i libucrt:output.obj
 0001:0004d538       ?validate_and_update_state_at_beginning_of_format_character@?$positional_parameter_base@_WV?$stream_output_adapter@_W@__crt_stdio_output@@@__crt_stdio_output@@IEAA_NXZ 000000014004e538 f i libucrt:output.obj
 0001:0004d6e8       ?validate_and_update_state_at_beginning_of_format_character@?$positional_parameter_base@_WV?$string_output_adapter@_W@__crt_stdio_output@@@__crt_stdio_output@@IEAA_NXZ 000000014004e6e8 f i libucrt:output.obj
 0001:0004d898       ?validate_and_update_state_at_beginning_of_format_character@?$standard_base@DV?$stream_output_adapter@D@__crt_stdio_output@@@__crt_stdio_output@@IEAA_NXZ 000000014004e898 f i libucrt:output.obj
 0001:0004d89c       ?validate_and_update_state_at_beginning_of_format_character@?$standard_base@DV?$string_output_adapter@D@__crt_stdio_output@@@__crt_stdio_output@@IEAA_NXZ 000000014004e89c f i libucrt:output.obj
 0001:0004d8a0       ?validate_and_update_state_at_beginning_of_format_character@?$standard_base@_WV?$stream_output_adapter@_W@__crt_stdio_output@@@__crt_stdio_output@@IEAA_NXZ 000000014004e8a0 f i libucrt:output.obj
 0001:0004d8a4       ?validate_and_update_state_at_beginning_of_format_character@?$standard_base@_WV?$string_output_adapter@_W@__crt_stdio_output@@@__crt_stdio_output@@IEAA_NXZ 000000014004e8a4 f i libucrt:output.obj
 0001:0004d8a8       ?validate_and_update_state_at_end_of_format_string@?$format_validation_base@DV?$stream_output_adapter@D@__crt_stdio_output@@@__crt_stdio_output@@IEAA_NXZ 000000014004e8a8 f i libucrt:output.obj
 0001:0004d900       ?validate_and_update_state_at_end_of_format_string@?$format_validation_base@DV?$string_output_adapter@D@__crt_stdio_output@@@__crt_stdio_output@@IEAA_NXZ 000000014004e900 f i libucrt:output.obj
 0001:0004d958       ?validate_and_update_state_at_end_of_format_string@?$format_validation_base@_WV?$stream_output_adapter@_W@__crt_stdio_output@@@__crt_stdio_output@@IEAA_NXZ 000000014004e958 f i libucrt:output.obj
 0001:0004d9b0       ?validate_and_update_state_at_end_of_format_string@?$format_validation_base@_WV?$string_output_adapter@_W@__crt_stdio_output@@@__crt_stdio_output@@IEAA_NXZ 000000014004e9b0 f i libucrt:output.obj
 0001:0004da08       ?validate_and_update_state_at_end_of_format_string@?$positional_parameter_base@DV?$stream_output_adapter@D@__crt_stdio_output@@@__crt_stdio_output@@IEAA_NXZ 000000014004ea08 f i libucrt:output.obj
 0001:0004daf4       ?validate_and_update_state_at_end_of_format_string@?$positional_parameter_base@DV?$string_output_adapter@D@__crt_stdio_output@@@__crt_stdio_output@@IEAA_NXZ 000000014004eaf4 f i libucrt:output.obj
 0001:0004dbe0       ?validate_and_update_state_at_end_of_format_string@?$positional_parameter_base@_WV?$stream_output_adapter@_W@__crt_stdio_output@@@__crt_stdio_output@@IEAA_NXZ 000000014004ebe0 f i libucrt:output.obj
 0001:0004dccc       ?validate_and_update_state_at_end_of_format_string@?$positional_parameter_base@_WV?$string_output_adapter@_W@__crt_stdio_output@@@__crt_stdio_output@@IEAA_NXZ 000000014004eccc f i libucrt:output.obj
 0001:0004ddb8       ?validate_and_update_state_at_end_of_format_string@?$standard_base@DV?$stream_output_adapter@D@__crt_stdio_output@@@__crt_stdio_output@@IEBA_NXZ 000000014004edb8 f i libucrt:output.obj
 0001:0004ddbc       ?validate_and_update_state_at_end_of_format_string@?$standard_base@DV?$string_output_adapter@D@__crt_stdio_output@@@__crt_stdio_output@@IEBA_NXZ 000000014004edbc f i libucrt:output.obj
 0001:0004ddc0       ?validate_and_update_state_at_end_of_format_string@?$standard_base@_WV?$stream_output_adapter@_W@__crt_stdio_output@@@__crt_stdio_output@@IEBA_NXZ 000000014004edc0 f i libucrt:output.obj
 0001:0004ddc4       ?validate_and_update_state_at_end_of_format_string@?$standard_base@_WV?$string_output_adapter@_W@__crt_stdio_output@@@__crt_stdio_output@@IEBA_NXZ 000000014004edc4 f i libucrt:output.obj
 0001:0004ddc8       ?validate_state_for_type_case_a@?$positional_parameter_base@DV?$stream_output_adapter@D@__crt_stdio_output@@@__crt_stdio_output@@IEAA_NXZ 000000014004edc8 f i libucrt:output.obj
 0001:0004dee4       ?validate_state_for_type_case_a@?$positional_parameter_base@DV?$string_output_adapter@D@__crt_stdio_output@@@__crt_stdio_output@@IEAA_NXZ 000000014004eee4 f i libucrt:output.obj
 0001:0004e000       ?validate_state_for_type_case_a@?$positional_parameter_base@_WV?$stream_output_adapter@_W@__crt_stdio_output@@@__crt_stdio_output@@IEAA_NXZ 000000014004f000 f i libucrt:output.obj
 0001:0004e120       ?validate_state_for_type_case_a@?$positional_parameter_base@_WV?$string_output_adapter@_W@__crt_stdio_output@@@__crt_stdio_output@@IEAA_NXZ 000000014004f120 f i libucrt:output.obj
 0001:0004e240       ?validate_state_for_type_case_a@?$standard_base@DV?$stream_output_adapter@D@__crt_stdio_output@@@__crt_stdio_output@@IEBA_NXZ 000000014004f240 f i libucrt:output.obj
 0001:0004e244       ?validate_state_for_type_case_a@?$standard_base@DV?$string_output_adapter@D@__crt_stdio_output@@@__crt_stdio_output@@IEBA_NXZ 000000014004f244 f i libucrt:output.obj
 0001:0004e248       ?validate_state_for_type_case_a@?$standard_base@_WV?$stream_output_adapter@_W@__crt_stdio_output@@@__crt_stdio_output@@IEBA_NXZ 000000014004f248 f i libucrt:output.obj
 0001:0004e24c       ?validate_state_for_type_case_a@?$standard_base@_WV?$string_output_adapter@_W@__crt_stdio_output@@@__crt_stdio_output@@IEBA_NXZ 000000014004f24c f i libucrt:output.obj
 0001:0004e250       ?validate_stream_is_ansi_if_required@?$__acrt_stdio_char_traits@D@@SA_NQEAU_iobuf@@@Z 000000014004f250 f i libucrt:output.obj
 0001:0004e310       ?validate_stream_is_ansi_if_required@?$__acrt_stdio_char_traits@_W@@SA_NQEAU_iobuf@@@Z 000000014004f310 f i libucrt:output.obj
 0001:0004e314       ?wide_character_to_digit@__crt_strtox@@YAH_W@Z 000000014004f314 f i libucrt:output.obj
 0001:0004e51c       ?wide_null_string@?$output_processor@DV?$stream_output_adapter@D@__crt_stdio_output@@V?$format_validation_base@DV?$stream_output_adapter@D@__crt_stdio_output@@@2@@__crt_stdio_output@@CAPEA_WXZ 000000014004f51c f i libucrt:output.obj
 0001:0004e528       ?wide_null_string@?$output_processor@DV?$stream_output_adapter@D@__crt_stdio_output@@V?$positional_parameter_base@DV?$stream_output_adapter@D@__crt_stdio_output@@@2@@__crt_stdio_output@@CAPEA_WXZ 000000014004f528 f i libucrt:output.obj
 0001:0004e534       ?wide_null_string@?$output_processor@DV?$stream_output_adapter@D@__crt_stdio_output@@V?$standard_base@DV?$stream_output_adapter@D@__crt_stdio_output@@@2@@__crt_stdio_output@@CAPEA_WXZ 000000014004f534 f i libucrt:output.obj
 0001:0004e540       ?wide_null_string@?$output_processor@DV?$string_output_adapter@D@__crt_stdio_output@@V?$format_validation_base@DV?$string_output_adapter@D@__crt_stdio_output@@@2@@__crt_stdio_output@@CAPEA_WXZ 000000014004f540 f i libucrt:output.obj
 0001:0004e54c       ?wide_null_string@?$output_processor@DV?$string_output_adapter@D@__crt_stdio_output@@V?$positional_parameter_base@DV?$string_output_adapter@D@__crt_stdio_output@@@2@@__crt_stdio_output@@CAPEA_WXZ 000000014004f54c f i libucrt:output.obj
 0001:0004e558       ?wide_null_string@?$output_processor@DV?$string_output_adapter@D@__crt_stdio_output@@V?$standard_base@DV?$string_output_adapter@D@__crt_stdio_output@@@2@@__crt_stdio_output@@CAPEA_WXZ 000000014004f558 f i libucrt:output.obj
 0001:0004e564       ?wide_null_string@?$output_processor@_WV?$stream_output_adapter@_W@__crt_stdio_output@@V?$format_validation_base@_WV?$stream_output_adapter@_W@__crt_stdio_output@@@2@@__crt_stdio_output@@CAPEA_WXZ 000000014004f564 f i libucrt:output.obj
 0001:0004e570       ?wide_null_string@?$output_processor@_WV?$stream_output_adapter@_W@__crt_stdio_output@@V?$positional_parameter_base@_WV?$stream_output_adapter@_W@__crt_stdio_output@@@2@@__crt_stdio_output@@CAPEA_WXZ 000000014004f570 f i libucrt:output.obj
 0001:0004e57c       ?wide_null_string@?$output_processor@_WV?$stream_output_adapter@_W@__crt_stdio_output@@V?$standard_base@_WV?$stream_output_adapter@_W@__crt_stdio_output@@@2@@__crt_stdio_output@@CAPEA_WXZ 000000014004f57c f i libucrt:output.obj
 0001:0004e588       ?wide_null_string@?$output_processor@_WV?$string_output_adapter@_W@__crt_stdio_output@@V?$format_validation_base@_WV?$string_output_adapter@_W@__crt_stdio_output@@@2@@__crt_stdio_output@@CAPEA_WXZ 000000014004f588 f i libucrt:output.obj
 0001:0004e594       ?wide_null_string@?$output_processor@_WV?$string_output_adapter@_W@__crt_stdio_output@@V?$positional_parameter_base@_WV?$string_output_adapter@_W@__crt_stdio_output@@@2@@__crt_stdio_output@@CAPEA_WXZ 000000014004f594 f i libucrt:output.obj
 0001:0004e5a0       ?wide_null_string@?$output_processor@_WV?$string_output_adapter@_W@__crt_stdio_output@@V?$standard_base@_WV?$string_output_adapter@_W@__crt_stdio_output@@@2@@__crt_stdio_output@@CAPEA_WXZ 000000014004f5a0 f i libucrt:output.obj
 0001:0004e5ac       ?write_character@?$output_adapter_common@DV?$stream_output_adapter@D@__crt_stdio_output@@@__crt_stdio_output@@QEBAXDQEAHAEAV__crt_cached_ptd_host@@@Z 000000014004f5ac f i libucrt:output.obj
 0001:0004e60c       ?write_character@?$output_adapter_common@_WV?$stream_output_adapter@_W@__crt_stdio_output@@@__crt_stdio_output@@QEBAX_WQEAHAEAV__crt_cached_ptd_host@@@Z 000000014004f60c f i libucrt:output.obj
 0001:0004e670       ?write_character@?$string_output_adapter@D@__crt_stdio_output@@QEBA_NDQEAHAEAV__crt_cached_ptd_host@@@Z 000000014004f670 f i libucrt:output.obj
 0001:0004e6c8       ?write_character@?$string_output_adapter@_W@__crt_stdio_output@@QEBA_N_WQEAHAEAV__crt_cached_ptd_host@@@Z 000000014004f6c8 f i libucrt:output.obj
 0001:0004e724       ?write_character_without_count_update@?$stream_output_adapter@D@__crt_stdio_output@@QEBA_NDAEAV__crt_cached_ptd_host@@@Z 000000014004f724 f i libucrt:output.obj
 0001:0004e770       ?write_character_without_count_update@?$stream_output_adapter@_W@__crt_stdio_output@@QEBA_N_WAEAV__crt_cached_ptd_host@@@Z 000000014004f770 f i libucrt:output.obj
 0001:0004e7c0       ?write_stored_string_tchar@?$output_processor@DV?$stream_output_adapter@D@__crt_stdio_output@@V?$format_validation_base@DV?$stream_output_adapter@D@__crt_stdio_output@@@2@@__crt_stdio_output@@AEAA_ND@Z 000000014004f7c0 f i libucrt:output.obj
 0001:0004e930       ?write_stored_string_tchar@?$output_processor@DV?$stream_output_adapter@D@__crt_stdio_output@@V?$positional_parameter_base@DV?$stream_output_adapter@D@__crt_stdio_output@@@2@@__crt_stdio_output@@AEAA_ND@Z 000000014004f930 f i libucrt:output.obj
 0001:0004eaa0       ?write_stored_string_tchar@?$output_processor@DV?$stream_output_adapter@D@__crt_stdio_output@@V?$standard_base@DV?$stream_output_adapter@D@__crt_stdio_output@@@2@@__crt_stdio_output@@AEAA_ND@Z 000000014004faa0 f i libucrt:output.obj
 0001:0004ec10       ?write_stored_string_tchar@?$output_processor@DV?$string_output_adapter@D@__crt_stdio_output@@V?$format_validation_base@DV?$string_output_adapter@D@__crt_stdio_output@@@2@@__crt_stdio_output@@AEAA_ND@Z 000000014004fc10 f i libucrt:output.obj
 0001:0004ed20       ?write_stored_string_tchar@?$output_processor@DV?$string_output_adapter@D@__crt_stdio_output@@V?$positional_parameter_base@DV?$string_output_adapter@D@__crt_stdio_output@@@2@@__crt_stdio_output@@AEAA_ND@Z 000000014004fd20 f i libucrt:output.obj
 0001:0004ee30       ?write_stored_string_tchar@?$output_processor@DV?$string_output_adapter@D@__crt_stdio_output@@V?$standard_base@DV?$string_output_adapter@D@__crt_stdio_output@@@2@@__crt_stdio_output@@AEAA_ND@Z 000000014004fe30 f i libucrt:output.obj
 0001:0004ef40       ?write_stored_string_tchar@?$output_processor@_WV?$stream_output_adapter@_W@__crt_stdio_output@@V?$format_validation_base@_WV?$stream_output_adapter@_W@__crt_stdio_output@@@2@@__crt_stdio_output@@AEAA_N_W@Z 000000014004ff40 f i libucrt:output.obj
 0001:0004f0c4       ?write_stored_string_tchar@?$output_processor@_WV?$stream_output_adapter@_W@__crt_stdio_output@@V?$positional_parameter_base@_WV?$stream_output_adapter@_W@__crt_stdio_output@@@2@@__crt_stdio_output@@AEAA_N_W@Z 00000001400500c4 f i libucrt:output.obj
 0001:0004f248       ?write_stored_string_tchar@?$output_processor@_WV?$stream_output_adapter@_W@__crt_stdio_output@@V?$standard_base@_WV?$stream_output_adapter@_W@__crt_stdio_output@@@2@@__crt_stdio_output@@AEAA_N_W@Z 0000000140050248 f i libucrt:output.obj
 0001:0004f3cc       ?write_stored_string_tchar@?$output_processor@_WV?$string_output_adapter@_W@__crt_stdio_output@@V?$format_validation_base@_WV?$string_output_adapter@_W@__crt_stdio_output@@@2@@__crt_stdio_output@@AEAA_N_W@Z 00000001400503cc f i libucrt:output.obj
 0001:0004f514       ?write_stored_string_tchar@?$output_processor@_WV?$string_output_adapter@_W@__crt_stdio_output@@V?$positional_parameter_base@_WV?$string_output_adapter@_W@__crt_stdio_output@@@2@@__crt_stdio_output@@AEAA_N_W@Z 0000000140050514 f i libucrt:output.obj
 0001:0004f65c       ?write_stored_string_tchar@?$output_processor@_WV?$string_output_adapter@_W@__crt_stdio_output@@V?$standard_base@_WV?$string_output_adapter@_W@__crt_stdio_output@@@2@@__crt_stdio_output@@AEAA_N_W@Z 000000014005065c f i libucrt:output.obj
 0001:0004f7a4       ?write_string@?$stream_output_adapter@D@__crt_stdio_output@@QEBAXQEBDHQEAHAEAV__crt_cached_ptd_host@@@Z 00000001400507a4 f i libucrt:output.obj
 0001:0004f7d4       ?write_string@?$stream_output_adapter@_W@__crt_stdio_output@@QEBAXQEB_WHQEAHAEAV__crt_cached_ptd_host@@@Z 00000001400507d4 f i libucrt:output.obj
 0001:0004f804       ?write_string@?$string_output_adapter@D@__crt_stdio_output@@QEBAXQEBDHQEAHAEAV__crt_cached_ptd_host@@@Z 0000000140050804 f i libucrt:output.obj
 0001:0004f8d0       ?write_string@?$string_output_adapter@_W@__crt_stdio_output@@QEBAXQEB_WHQEAHAEAV__crt_cached_ptd_host@@@Z 00000001400508d0 f i libucrt:output.obj
 0001:0004f9a0       ?write_string_impl@?$output_adapter_common@DV?$stream_output_adapter@D@__crt_stdio_output@@@__crt_stdio_output@@IEBAXQEBDHQEAHAEAV__crt_cached_ptd_host@@@Z 00000001400509a0 f i libucrt:output.obj
 0001:0004faa0       ?write_string_impl@?$output_adapter_common@_WV?$stream_output_adapter@_W@__crt_stdio_output@@@__crt_stdio_output@@IEBAXQEB_WHQEAHAEAV__crt_cached_ptd_host@@@Z 0000000140050aa0 f i libucrt:output.obj
 0001:0004fbb4       __acrt_disable_global_locale_sync 0000000140050bb4 f i libucrt:output.obj
 0001:0004fbbc       __acrt_enable_global_locale_sync 0000000140050bbc f i libucrt:output.obj
 0001:0004fbc8       __acrt_isleadbyte_l_noupdate 0000000140050bc8 f i libucrt:output.obj
 0001:0004fbf4       __acrt_locale_changed      0000000140050bf4 f i libucrt:output.obj
 0001:0004fc04       __acrt_locale_get_ctype_array_value 0000000140050c04 f i libucrt:output.obj
 0001:0004fc24       __ascii_iswalpha           0000000140050c24 f i libucrt:output.obj
 0001:0004fc44       __ascii_toupper            0000000140050c44 f i libucrt:output.obj
 0001:0004fc58       __ascii_towupper           0000000140050c58 f i libucrt:output.obj
 0001:0004fc68       __stdio_common_vfprintf    0000000140050c68 f   libucrt:output.obj
 0001:0004fdd8       __stdio_common_vfprintf_p  0000000140050dd8 f   libucrt:output.obj
 0001:0004ff48       __stdio_common_vfprintf_s  0000000140050f48 f   libucrt:output.obj
 0001:000500b8       __stdio_common_vfwprintf   00000001400510b8 f   libucrt:output.obj
 0001:00050228       __stdio_common_vfwprintf_p 0000000140051228 f   libucrt:output.obj
 0001:00050398       __stdio_common_vfwprintf_s 0000000140051398 f   libucrt:output.obj
 0001:00050508       __stdio_common_vsnprintf_s 0000000140051508 f   libucrt:output.obj
 0001:00050754       __stdio_common_vsnwprintf_s 0000000140051754 f   libucrt:output.obj
 0001:000509a4       __stdio_common_vsprintf    00000001400519a4 f   libucrt:output.obj
 0001:00050c8c       __stdio_common_vsprintf_p  0000000140051c8c f   libucrt:output.obj
 0001:00050d70       __stdio_common_vsprintf_s  0000000140051d70 f   libucrt:output.obj
 0001:00050ec8       __stdio_common_vswprintf   0000000140051ec8 f   libucrt:output.obj
 0001:000511b8       __stdio_common_vswprintf_p 00000001400521b8 f   libucrt:output.obj
 0001:0005129c       __stdio_common_vswprintf_s 000000014005229c f   libucrt:output.obj
 0001:000513f4       _ctype_fast_check_internal 00000001400523f4 f i libucrt:output.obj
 0001:0005140c       _isdigit_fast_internal     000000014005240c f i libucrt:output.obj
 0001:00051428       _tolower_fast_internal     0000000140052428 f i libucrt:output.obj
 0001:00051440       powf                       0000000140052440 f   libucrt:powf.obj
 0001:000526dc       _seh_filter_dll            00000001400536dc f   libucrt:exception_filter.obj
 0001:000526f4       _seh_filter_exe            00000001400536f4 f   libucrt:exception_filter.obj
 0001:000529e4       __acrt_report_runtime_error 00000001400539e4 f   libucrt:report_runtime_error.obj
 0001:00052b98       _query_app_type            0000000140053b98 f   libucrt:report_runtime_error.obj
 0001:00052ba0       _set_app_type              0000000140053ba0 f   libucrt:report_runtime_error.obj
 0001:00052ba8       ??$__crt_fast_decode_pointer@P6AHPEAU_exception@@@Z@@YAP6AHPEAU_exception@@@ZQ6AH0@Z@Z 0000000140053ba8 f i libucrt:matherr.obj
 0001:00052bc4       ??$__crt_fast_encode_pointer@P6AHPEAU_exception@@@Z@@YAP6AHPEAU_exception@@@ZQ6AH0@Z@Z 0000000140053bc4 f i libucrt:matherr.obj
 0001:00052bec       ?__crt_rotate_pointer_value@@YA_K_KH@Z 0000000140053bec f i libucrt:matherr.obj
 0001:00052bf8       ?get_current_state_index@__crt_state_management@@YA_KXZ 0000000140053bf8 f i libucrt:matherr.obj
 0001:00052bfc       ?initialize@?$dual_state_global@P6AHPEAU_exception@@@Z@__crt_state_management@@QEAAXQ6AHPEAU_exception@@@Z@Z 0000000140053bfc f i libucrt:matherr.obj
 0001:00052c0c       ?value@?$dual_state_global@P6AHPEAU_exception@@@Z@__crt_state_management@@QEAAAEAP6AHPEAU_exception@@@ZXZ 0000000140053c0c f i libucrt:matherr.obj
 0001:00052c10       __acrt_has_user_matherr    0000000140053c10 f   libucrt:matherr.obj
 0001:00052c34       __acrt_initialize_user_matherr 0000000140053c34 f   libucrt:matherr.obj
 0001:00052c40       __acrt_invoke_user_matherr 0000000140053c40 f   libucrt:matherr.obj
 0001:00052c88       __setusermatherr           0000000140053c88 f   libucrt:matherr.obj
 0001:00052cb8       ??$?RE@__crt_internal_free_policy@@QEBAXQEBE@Z 0000000140053cb8 f i libucrt:argv_parsing.obj
 0001:00052cc4       ??$?RPEAD@__crt_internal_free_policy@@QEBAXQEBQEAD@Z 0000000140053cc4 f i libucrt:argv_parsing.obj
 0001:00052cd0       ??$?RPEA_W@__crt_internal_free_policy@@QEBAXQEBQEA_W@Z 0000000140053cd0 f i libucrt:argv_parsing.obj
 0001:00053088       ??$get_module_file_name@$$TAEAY0BAF@DH@?$__crt_char_traits@D@@SAK$$QEA$$TAEAY0BAF@D$$QEAH@Z 0000000140054088 f i libucrt:argv_parsing.obj
 0001:00053098       ??$get_module_file_name@$$TAEAY0BAF@_WH@?$__crt_char_traits@_W@@SAK$$QEA$$TAEAY0BAF@_W$$QEAH@Z 0000000140054098 f i libucrt:argv_parsing.obj
 0001:000534e4       ??$set_program_name@PEAD@?$__crt_char_traits@D@@SAX$$QEAPEAD@Z 00000001400544e4 f i libucrt:argv_parsing.obj
 0001:000534f4       ??$set_program_name@PEA_W@?$__crt_char_traits@_W@@SAX$$QEAPEA_W@Z 00000001400544f4 f i libucrt:argv_parsing.obj
 0001:00053514       ??0?$__crt_unique_heap_ptr@EU__crt_internal_free_policy@@@@QEAA@QEAE@Z 0000000140054514 f i libucrt:argv_parsing.obj
 0001:0005351c       ??0?$__crt_unique_heap_ptr@PEADU__crt_internal_free_policy@@@@QEAA@QEAPEAD@Z 000000014005451c f i libucrt:argv_parsing.obj
 0001:00053524       ??0?$__crt_unique_heap_ptr@PEA_WU__crt_internal_free_policy@@@@QEAA@QEAPEA_W@Z 0000000140054524 f i libucrt:argv_parsing.obj
 0001:0005352c       ??1?$__crt_unique_heap_ptr@EU__crt_internal_free_policy@@@@QEAA@XZ 000000014005452c f i libucrt:argv_parsing.obj
 0001:00053550       ??1?$__crt_unique_heap_ptr@PEADU__crt_internal_free_policy@@@@QEAA@XZ 0000000140054550 f i libucrt:argv_parsing.obj
 0001:00053574       ??1?$__crt_unique_heap_ptr@PEA_WU__crt_internal_free_policy@@@@QEAA@XZ 0000000140054574 f i libucrt:argv_parsing.obj
 0001:00053598       ??B?$__crt_unique_heap_ptr@EU__crt_internal_free_policy@@@@QEBA_NXZ 0000000140054598 f i libucrt:argv_parsing.obj
 0001:000535ec       ?detach@?$__crt_unique_heap_ptr@EU__crt_internal_free_policy@@@@QEAAPEAEXZ 00000001400545ec f i libucrt:argv_parsing.obj
 0001:000535f8       ?detach@?$__crt_unique_heap_ptr@PEADU__crt_internal_free_policy@@@@QEAAPEAPEADXZ 00000001400545f8 f i libucrt:argv_parsing.obj
 0001:00053604       ?detach@?$__crt_unique_heap_ptr@PEA_WU__crt_internal_free_policy@@@@QEAAPEAPEA_WXZ 0000000140054604 f i libucrt:argv_parsing.obj
 0001:0005362c       ?get@?$__crt_unique_heap_ptr@EU__crt_internal_free_policy@@@@QEBAPEAEXZ 000000014005462c f i libucrt:argv_parsing.obj
 0001:00053630       ?get@?$__crt_unique_heap_ptr@PEADU__crt_internal_free_policy@@@@QEBAPEAPEADXZ 0000000140054630 f i libucrt:argv_parsing.obj
 0001:00053634       ?get@?$__crt_unique_heap_ptr@PEA_WU__crt_internal_free_policy@@@@QEBAPEAPEA_WXZ 0000000140054634 f i libucrt:argv_parsing.obj
 0001:00053638       ?get_address_of@?$__crt_unique_heap_ptr@PEADU__crt_internal_free_policy@@@@QEAAPEAPEAPEADXZ 0000000140054638 f i libucrt:argv_parsing.obj
 0001:0005363c       ?get_address_of@?$__crt_unique_heap_ptr@PEA_WU__crt_internal_free_policy@@@@QEAAPEAPEAPEA_WXZ 000000014005463c f i libucrt:argv_parsing.obj
 0001:00053670       ?is_valid@?$__crt_unique_heap_ptr@EU__crt_internal_free_policy@@@@QEBA_NXZ 0000000140054670 f i libucrt:argv_parsing.obj
 0001:0005367c       ?release@?$__crt_unique_heap_ptr@EU__crt_internal_free_policy@@@@QEAAXXZ 000000014005467c f i libucrt:argv_parsing.obj
 0001:000536a0       ?release@?$__crt_unique_heap_ptr@PEADU__crt_internal_free_policy@@@@QEAAXXZ 00000001400546a0 f i libucrt:argv_parsing.obj
 0001:000536c4       ?release@?$__crt_unique_heap_ptr@PEA_WU__crt_internal_free_policy@@@@QEAAXXZ 00000001400546c4 f i libucrt:argv_parsing.obj
 0001:00053708       __acrt_allocate_buffer_for_argv 0000000140054708 f   libucrt:argv_parsing.obj
 0001:0005377c       _configure_narrow_argv     000000014005477c f   libucrt:argv_parsing.obj
 0001:00053964       _configure_wide_argv       0000000140054964 f   libucrt:argv_parsing.obj
 0001:00053b48       _set_pgmptr                0000000140054b48 f i libucrt:argv_parsing.obj
 0001:00053b54       _set_wpgmptr               0000000140054b54 f i libucrt:argv_parsing.obj
 0001:00053b60       ??$?R_W@__crt_internal_free_policy@@QEBAXQEB_W@Z 0000000140054b60 f i libucrt:environment_initialization.obj
 0001:000541d4       ??$get_environment_from_os@$$V@?$__crt_char_traits@D@@SAPEADXZ 00000001400551d4 f i libucrt:environment_initialization.obj
 0001:000541dc       ??$get_environment_from_os@$$V@?$__crt_char_traits@_W@@SAPEA_WXZ 00000001400551dc f i libucrt:environment_initialization.obj
 0001:000543e4       ??$set_variable_in_environment_nolock@PEADH@?$__crt_char_traits@D@@SAH$$QEAPEAD$$QEAH@Z 00000001400553e4 f i libucrt:environment_initialization.obj
 0001:000543f0       ??$set_variable_in_environment_nolock@PEA_WH@?$__crt_char_traits@_W@@SAH$$QEAPEA_W$$QEAH@Z 00000001400553f0 f i libucrt:environment_initialization.obj
 0001:000543fc       ??$tcscpy_s@PEADAEB_KAEAPEAD@?$__crt_char_traits@D@@SAH$$QEAPEADAEB_KAEAPEAD@Z 00000001400553fc f i libucrt:environment_initialization.obj
 0001:00054410       ??$tcscpy_s@PEA_WAEB_KAEAPEA_W@?$__crt_char_traits@_W@@SAH$$QEAPEA_WAEB_KAEAPEA_W@Z 0000000140055410 f i libucrt:environment_initialization.obj
 0001:00054424       ??$tcslen@AEAPEAD@?$__crt_char_traits@D@@SA_KAEAPEAD@Z 0000000140055424 f i libucrt:environment_initialization.obj
 0001:0005443c       ??$tcslen@AEAPEA_W@?$__crt_char_traits@_W@@SA_KAEAPEA_W@Z 000000014005543c f i libucrt:environment_initialization.obj
 0001:00054454       ??$uninitialize@A6AXAEAPEAPEAD@_E@?$dual_state_global@PEAPEAD@__crt_state_management@@QEAAXA6AXAEAPEAPEAD@_E@Z 0000000140055454 f i libucrt:environment_initialization.obj
 0001:000544c0       ??$uninitialize@A6AXAEAPEAPEA_W@_E@?$dual_state_global@PEAPEA_W@__crt_state_management@@QEAAXA6AXAEAPEAPEA_W@_E@Z 00000001400554c0 f i libucrt:environment_initialization.obj
 0001:0005456c       ??0?$__crt_unique_heap_ptr@_WU__crt_internal_free_policy@@@@QEAA@QEA_W@Z 000000014005556c f i libucrt:environment_initialization.obj
 0001:00054574       ??1?$__crt_unique_heap_ptr@_WU__crt_internal_free_policy@@@@QEAA@XZ 0000000140055574 f i libucrt:environment_initialization.obj
 0001:00054598       ??B?$__crt_unique_heap_ptr@PEADU__crt_internal_free_policy@@@@QEBA_NXZ 0000000140055598 f i libucrt:environment_initialization.obj
 0001:000545a4       ??B?$__crt_unique_heap_ptr@PEA_WU__crt_internal_free_policy@@@@QEBA_NXZ 00000001400555a4 f i libucrt:environment_initialization.obj
 0001:000545b0       ??B?$__crt_unique_heap_ptr@_WU__crt_internal_free_policy@@@@QEBA_NXZ 00000001400555b0 f i libucrt:environment_initialization.obj
 0001:000545bc       ?__crt_compute_required_transform_buffer_count@@YA_KIQEBD@Z 00000001400555bc f i libucrt:environment_initialization.obj
 0001:000545ec       ?__crt_compute_required_transform_buffer_count@@YA_KIQEB_W@Z 00000001400555ec f i libucrt:environment_initialization.obj
 0001:00054628       ?__crt_transform_string@@YA_KIQEBDQEA_W_K@Z 0000000140055628 f i libucrt:environment_initialization.obj
 0001:00054654       ?__crt_transform_string@@YA_KIQEB_WQEAD_K@Z 0000000140055654 f i libucrt:environment_initialization.obj
 0001:00054690       ?detach@?$__crt_unique_heap_ptr@DU__crt_internal_free_policy@@@@QEAAPEADXZ 0000000140055690 f i libucrt:environment_initialization.obj
 0001:0005469c       ?detach@?$__crt_unique_heap_ptr@_WU__crt_internal_free_policy@@@@QEAAPEA_WXZ 000000014005569c f i libucrt:environment_initialization.obj
 0001:000546a8       ?get@?$__crt_unique_heap_ptr@_WU__crt_internal_free_policy@@@@QEBAPEA_WXZ 00000001400556a8 f i libucrt:environment_initialization.obj
 0001:000546f4       ?initialize@?$dual_state_global@PEAPEAD@__crt_state_management@@QEAAXQEAPEAD@Z 00000001400556f4 f i libucrt:environment_initialization.obj
 0001:00054704       ?initialize@?$dual_state_global@PEAPEA_W@__crt_state_management@@QEAAXQEAPEA_W@Z 0000000140055704 f i libucrt:environment_initialization.obj
 0001:00054714       ?is_valid@?$__crt_unique_heap_ptr@PEADU__crt_internal_free_policy@@@@QEBA_NXZ 0000000140055714 f i libucrt:environment_initialization.obj
 0001:00054720       ?is_valid@?$__crt_unique_heap_ptr@PEA_WU__crt_internal_free_policy@@@@QEBA_NXZ 0000000140055720 f i libucrt:environment_initialization.obj
 0001:0005472c       ?is_valid@?$__crt_unique_heap_ptr@_WU__crt_internal_free_policy@@@@QEBA_NXZ 000000014005572c f i libucrt:environment_initialization.obj
 0001:00054744       ?release@?$__crt_unique_heap_ptr@_WU__crt_internal_free_policy@@@@QEAAXXZ 0000000140055744 f i libucrt:environment_initialization.obj
 0001:00054768       ?value@?$dual_state_global@PEAPEAD@__crt_state_management@@QEAAAEAPEAPEADXZ 0000000140055768 f i libucrt:environment_initialization.obj
 0001:0005476c       ?value@?$dual_state_global@PEAPEA_W@__crt_state_management@@QEAAAEAPEAPEA_WXZ 000000014005576c f i libucrt:environment_initialization.obj
 0001:00054770       __dcrt_get_or_create_narrow_environment_nolock 0000000140055770 f   libucrt:environment_initialization.obj
 0001:000547bc       __dcrt_get_or_create_wide_environment_nolock 00000001400557bc f   libucrt:environment_initialization.obj
 0001:00054808       __dcrt_uninitialize_environments_nolock 0000000140055808 f   libucrt:environment_initialization.obj
 0001:0005485c       __p__environ               000000014005585c f   libucrt:environment_initialization.obj
 0001:00054868       __p__wenviron              0000000140055868 f   libucrt:environment_initialization.obj
 0001:00054874       _get_initial_narrow_environment 0000000140055874 f   libucrt:environment_initialization.obj
 0001:000548d8       _get_initial_wide_environment 00000001400558d8 f   libucrt:environment_initialization.obj
 0001:0005493c       _initialize_narrow_environment 000000014005593c f   libucrt:environment_initialization.obj
 0001:00054944       _initialize_wide_environment 0000000140055944 f   libucrt:environment_initialization.obj
 0001:0005494c       _initterm                  000000014005594c f   libucrt:initterm.obj
 0001:000549a0       _initterm_e                00000001400559a0 f   libucrt:initterm.obj
 0001:000549f8       ??$?B$$A6AXPEAXK0@Z@__crt_fast_encoded_nullptr_t@@QEBAP6AXPEAXK0@ZXZ 00000001400559f8 f i libucrt:exit.obj
 0001:00054a88       ??$__crt_fast_decode_pointer@P6AXPEAXK0@Z@@YAP6AXPEAXK0@ZQ6AX0K0@Z@Z 0000000140055a88 f i libucrt:exit.obj
 0001:00054aa4       ??$__crt_fast_encode_pointer@P6AXPEAXK0@Z@@YAP6AXPEAXK0@ZQ6AX0K0@Z@Z 0000000140055aa4 f i libucrt:exit.obj
 0001:00054acc       ??$__crt_get_proc_address@P6AXI@Z@@YAP6AXI@ZQEAUHINSTANCE__@@QEBD@Z 0000000140055acc f i libucrt:exit.obj
 0001:00054b00       ??0?$__crt_unique_handle_t@U__crt_hmodule_traits@@@@QEAA@QEAUHINSTANCE__@@@Z 0000000140055b00 f i libucrt:exit.obj
 0001:00054b08       ??1?$__crt_unique_handle_t@U__crt_hmodule_traits@@@@QEAA@XZ 0000000140055b08 f i libucrt:exit.obj
 0001:00054c44       ?__acrt_select_exit_lock@@YA?AW4__acrt_lock_id@@XZ 0000000140055c44 f i libucrt:exit.obj
 0001:00054c4c       ?__crt_fast_encode_pointer@@YA?AU__crt_fast_encoded_nullptr_t@@$$T@Z 0000000140055c4c f i libucrt:exit.obj
 0001:00054c64       ?close@?$__crt_unique_handle_t@U__crt_hmodule_traits@@@@QEAAXXZ 0000000140055c64 f i libucrt:exit.obj
 0001:00054c90       ?close@__crt_hmodule_traits@@SA_NPEAUHINSTANCE__@@@Z 0000000140055c90 f i libucrt:exit.obj
 0001:00054de4       ?get@?$__crt_unique_handle_t@U__crt_hmodule_traits@@@@QEBAPEAUHINSTANCE__@@XZ 0000000140055de4 f i libucrt:exit.obj
 0001:00054de8       ?get_address_of@?$__crt_unique_handle_t@U__crt_hmodule_traits@@@@QEAAPEAPEAUHINSTANCE__@@XZ 0000000140055de8 f i libucrt:exit.obj
 0001:00054dec       ?get_invalid_value@__crt_hmodule_traits@@SAPEAUHINSTANCE__@@XZ 0000000140055dec f i libucrt:exit.obj
 0001:00054f20       _Exit                      0000000140055f20 f   libucrt:exit.obj
 0001:00054f30       __acrt_initialize_thread_local_exit_callback 0000000140055f30 f   libucrt:exit.obj
 0001:00054f3c       _c_exit                    0000000140055f3c f   libucrt:exit.obj
 0001:00054f50       _cexit                     0000000140055f50 f   libucrt:exit.obj
 0001:00054f60       _exit                      0000000140055f60 f   libucrt:exit.obj
 0001:00054f70       _is_c_termination_complete 0000000140055f70 f   libucrt:exit.obj
 0001:00054f78       _register_thread_local_exe_atexit_callback 0000000140055f78 f   libucrt:exit.obj
 0001:00054fc8       exit                       0000000140055fc8 f   libucrt:exit.obj
 0001:00054fd4       quick_exit                 0000000140055fd4 f   libucrt:exit.obj
 0001:00054fe4       ??$__crt_interlocked_read@H@@YAHPEDH@Z 0000000140055fe4 f i libucrt:setmode.obj
 0001:00054fe8       ?value@?$dual_state_global@H@__crt_state_management@@QEAAAEAHXZ 0000000140055fe8 f i libucrt:setmode.obj
 0001:00054fec       _get_fmode                 0000000140055fec f   libucrt:setmode.obj
 0001:00055028       _set_fmode                 0000000140056028 f   libucrt:setmode.obj
 0001:00055074       _setmode                   0000000140056074 f   libucrt:setmode.obj
 0001:000551b8       _setmode_nolock            00000001400561b8 f   libucrt:setmode.obj
 0001:000552d0       __acrt_initialize_command_line 00000001400562d0 f   libucrt:argv_data.obj
 0001:00055300       __acrt_uninitialize_command_line 0000000140056300 f   libucrt:argv_data.obj
 0001:00055304       __p___argc                 0000000140056304 f   libucrt:argv_data.obj
 0001:00055310       __p___argv                 0000000140056310 f   libucrt:argv_data.obj
 0001:0005531c       __p___wargv                000000014005631c f   libucrt:argv_data.obj
 0001:00055328       __p__acmdln                0000000140056328 f   libucrt:argv_data.obj
 0001:00055334       __p__pgmptr                0000000140056334 f   libucrt:argv_data.obj
 0001:00055340       __p__wcmdln                0000000140056340 f   libucrt:argv_data.obj
 0001:0005534c       __p__wpgmptr               000000014005634c f   libucrt:argv_data.obj
 0001:00055358       _get_pgmptr                0000000140056358 f   libucrt:argv_data.obj
 0001:0005539c       _get_wpgmptr               000000014005639c f   libucrt:argv_data.obj
 0001:000553e4       ??$?RU__crt_locale_data@@@__crt_internal_free_policy@@QEBAXQEBU__crt_locale_data@@@Z 00000001400563e4 f i libucrt:wsetlocale.obj
 0001:000553f0       ??$?RU__crt_locale_pointers@@@__crt_internal_free_policy@@QEBAXQEBU__crt_locale_pointers@@@Z 00000001400563f0 f i libucrt:wsetlocale.obj
 0001:000553fc       ??$?RU__crt_multibyte_data@@@__crt_internal_free_policy@@QEBAXQEBU__crt_multibyte_data@@@Z 00000001400563fc f i libucrt:wsetlocale.obj
 0001:000558fc       ??0?$__crt_unique_heap_ptr@U__crt_locale_data@@U__crt_internal_free_policy@@@@QEAA@QEAU__crt_locale_data@@@Z 00000001400568fc f i libucrt:wsetlocale.obj
 0001:00055904       ??0?$__crt_unique_heap_ptr@U__crt_locale_pointers@@U__crt_internal_free_policy@@@@QEAA@QEAU__crt_locale_pointers@@@Z 0000000140056904 f i libucrt:wsetlocale.obj
 0001:0005590c       ??0?$__crt_unique_heap_ptr@U__crt_multibyte_data@@U__crt_internal_free_policy@@@@QEAA@QEAU__crt_multibyte_data@@@Z 000000014005690c f i libucrt:wsetlocale.obj
 0001:00055914       ??0_expandlocale_locale_name_cache@@QEAA@QEA_W_KQEAU__crt_qualified_locale_data@@@Z 0000000140056914 f i libucrt:wsetlocale.obj
 0001:00055984       ??1?$__crt_unique_heap_ptr@U__crt_locale_data@@U__crt_internal_free_policy@@@@QEAA@XZ 0000000140056984 f i libucrt:wsetlocale.obj
 0001:000559a8       ??1?$__crt_unique_heap_ptr@U__crt_locale_pointers@@U__crt_internal_free_policy@@@@QEAA@XZ 00000001400569a8 f i libucrt:wsetlocale.obj
 0001:000559cc       ??1?$__crt_unique_heap_ptr@U__crt_multibyte_data@@U__crt_internal_free_policy@@@@QEAA@XZ 00000001400569cc f i libucrt:wsetlocale.obj
 0001:000559f0       ??1_expandlocale_locale_name_cache@@QEAA@XZ 00000001400569f0 f i libucrt:wsetlocale.obj
 0001:00055a4c       ??B?$__crt_unique_heap_ptr@U__crt_locale_data@@U__crt_internal_free_policy@@@@QEBA_NXZ 0000000140056a4c f i libucrt:wsetlocale.obj
 0001:00055a58       ??B?$__crt_unique_heap_ptr@U__crt_locale_pointers@@U__crt_internal_free_policy@@@@QEBA_NXZ 0000000140056a58 f i libucrt:wsetlocale.obj
 0001:00055a64       ??B?$__crt_unique_heap_ptr@U__crt_multibyte_data@@U__crt_internal_free_policy@@@@QEBA_NXZ 0000000140056a64 f i libucrt:wsetlocale.obj
 0001:00055d70       ?commit_locale_name@_expandlocale_locale_name_cache@@QEAAXQEB_W_K@Z 0000000140056d70 f i libucrt:wsetlocale.obj
 0001:00055e04       ?commit_locale_name_cache_already_updated@_expandlocale_locale_name_cache@@QEAAXQEB_W_K@Z 0000000140056e04 f i libucrt:wsetlocale.obj
 0001:00055e54       ?detach@?$__crt_unique_heap_ptr@U__crt_locale_data@@U__crt_internal_free_policy@@@@QEAAPEAU__crt_locale_data@@XZ 0000000140056e54 f i libucrt:wsetlocale.obj
 0001:00055e60       ?detach@?$__crt_unique_heap_ptr@U__crt_locale_pointers@@U__crt_internal_free_policy@@@@QEAAPEAU__crt_locale_pointers@@XZ 0000000140056e60 f i libucrt:wsetlocale.obj
 0001:00055e6c       ?detach@?$__crt_unique_heap_ptr@U__crt_multibyte_data@@U__crt_internal_free_policy@@@@QEAAPEAU__crt_multibyte_data@@XZ 0000000140056e6c f i libucrt:wsetlocale.obj
 0001:00055e78       ?get@?$__crt_unique_heap_ptr@U__crt_locale_data@@U__crt_internal_free_policy@@@@QEBAPEAU__crt_locale_data@@XZ 0000000140056e78 f i libucrt:wsetlocale.obj
 0001:00055e7c       ?get@?$__crt_unique_heap_ptr@U__crt_locale_pointers@@U__crt_internal_free_policy@@@@QEBAPEAU__crt_locale_pointers@@XZ 0000000140056e7c f i libucrt:wsetlocale.obj
 0001:00055e80       ?get@?$__crt_unique_heap_ptr@U__crt_multibyte_data@@U__crt_internal_free_policy@@@@QEBAPEAU__crt_multibyte_data@@XZ 0000000140056e80 f i libucrt:wsetlocale.obj
 0001:00055e84       ?is_valid@?$__crt_unique_heap_ptr@U__crt_locale_data@@U__crt_internal_free_policy@@@@QEBA_NXZ 0000000140056e84 f i libucrt:wsetlocale.obj
 0001:00055e90       ?is_valid@?$__crt_unique_heap_ptr@U__crt_locale_pointers@@U__crt_internal_free_policy@@@@QEBA_NXZ 0000000140056e90 f i libucrt:wsetlocale.obj
 0001:00055e9c       ?is_valid@?$__crt_unique_heap_ptr@U__crt_multibyte_data@@U__crt_internal_free_policy@@@@QEBA_NXZ 0000000140056e9c f i libucrt:wsetlocale.obj
 0001:00055ea8       ?release@?$__crt_unique_heap_ptr@U__crt_locale_data@@U__crt_internal_free_policy@@@@QEAAXXZ 0000000140056ea8 f i libucrt:wsetlocale.obj
 0001:00055ecc       ?release@?$__crt_unique_heap_ptr@U__crt_locale_pointers@@U__crt_internal_free_policy@@@@QEAAXXZ 0000000140056ecc f i libucrt:wsetlocale.obj
 0001:00055ef0       ?release@?$__crt_unique_heap_ptr@U__crt_multibyte_data@@U__crt_internal_free_policy@@@@QEAAXXZ 0000000140056ef0 f i libucrt:wsetlocale.obj
 0001:00055f14       ?value@?$dual_state_global@PEAU__crt_locale_data@@@__crt_state_management@@QEAAAEAPEAU__crt_locale_data@@XZ 0000000140056f14 f i libucrt:wsetlocale.obj
 0001:00055f18       __acrt_copy_locale_name    0000000140056f18 f   libucrt:wsetlocale.obj
 0001:00055fbc       __acrt_set_locale_changed  0000000140056fbc f   libucrt:wsetlocale.obj
 0001:00055fcc       __acrt_uninitialize_locale 0000000140056fcc f   libucrt:wsetlocale.obj
 0001:00056008       __ascii_tolower            0000000140057008 f i libucrt:wsetlocale.obj
 0001:0005601c       __ascii_towlower           000000014005701c f i libucrt:wsetlocale.obj
 0001:0005602c       __lc_lctowcs               000000014005702c f   libucrt:wsetlocale.obj
 0001:000560f8       __lc_wcstolc               00000001400570f8 f   libucrt:wsetlocale.obj
 0001:000562b8       _configthreadlocale        00000001400572b8 f   libucrt:wsetlocale.obj
 0001:0005642c       _create_locale             000000014005742c f   libucrt:wsetlocale.obj
 0001:00056a5c       _free_locale               0000000140057a5c f   libucrt:wsetlocale.obj
 0001:00056b28       _get_current_locale        0000000140057b28 f   libucrt:wsetlocale.obj
 0001:00056c14       _wcreate_locale            0000000140057c14 f   libucrt:wsetlocale.obj
 0001:00056db0       _wcscats                   0000000140057db0 f   libucrt:wsetlocale.obj
 0001:00056e30       _wsetlocale                0000000140057e30 f   libucrt:wsetlocale.obj
 0001:00057fcc       ?value@?$dual_state_global@J@__crt_state_management@@QEAAAEAJXZ 0000000140058fcc f i libucrt:new_mode.obj
 0001:00057fd0       _query_new_mode            0000000140058fd0 f   libucrt:new_mode.obj
 0001:00057fd8       _set_new_mode              0000000140058fd8 f   libucrt:new_mode.obj
 0001:00058010       __p__commode               0000000140059010 f   libucrt:ncommode.obj
 0001:0005801c       ??$?B$$A6AXXZ@__crt_fast_encoded_nullptr_t@@QEBAP6AXXZXZ 000000014005901c f i libucrt:onexit.obj
 0001:00058028       ??$?BP6AXXZ@__crt_fast_encoded_nullptr_t@@QEBAPEAP6AXXZXZ 0000000140059028 f i libucrt:onexit.obj
 0001:00058034       ??$?RP6AXXZ@__crt_internal_free_policy@@QEBAXQEBQ6AXXZ@Z 0000000140059034 f i libucrt:onexit.obj
 0001:00058144       ??$__crt_fast_decode_pointer@P6AXXZ@@YAP6AXXZQ6AXXZ@Z 0000000140059144 f i libucrt:onexit.obj
 0001:00058160       ??$__crt_fast_decode_pointer@PEAP6AXXZ@@YAPEAP6AXXZQEAP6AXXZ@Z 0000000140059160 f i libucrt:onexit.obj
 0001:0005817c       ??$__crt_fast_encode_pointer@P6AHXZ@@YAP6AHXZQ6AHXZ@Z 000000014005917c f i libucrt:onexit.obj
 0001:000581a4       ??$__crt_fast_encode_pointer@P6AXXZ@@YAP6AXXZQ6AXXZ@Z 00000001400591a4 f i libucrt:onexit.obj
 0001:000581cc       ??$__crt_fast_encode_pointer@PEAP6AXXZ@@YAPEAP6AXXZQEAP6AXXZ@Z 00000001400591cc f i libucrt:onexit.obj
 0001:0005823c       ??0?$__crt_unique_heap_ptr@P6AXXZU__crt_internal_free_policy@@@@QEAA@QEAP6AXXZ@Z 000000014005923c f i libucrt:onexit.obj
 0001:00058244       ??1?$__crt_unique_heap_ptr@P6AXXZU__crt_internal_free_policy@@@@QEAA@XZ 0000000140059244 f i libucrt:onexit.obj
 0001:00058268       ??1scoped_global_state_reset@__crt_state_management@@QEAA@XZ 0000000140059268 f i libucrt:onexit.obj
 0001:00058610       ?detach@?$__crt_unique_heap_ptr@P6AXXZU__crt_internal_free_policy@@@@QEAAPEAP6AXXZXZ 0000000140059610 f i libucrt:onexit.obj
 0001:0005861c       ?release@?$__crt_unique_heap_ptr@P6AXXZU__crt_internal_free_policy@@@@QEAAXXZ 000000014005961c f i libucrt:onexit.obj
 0001:00058640       _crt_at_quick_exit         0000000140059640 f   libucrt:onexit.obj
 0001:00058654       _crt_atexit                0000000140059654 f   libucrt:onexit.obj
 0001:00058668       _execute_onexit_table      0000000140059668 f   libucrt:onexit.obj
 0001:000586bc       _initialize_onexit_table   00000001400596bc f   libucrt:onexit.obj
 0001:000586ec       _register_onexit_function  00000001400596ec f   libucrt:onexit.obj
 0001:000588cc       ??$?BX@__crt_fast_encoded_nullptr_t@@QEBAPEAXXZ 00000001400598cc f i libucrt:initialization.obj
 0001:000588d8       ??$__crt_fast_encode_pointer@PEAX@@YAPEAXQEAX@Z 00000001400598d8 f i libucrt:initialization.obj
 0001:000589c0       ?__acrt_stdio_is_initialized@@YA_NXZ 00000001400599c0 f i libucrt:initialization.obj
 0001:000589d0       ?initialize@?$dual_state_global@PEAU__crt_locale_data@@@__crt_state_management@@QEAAXQEAU__crt_locale_data@@@Z 00000001400599d0 f i libucrt:initialization.obj
 0001:000589e0       __acrt_initialize          00000001400599e0 f   libucrt:initialization.obj
 0001:000589f8       __acrt_thread_attach       00000001400599f8 f   libucrt:initialization.obj
 0001:00058a14       __acrt_thread_detach       0000000140059a14 f   libucrt:initialization.obj
 0001:00058a28       __acrt_uninitialize        0000000140059a28 f   libucrt:initialization.obj
 0001:00058a6c       __acrt_uninitialize_critical 0000000140059a6c f   libucrt:initialization.obj
 0001:00058a98       _get_terminate             0000000140059a98 f   libucrt:terminate.obj
 0001:00058ac4       set_terminate              0000000140059ac4 f   libucrt:terminate.obj
 0001:00058afc       terminate                  0000000140059afc f   libucrt:terminate.obj
 0001:00058b30       free                       0000000140059b30 f   libucrt:free.obj
 0001:00058b48       malloc                     0000000140059b48 f   libucrt:malloc.obj
 0001:00058bcc       strcpy_s                   0000000140059bcc f   libucrt:strcpy_s.obj
 0001:00058c44       _set_abort_behavior        0000000140059c44 f   libucrt:abort.obj
 0001:00058c68       abort                      0000000140059c68 f   libucrt:abort.obj
 0001:00058cd4       calloc                     0000000140059cd4 f   libucrt:calloc.obj
 0001:00058cdc       ??$is_overflow_condition@_K@__crt_strtox@@YA_NI_K@Z 0000000140059cdc f i libucrt:atox.obj
 0001:00058d18       ??$make_c_string_character_source@D$$T@__crt_strtox@@YA?AV?$c_string_character_source@D@0@QEBD$$T@Z 0000000140059d18 f i libucrt:atox.obj
 0001:00058d30       ??$make_c_string_character_source@_W$$T@__crt_strtox@@YA?AV?$c_string_character_source@_W@0@QEB_W$$T@Z 0000000140059d30 f i libucrt:atox.obj
 0001:00058d48       ??$parse_integer@KV?$c_string_character_source@D@__crt_strtox@@$00@__crt_strtox@@YAKAEAV__crt_cached_ptd_host@@V?$c_string_character_source@D@0@H_N@Z 0000000140059d48 f i libucrt:atox.obj
 0001:000590e0       ??$parse_integer@KV?$c_string_character_source@_W@__crt_strtox@@$00@__crt_strtox@@YAKAEAV__crt_cached_ptd_host@@V?$c_string_character_source@_W@0@H_N@Z 000000014005a0e0 f i libucrt:atox.obj
 0001:00059a48       ??$parse_integer@_KV?$c_string_character_source@D@__crt_strtox@@$00@__crt_strtox@@YA_KAEAV__crt_cached_ptd_host@@V?$c_string_character_source@D@0@H_N@Z 000000014005aa48 f i libucrt:atox.obj
 0001:00059ddc       ??$parse_integer@_KV?$c_string_character_source@_W@__crt_strtox@@$00@__crt_strtox@@YA_KAEAV__crt_cached_ptd_host@@V?$c_string_character_source@_W@0@H_N@Z 000000014005addc f i libucrt:atox.obj
 0001:0005a730       ??$parse_integer_from_string@JD$$T@__crt_strtox@@YAJQEBD$$THQEAU__crt_locale_pointers@@@Z 000000014005b730 f i libucrt:atox.obj
 0001:0005a81c       ??$parse_integer_from_string@J_W$$T@__crt_strtox@@YAJQEB_W$$THQEAU__crt_locale_pointers@@@Z 000000014005b81c f i libucrt:atox.obj
 0001:0005a908       ??$parse_integer_from_string@_JD$$T@__crt_strtox@@YA_JQEBD$$THQEAU__crt_locale_pointers@@@Z 000000014005b908 f i libucrt:atox.obj
 0001:0005a9f8       ??$parse_integer_from_string@_J_W$$T@__crt_strtox@@YA_JQEB_W$$THQEAU__crt_locale_pointers@@@Z 000000014005b9f8 f i libucrt:atox.obj
 0001:0005aae8       ?is_space@__crt_strtox@@YA_NDQEAU__crt_locale_pointers@@@Z 000000014005bae8 f i libucrt:atox.obj
 0001:0005ab10       ?is_space@__crt_strtox@@YA_N_WPEAU__crt_locale_pointers@@@Z 000000014005bb10 f i libucrt:atox.obj
 0001:0005ab30       ?maximum_signed_value@__crt_strtox@@YA_J_K@Z 000000014005bb30 f i libucrt:atox.obj
 0001:0005ab40       ?minimum_signed_value@__crt_strtox@@YA_J_K@Z 000000014005bb40 f i libucrt:atox.obj
 0001:0005ab50       __acrt_get_locale_data_prefix 000000014005bb50 f i libucrt:atox.obj
 0001:0005ab54       _atoi64                    000000014005bb54 f   libucrt:atox.obj
 0001:0005ac34       _atoi64_l                  000000014005bc34 f   libucrt:atox.obj
 0001:0005ad20       _atoi_l                    000000014005bd20 f   libucrt:atox.obj
 0001:0005ae08       _atol_l                    000000014005be08 f   libucrt:atox.obj
 0001:0005aef0       _atoll_l                   000000014005bef0 f   libucrt:atox.obj
 0001:0005afdc       _chvalidchk_l              000000014005bfdc f i libucrt:atox.obj
 0001:0005b058       _ischartype_l              000000014005c058 f i libucrt:atox.obj
 0001:0005b0ec       _wtoi                      000000014005c0ec f   libucrt:atox.obj
 0001:0005b1c8       _wtoi64                    000000014005c1c8 f   libucrt:atox.obj
 0001:0005b2a8       _wtoi64_l                  000000014005c2a8 f   libucrt:atox.obj
 0001:0005b394       _wtoi_l                    000000014005c394 f   libucrt:atox.obj
 0001:0005b47c       _wtol                      000000014005c47c f   libucrt:atox.obj
 0001:0005b558       _wtol_l                    000000014005c558 f   libucrt:atox.obj
 0001:0005b640       _wtoll                     000000014005c640 f   libucrt:atox.obj
 0001:0005b720       _wtoll_l                   000000014005c720 f   libucrt:atox.obj
 0001:0005b80c       atoi                       000000014005c80c f   libucrt:atox.obj
 0001:0005b8e8       atol                       000000014005c8e8 f   libucrt:atox.obj
 0001:0005b9c4       atoll                      000000014005c9c4 f   libucrt:atox.obj
 0001:0005bac0       strncmp                    000000014005cac0 f   libucrt:strncmp.obj
 0001:0005bb60       wcsncmp                    000000014005cb60 f   libucrt:wcsncmp.obj
 0001:0005bd00       _handle_error              000000014005cd00 f   libucrt:libm_error.obj
 0001:0005be70       _handle_errorf             000000014005ce70 f   libucrt:libm_error.obj
 0001:0005bff0       _handle_nan                000000014005cff0 f   libucrt:libm_error.obj
 0001:0005c010       _handle_nanf               000000014005d010 f   libucrt:libm_error.obj
 0001:0005c024       ??$__crt_fast_decode_pointer@P6AXPEB_W00I_K@Z@@YAP6AXPEB_W00I_K@ZQ6AX000I1@Z@Z 000000014005d024 f i libucrt:invalid_parameter.obj
 0001:0005c040       ??$__crt_fast_encode_pointer@P6AXPEB_W00I_K@Z@@YAP6AXPEB_W00I_K@ZQ6AX000I1@Z@Z 000000014005d040 f i libucrt:invalid_parameter.obj
 0001:0005c068       ??$initialize_from_array@$$BY00Q6AXPEB_W00I_K@Z@?$dual_state_global@P6AXPEB_W00I_K@Z@__crt_state_management@@QEAAXAEAY00Q6AXPEB_W00I_K@Z@Z 000000014005d068 f i libucrt:invalid_parameter.obj
 0001:0005c0f8       ?check_synchronize_global_state_index@__crt_cached_ptd_host@@AEAA_KXZ 000000014005d0f8 f i libucrt:invalid_parameter.obj
 0001:0005c13c       ?dangerous_get_state_array@?$dual_state_global@P6AXPEB_W00I_K@Z@__crt_state_management@@QEAAPEAP6AXPEB_W00I_K@ZXZ 000000014005d13c f i libucrt:invalid_parameter.obj
 0001:0005c140       ?get_current_global_state_index@__crt_cached_ptd_host@@QEAA_KXZ 000000014005d140 f i libucrt:invalid_parameter.obj
 0001:0005c190       ?get_raw_ptd_noexit@__crt_cached_ptd_host@@QEAAPEAU__acrt_ptd@@XZ 000000014005d190 f i libucrt:invalid_parameter.obj
 0001:0005c214       ?try_synchronize_per_thread_data@__crt_cached_ptd_host@@AEAAPEAU__acrt_ptd@@XZ 000000014005d214 f i libucrt:invalid_parameter.obj
 0001:0005c290       ?value@?$dual_state_global@P6AXPEB_W00I_K@Z@__crt_state_management@@QEAAAEAP6AXPEB_W00I_K@ZAEAV__crt_cached_ptd_host@@@Z 000000014005d290 f i libucrt:invalid_parameter.obj
 0001:0005c2f0       ?value@?$dual_state_global@P6AXPEB_W00I_K@Z@__crt_state_management@@QEAAAEAP6AXPEB_W00I_K@ZXZ 000000014005d2f0 f i libucrt:invalid_parameter.obj
 0001:0005c2f4       __acrt_call_reportfault    000000014005d2f4 f   libucrt:invalid_parameter.obj
 0001:0005c4a8       __acrt_initialize_invalid_parameter_handler 000000014005d4a8 f   libucrt:invalid_parameter.obj
 0001:0005c4b4       _get_invalid_parameter_handler 000000014005d4b4 f   libucrt:invalid_parameter.obj
 0001:0005c4d0       _get_thread_local_invalid_parameter_handler 000000014005d4d0 f   libucrt:invalid_parameter.obj
 0001:0005c4f0       _invalid_parameter         000000014005d4f0 f   libucrt:invalid_parameter.obj
 0001:0005c5b4       _invalid_parameter_internal 000000014005d5b4 f   libucrt:invalid_parameter.obj
 0001:0005c6b8       _invalid_parameter_noinfo  000000014005d6b8 f   libucrt:invalid_parameter.obj
 0001:0005c6e0       _invalid_parameter_noinfo_noreturn 000000014005d6e0 f   libucrt:invalid_parameter.obj
 0001:0005c71c       _invoke_watson             000000014005d71c f   libucrt:invalid_parameter.obj
 0001:0005c774       _set_invalid_parameter_handler 000000014005d774 f   libucrt:invalid_parameter.obj
 0001:0005c7b8       _set_thread_local_invalid_parameter_handler 000000014005d7b8 f   libucrt:invalid_parameter.obj
 0001:0005c7e8       ?get_doserrno@__crt_cached_ptd_host@@QEAAAEAU?$cached@K@1@XZ 000000014005d7e8 f i libucrt:errno.obj
 0001:0005c7f0       ?set@?$cached@K@__crt_cached_ptd_host@@QEAAKK@Z 000000014005d7f0 f i libucrt:errno.obj
 0001:0005c7fc       __acrt_errno_from_os_error 000000014005d7fc f   libucrt:errno.obj
 0001:0005c854       __acrt_errno_map_os_error  000000014005d854 f   libucrt:errno.obj
 0001:0005c8ac       __acrt_errno_map_os_error_ptd 000000014005d8ac f   libucrt:errno.obj
 0001:0005c8d8       __doserrno                 000000014005d8d8 f   libucrt:errno.obj
 0001:0005c900       _errno                     000000014005d900 f   libucrt:errno.obj
 0001:0005c928       _get_doserrno              000000014005d928 f   libucrt:errno.obj
 0001:0005c974       _get_errno                 000000014005d974 f   libucrt:errno.obj
 0001:0005c9c0       _set_doserrno              000000014005d9c0 f   libucrt:errno.obj
 0001:0005ca08       _set_errno                 000000014005da08 f   libucrt:errno.obj
 0001:0005d06c       _i64toa                    000000014005e06c f   libucrt:xtoa.obj
 0001:0005d0ac       _i64toa_s                  000000014005e0ac f   libucrt:xtoa.obj
 0001:0005d0d8       _i64tow                    000000014005e0d8 f   libucrt:xtoa.obj
 0001:0005d118       _i64tow_s                  000000014005e118 f   libucrt:xtoa.obj
 0001:0005d144       _itoa                      000000014005e144 f   libucrt:xtoa.obj
 0001:0005d180       _itoa_s                    000000014005e180 f   libucrt:xtoa.obj
 0001:0005d1a8       _itow                      000000014005e1a8 f   libucrt:xtoa.obj
 0001:0005d1e4       _itow_s                    000000014005e1e4 f   libucrt:xtoa.obj
 0001:0005d20c       _ltoa                      000000014005e20c f   libucrt:xtoa.obj
 0001:0005d248       _ltoa_s                    000000014005e248 f   libucrt:xtoa.obj
 0001:0005d270       _ltow                      000000014005e270 f   libucrt:xtoa.obj
 0001:0005d2ac       _ltow_s                    000000014005e2ac f   libucrt:xtoa.obj
 0001:0005d2d4       _ui64toa                   000000014005e2d4 f   libucrt:xtoa.obj
 0001:0005d300       _ui64toa_s                 000000014005e300 f   libucrt:xtoa.obj
 0001:0005d318       _ui64tow                   000000014005e318 f   libucrt:xtoa.obj
 0001:0005d344       _ui64tow_s                 000000014005e344 f   libucrt:xtoa.obj
 0001:0005d35c       _ultoa                     000000014005e35c f   libucrt:xtoa.obj
 0001:0005d388       _ultoa_s                   000000014005e388 f   libucrt:xtoa.obj
 0001:0005d3a0       _ultow                     000000014005e3a0 f   libucrt:xtoa.obj
 0001:0005d3cc       _ultow_s                   000000014005e3cc f   libucrt:xtoa.obj
 0001:0005d3e4       _set_error_mode            000000014005e3e4 f   libucrt:set_error_mode.obj
 0001:0005d4e0       wcscat_s                   000000014005e4e0 f   libucrt:wcscat_s.obj
 0001:0005d60c       wcscpy_s                   000000014005e60c f   libucrt:wcscpy_s.obj
 0001:0005d7c8       wcsncat_s                  000000014005e7c8 f   libucrt:wcsncat_s.obj
 0001:0005d9b0       strcat_s                   000000014005e9b0 f   libucrt:strcat_s.obj
 0001:0005db68       strncat_s                  000000014005eb68 f   libucrt:strncat_s.obj
 0001:0005dc94       ??$__acrt_convert_wcs_mbs_cp@_WDV<lambda_f788ae46380686e8b737efdd8c720d07>@@U__crt_win32_buffer_no_resizing@@@@YAHQEB_WAEAV?$__crt_win32_buffer@DU__crt_win32_buffer_no_resizing@@@@AEBV<lambda_f788ae46380686e8b737efdd8c720d07>@@I@Z 000000014005ec94 f i libucrt:getmodulefilenamea.obj
 0001:0005ddf4       ??$__acrt_wcs_to_mbs_cp@U__crt_win32_buffer_no_resizing@@@@YAHQEB_WAEAV?$__crt_win32_buffer@DU__crt_win32_buffer_no_resizing@@@@I@Z 000000014005edf4 f i libucrt:getmodulefilenamea.obj
 0001:0005de04       ??0?$__crt_win32_buffer@DU__crt_win32_buffer_no_resizing@@@@QEAA@QEAD_K@Z 000000014005ee04 f i libucrt:getmodulefilenamea.obj
 0001:0005de28       ??0_LocaleUpdate@@QEAA@QEAU__crt_locale_pointers@@@Z 000000014005ee28 f i libucrt:getmodulefilenamea.obj
 0001:0005deec       ??1?$__crt_win32_buffer@DU__crt_win32_buffer_no_resizing@@@@QEAA@XZ 000000014005eeec f i libucrt:getmodulefilenamea.obj
 0001:0005defc       ??1_LocaleUpdate@@QEAA@XZ  000000014005eefc f i libucrt:getmodulefilenamea.obj
 0001:0005df14       ??R<lambda_f788ae46380686e8b737efdd8c720d07>@@QEBAHIQEB_WQEAD_K@Z 000000014005ef14 f i libucrt:getmodulefilenamea.obj
 0001:0005df50       ?GetLocaleT@_LocaleUpdate@@QEAAPEAU__crt_locale_pointers@@XZ 000000014005ef50 f i libucrt:getmodulefilenamea.obj
 0001:0005df58       ?__acrt_get_utf8_acp_compatibility_codepage@@YAIXZ 000000014005ef58 f i libucrt:getmodulefilenamea.obj
 0001:0005dfb4       ?_deallocate@?$__crt_win32_buffer@DU__crt_win32_buffer_no_resizing@@@@AEAAXXZ 000000014005efb4 f i libucrt:getmodulefilenamea.obj
 0001:0005dfc4       ?allocate@?$__crt_win32_buffer@DU__crt_win32_buffer_no_resizing@@@@QEAAH_K@Z 000000014005efc4 f i libucrt:getmodulefilenamea.obj
 0001:0005e000       ?allocate@__crt_win32_buffer_no_resizing@@SAHQEAPEAX_KAEBV__crt_win32_buffer_empty_debug_info@@@Z 000000014005f000 f i libucrt:getmodulefilenamea.obj
 0001:0005e01c       ?capacity@?$__crt_win32_buffer@DU__crt_win32_buffer_no_resizing@@@@QEBA_KXZ 000000014005f01c f i libucrt:getmodulefilenamea.obj
 0001:0005e024       ?data@?$__crt_win32_buffer@DU__crt_win32_buffer_no_resizing@@@@QEAAPEADXZ 000000014005f024 f i libucrt:getmodulefilenamea.obj
 0001:0005e02c       ?deallocate@__crt_win32_buffer_no_resizing@@SAXQEAXAEBV__crt_win32_buffer_empty_debug_info@@@Z 000000014005f02c f i libucrt:getmodulefilenamea.obj
 0001:0005e030       ?debug_info@?$__crt_win32_buffer@DU__crt_win32_buffer_no_resizing@@@@QEBAAEBV__crt_win32_buffer_empty_debug_info@@XZ 000000014005f030 f i libucrt:getmodulefilenamea.obj
 0001:0005e034       ?set_to_nullptr@?$__crt_win32_buffer@DU__crt_win32_buffer_no_resizing@@@@QEAAXXZ 000000014005f034 f i libucrt:getmodulefilenamea.obj
 0001:0005e050       ?size@?$__crt_win32_buffer@DU__crt_win32_buffer_no_resizing@@@@QEAAX_K@Z 000000014005f050 f i libucrt:getmodulefilenamea.obj
 0001:0005e058       ?size@?$__crt_win32_buffer@DU__crt_win32_buffer_no_resizing@@@@QEBA_KXZ 000000014005f058 f i libucrt:getmodulefilenamea.obj
 0001:0005e060       __acrt_GetModuleFileNameA  000000014005f060 f   libucrt:getmodulefilenamea.obj
 0001:0005e368       ??$message_box@$$TAEBQEBDAEBQEBDK@?$__crt_char_traits@D@@SAH$$QEA$$TAEBQEBD1$$QEAK@Z 000000014005f368 f i libucrt:crtmbox.obj
 0001:0005e380       ??$message_box@$$TAEBQEB_WAEBQEB_WK@?$__crt_char_traits@_W@@SAH$$QEA$$TAEBQEB_W1$$QEAK@Z 000000014005f380 f i libucrt:crtmbox.obj
 0001:0005e398       ??$message_box@PEAUHWND__@@AEBQEBDAEBQEBDAEBI@?$__crt_char_traits@D@@SAH$$QEAPEAUHWND__@@AEBQEBD1AEBI@Z 000000014005f398 f i libucrt:crtmbox.obj
 0001:0005e3b0       ??$message_box@PEAUHWND__@@AEBQEB_WAEBQEB_WAEBI@?$__crt_char_traits@_W@@SAH$$QEAPEAUHWND__@@AEBQEB_W1AEBI@Z 000000014005f3b0 f i libucrt:crtmbox.obj
 0001:0005e3c8       ??$output_debug_string@AEBQEBD@?$__crt_char_traits@D@@SAXAEBQEBD@Z 000000014005f3c8 f i libucrt:crtmbox.obj
 0001:0005e3d4       ??$output_debug_string@AEBQEB_W@?$__crt_char_traits@_W@@SAXAEBQEB_W@Z 000000014005f3d4 f i libucrt:crtmbox.obj
 0001:0005e3e0       __acrt_show_narrow_message_box 000000014005f3e0 f   libucrt:crtmbox.obj
 0001:0005e4ac       __acrt_show_wide_message_box 000000014005f4ac f   libucrt:crtmbox.obj
 0001:0005e8c0       ??0__crt_stdio_stream@@QEAA@QEAU__crt_stdio_stream_data@@@Z 000000014005f8c0 f i libucrt:fflush.obj
 0001:0005ea8c       ?__acrt_stdio_reset_buffer@@YAXV__crt_stdio_stream@@@Z 000000014005fa8c f i libucrt:fflush.obj
 0001:0005ebb0       ?has_all_of@__crt_stdio_stream@@QEBA_NJ@Z 000000014005fbb0 f i libucrt:fflush.obj
 0001:0005ec08       ?set_flags@__crt_stdio_stream@@QEBA_NJ@Z 000000014005fc08 f i libucrt:fflush.obj
 0001:0005ec30       ?unset_flags@__crt_stdio_stream@@QEBA_NJ@Z 000000014005fc30 f i libucrt:fflush.obj
 0001:0005ec60       __acrt_stdio_flush_nolock  000000014005fc60 f   libucrt:fflush.obj
 0001:0005ed0c       _fflush_nolock             000000014005fd0c f   libucrt:fflush.obj
 0001:0005ee14       _flushall                  000000014005fe14 f   libucrt:fflush.obj
 0001:0005ee1c       fflush                     000000014005fe1c f   libucrt:fflush.obj
 0001:0005f1a0       setvbuf                    00000001400601a0 f   libucrt:setvbuf.obj
 0001:0005f328       ??$?B$$A6AXH@Z@__crt_fast_encoded_nullptr_t@@QEBAP6AXH@ZXZ 0000000140060328 f i libucrt:signal.obj
 0001:0005f3bc       ??$__crt_fast_decode_pointer@P6AXH@Z@@YAP6AXH@ZQ6AXH@Z@Z 00000001400603bc f i libucrt:signal.obj
 0001:0005f3d8       ??$__crt_fast_encode_pointer@P6AXH@Z@@YAP6AXH@ZQ6AXH@Z@Z 00000001400603d8 f i libucrt:signal.obj
 0001:0005f554       ?initialize@?$dual_state_global@P6AXH@Z@__crt_state_management@@QEAAXQ6AXH@Z@Z 0000000140060554 f i libucrt:signal.obj
 0001:0005f5f0       ?value@?$dual_state_global@P6AXH@Z@__crt_state_management@@QEAAAEAP6AXH@ZXZ 00000001400605f0 f i libucrt:signal.obj
 0001:0005f5f4       __acrt_get_sigabrt_handler 00000001400605f4 f   libucrt:signal.obj
 0001:0005f630       __acrt_initialize_signal_handlers 0000000140060630 f   libucrt:signal.obj
 0001:0005f654       __fpecode                  0000000140060654 f   libucrt:signal.obj
 0001:0005f66c       __pxcptinfoptrs            000000014006066c f   libucrt:signal.obj
 0001:0005f684       raise                      0000000140060684 f   libucrt:signal.obj
 0001:0005f9a4       signal                     00000001400609a4 f   libucrt:signal.obj
 0001:0005fbf4       _calloc_base               0000000140060bf4 f   libucrt:calloc_base.obj
 0001:0005fc94       _free_base                 0000000140060c94 f   libucrt:free_base.obj
 0001:0005fd20       ??$?B$$A6AHPEA_WK_J@Z@__crt_fast_encoded_nullptr_t@@QEBAP6AHPEA_WK_J@ZXZ 0000000140060d20 f i libucrt:winapi_thunks.obj
 0001:0005fdf4       ??$__crt_fast_decode_pointer@P6AHPEA_WK_J@Z@@YAP6AHPEA_WK_J@ZQ6AH0K1@Z@Z 0000000140060df4 f i libucrt:winapi_thunks.obj
 0001:0005fe10       ??$__crt_fast_decode_pointer@PEAX@@YAPEAXQEAX@Z 0000000140060e10 f i libucrt:winapi_thunks.obj
 0001:0005fe2c       ??$__crt_fast_encode_pointer@P6AHPEA_WK_J@Z@@YAP6AHPEA_WK_J@ZQ6AH0K1@Z@Z 0000000140060e2c f i libucrt:winapi_thunks.obj
 0001:00060b10       GetCurrentThreadEffectiveToken 0000000140061b10 f i libucrt:winapi_thunks.obj
 0001:00060b1c       __acrt_AppPolicyGetProcessTerminationMethodInternal 0000000140061b1c f   libucrt:winapi_thunks.obj
 0001:00060b8c       __acrt_AppPolicyGetShowDeveloperDiagnosticInternal 0000000140061b8c f   libucrt:winapi_thunks.obj
 0001:00060bfc       __acrt_AppPolicyGetThreadInitializationTypeInternal 0000000140061bfc f   libucrt:winapi_thunks.obj
 0001:00060c6c       __acrt_AppPolicyGetWindowingModelInternal 0000000140061c6c f   libucrt:winapi_thunks.obj
 0001:00060cdc       __acrt_AreFileApisANSI     0000000140061cdc f   libucrt:winapi_thunks.obj
 0001:00060d34       __acrt_CompareStringEx     0000000140061d34 f   libucrt:winapi_thunks.obj
 0001:00060e5c       __acrt_EnumSystemLocalesEx 0000000140061e5c f   libucrt:winapi_thunks.obj
 0001:00060f24       __acrt_FlsAlloc            0000000140061f24 f   libucrt:winapi_thunks.obj
 0001:00060f2c       __acrt_FlsFree             0000000140061f2c f   libucrt:winapi_thunks.obj
 0001:00060f34       __acrt_FlsGetValue         0000000140061f34 f   libucrt:winapi_thunks.obj
 0001:00060f3c       __acrt_FlsSetValue         0000000140061f3c f   libucrt:winapi_thunks.obj
 0001:00060f44       __acrt_GetDateFormatEx     0000000140061f44 f   libucrt:winapi_thunks.obj
 0001:00061034       __acrt_GetEnabledXStateFeatures 0000000140062034 f   libucrt:winapi_thunks.obj
 0001:00061088       __acrt_GetLocaleInfoEx     0000000140062088 f   libucrt:winapi_thunks.obj
 0001:0006113c       __acrt_GetSystemTimePreciseAsFileTime 000000014006213c f   libucrt:winapi_thunks.obj
 0001:000611a8       __acrt_GetTimeFormatEx     00000001400621a8 f   libucrt:winapi_thunks.obj
 0001:00061288       __acrt_GetUserDefaultLocaleName 0000000140062288 f   libucrt:winapi_thunks.obj
 0001:00061310       __acrt_GetXStateFeaturesMask 0000000140062310 f   libucrt:winapi_thunks.obj
 0001:00061384       __acrt_InitializeCriticalSectionEx 0000000140062384 f   libucrt:winapi_thunks.obj
 0001:00061410       __acrt_IsValidLocaleName   0000000140062410 f   libucrt:winapi_thunks.obj
 0001:0006148c       __acrt_LCIDToLocaleName    000000014006248c f   libucrt:winapi_thunks.obj
 0001:00061530       __acrt_LCMapStringEx       0000000140062530 f   libucrt:winapi_thunks.obj
 0001:00061658       __acrt_LocaleNameToLCID    0000000140062658 f   libucrt:winapi_thunks.obj
 0001:000616cc       __acrt_LocateXStateFeature 00000001400626cc f   libucrt:winapi_thunks.obj
 0001:00061750       __acrt_MessageBoxA         0000000140062750 f   libucrt:winapi_thunks.obj
 0001:000617ec       __acrt_MessageBoxW         00000001400627ec f   libucrt:winapi_thunks.obj
 0001:00061888       __acrt_RoInitialize        0000000140062888 f   libucrt:winapi_thunks.obj
 0001:000618e4       __acrt_RoUninitialize      00000001400628e4 f   libucrt:winapi_thunks.obj
 0001:00061930       __acrt_RtlGenRandom        0000000140062930 f   libucrt:winapi_thunks.obj
 0001:000619a0       __acrt_SetThreadStackGuarantee 00000001400629a0 f   libucrt:winapi_thunks.obj
 0001:00061a00       __acrt_can_show_message_box 0000000140062a00 f   libucrt:winapi_thunks.obj
 0001:00061a88       __acrt_can_use_vista_locale_apis 0000000140062a88 f   libucrt:winapi_thunks.obj
 0001:00061ac4       __acrt_can_use_xstate_apis 0000000140062ac4 f   libucrt:winapi_thunks.obj
 0001:00061b00       __acrt_eagerly_load_locale_apis 0000000140062b00 f   libucrt:winapi_thunks.obj
 0001:00061cb0       __acrt_get_parent_window   0000000140062cb0 f   libucrt:winapi_thunks.obj
 0001:00061d60       __acrt_initialize_winapi_thunks 0000000140062d60 f   libucrt:winapi_thunks.obj
 0001:00061d8c       __acrt_is_interactive      0000000140062d8c f   libucrt:winapi_thunks.obj
 0001:00061ea4       __acrt_uninitialize_winapi_thunks 0000000140062ea4 f   libucrt:winapi_thunks.obj
 0001:00061ef8       ?is_in_use@__crt_stdio_stream@@QEBA_NXZ 0000000140062ef8 f i libucrt:closeall.obj
 0001:00061f08       _fcloseall                 0000000140062f08 f   libucrt:closeall.obj
 0001:00061fe8       ?has_crt_buffer@__crt_stdio_stream@@QEBA_NXZ 0000000140062fe8 f i libucrt:_freebuf.obj
 0001:00061ff8       __acrt_stdio_free_buffer_nolock 0000000140062ff8 f   libucrt:_freebuf.obj
 0001:000622e0       __acrt_initialize_lowio    00000001400632e0 f   libucrt:ioinit.obj
 0001:0006232c       __acrt_uninitialize_lowio  000000014006332c f   libucrt:ioinit.obj
 0001:0006237c       _malloc_base               000000014006337c f   libucrt:malloc_base.obj
 0001:00062ec0       ??1?$__crt_simd_cleanup_guard@$00@@QEAA@XZ 0000000140063ec0 f i libucrt:strnlen.obj
 0001:00062ec4       ??1?$__crt_simd_cleanup_guard@$0A@@@QEAA@XZ 0000000140063ec4 f i libucrt:strnlen.obj
 0001:00062ec8       ?compare_equals@?$__crt_simd_traits@$00E@@SA?AT__m256i@@T2@0@Z 0000000140063ec8 f i libucrt:strnlen.obj
 0001:00062ed4       ?compare_equals@?$__crt_simd_traits@$00G@@SA?AT__m256i@@T2@0@Z 0000000140063ed4 f i libucrt:strnlen.obj
 0001:00062ee0       ?compare_equals@?$__crt_simd_traits@$0A@E@@SA?AT__m128i@@T2@0@Z 0000000140063ee0 f i libucrt:strnlen.obj
 0001:00062eec       ?compare_equals@?$__crt_simd_traits@$0A@G@@SA?AT__m128i@@T2@0@Z 0000000140063eec f i libucrt:strnlen.obj
 0001:00062ef8       ?compute_byte_mask@?$__crt_simd_pack_traits@$00@@SAHT__m256i@@@Z 0000000140063ef8 f i libucrt:strnlen.obj
 0001:00062f08       ?compute_byte_mask@?$__crt_simd_pack_traits@$0A@@@SAHT__m128i@@@Z 0000000140063f08 f i libucrt:strnlen.obj
 0001:00062f14       ?get_zero_pack@?$__crt_simd_pack_traits@$00@@SA?AT__m256i@@XZ 0000000140063f14 f i libucrt:strnlen.obj
 0001:00062f1c       ?get_zero_pack@?$__crt_simd_pack_traits@$0A@@@SA?AT__m128i@@XZ 0000000140063f1c f i libucrt:strnlen.obj
 0001:00062f20       strnlen                    0000000140063f20 f   libucrt:strnlen.obj
 0001:000630c4       wcslen                     00000001400640c4 f   libucrt:strnlen.obj
 0001:00063238       wcsnlen                    0000000140064238 f   libucrt:strnlen.obj
 0001:00063484       ?value@?$dual_state_global@PEAU__crt_multibyte_data@@@__crt_state_management@@QEAAAEAPEAU__crt_multibyte_data@@XZ 0000000140064484 f i libucrt:locale_update.obj
 0001:00063488       ?value_explicit@?$dual_state_global@PEAU__crt_locale_data@@@__crt_state_management@@QEAAAEAPEAU__crt_locale_data@@_K@Z 0000000140064488 f i libucrt:locale_update.obj
 0001:00063490       ?value_explicit@?$dual_state_global@PEAU__crt_multibyte_data@@@__crt_state_management@@QEAAAEAPEAU__crt_multibyte_data@@_K@Z 0000000140064490 f i libucrt:locale_update.obj
 0001:00063498       __acrt_should_sync_with_global_locale 0000000140064498 f i libucrt:locale_update.obj
 0001:000634ac       __acrt_update_locale_info  00000001400644ac f   libucrt:locale_update.obj
 0001:000634ec       __acrt_update_locale_info_explicit 00000001400644ec f   libucrt:locale_update.obj
 0001:00063530       __acrt_update_multibyte_info 0000000140064530 f   libucrt:locale_update.obj
 0001:00063570       __acrt_update_multibyte_info_explicit 0000000140064570 f   libucrt:locale_update.obj
 0001:000635b4       ?__acrt_fp_classify@@YA?AW4__acrt_fp_class@@AEBN@Z 00000001400645b4 f i libucrt:cvt.obj
 0001:00063628       ?__acrt_fp_is_negative@@YA_NAEBN@Z 0000000140064628 f i libucrt:cvt.obj
 0001:000645cc       ?strrchr@@YAPEADQEADH@Z    00000001400655cc f i libucrt:cvt.obj
 0001:000645d4       __acrt_fp_format           00000001400655d4 f   libucrt:cvt.obj
 0001:00064974       ?value_or@?$cached@H@__crt_cached_ptd_host@@QEBAHH@Z 0000000140065974 f i libucrt:wctomb.obj
 0001:00064984       _wctomb_internal           0000000140065984 f   libucrt:wctomb.obj
 0001:00064ba0       _wctomb_l                  0000000140065ba0 f   libucrt:wctomb.obj
 0001:00064cc8       _wctomb_s_l                0000000140065cc8 f   libucrt:wctomb.obj
 0001:00064da0       wctomb                     0000000140065da0 f   libucrt:wctomb.obj
 0001:00064e98       wctomb_s                   0000000140065e98 f   libucrt:wctomb.obj
 0001:00064f60       _isleadbyte_fast_internal  0000000140065f60 f i libucrt:mbtowc.obj
 0001:00064f80       _mbtowc_internal           0000000140065f80 f   libucrt:mbtowc.obj
 0001:00065158       _mbtowc_l                  0000000140066158 f   libucrt:mbtowc.obj
 0001:00065224       mbtowc                     0000000140066224 f   libucrt:mbtowc.obj
 0001:000652e4       ?lowio_handle@__crt_stdio_stream@@QEBAHXZ 00000001400662e4 f i libucrt:fileno.obj
 0001:000652ec       _fileno                    00000001400662ec f   libucrt:fileno.obj
 0001:0006531c       _get_printf_count_output   000000014006631c f   libucrt:printf_count_output.obj
 0001:0006533c       _set_printf_count_output   000000014006633c f   libucrt:printf_count_output.obj
 0001:00065430       _fputwc_nolock             0000000140066430 f   libucrt:fputwc.obj
 0001:000654f0       _fputwc_nolock_internal    00000001400664f0 f   libucrt:fputwc.obj
 0001:000656dc       _fputwchar                 00000001400666dc f   libucrt:fputwc.obj
 0001:00065708       _putwc_nolock              0000000140066708 f   libucrt:fputwc.obj
 0001:00065710       fputwc                     0000000140066710 f   libucrt:fputwc.obj
 0001:000657d0       putwc                      00000001400667d0 f   libucrt:fputwc.obj
 0001:000657d8       putwchar                   00000001400667d8 f   libucrt:fputwc.obj
 0001:00065994       _fputc_nolock              0000000140066994 f   libucrt:fputc.obj
 0001:00065a6c       _fputc_nolock_internal     0000000140066a6c f   libucrt:fputc.obj
 0001:00065a88       _fputchar                  0000000140066a88 f   libucrt:fputc.obj
 0001:00065ab4       _putc_nolock               0000000140066ab4 f   libucrt:fputc.obj
 0001:00065abc       fputc                      0000000140066abc f   libucrt:fputc.obj
 0001:00065b7c       putc                       0000000140066b7c f   libucrt:fputc.obj
 0001:00065b84       putchar                    0000000140066b84 f   libucrt:fputc.obj
 0001:00065b8c       ?has_temporary_buffer@__crt_stdio_stream@@QEBA_NXZ 0000000140066b8c f i libucrt:_sftbuf.obj
 0001:00065b9c       __acrt_should_use_temporary_buffer 0000000140066b9c f   libucrt:_sftbuf.obj
 0001:00065bf4       __acrt_stdio_begin_temporary_buffering_nolock 0000000140066bf4 f   libucrt:_sftbuf.obj
 0001:00065cf0       __acrt_stdio_end_temporary_buffering_nolock 0000000140066cf0 f   libucrt:_sftbuf.obj
 0001:00065d3c       ??$?RU__acrt_ptd@@@__crt_internal_free_policy@@QEBAXQEBU__acrt_ptd@@@Z 0000000140066d3c f i libucrt:per_thread_data.obj
 0001:00065ffc       ??0?$__crt_unique_heap_ptr@U__acrt_ptd@@U__crt_internal_free_policy@@@@QEAA@QEAU__acrt_ptd@@@Z 0000000140066ffc f i libucrt:per_thread_data.obj
 0001:00066004       ??1?$__crt_unique_heap_ptr@U__acrt_ptd@@U__crt_internal_free_policy@@@@QEAA@XZ 0000000140067004 f i libucrt:per_thread_data.obj
 0001:00066028       ??B?$__crt_unique_heap_ptr@U__acrt_ptd@@U__crt_internal_free_policy@@@@QEBA_NXZ 0000000140067028 f i libucrt:per_thread_data.obj
 0001:000662f8       ?dangerous_get_state_array@?$dual_state_global@PEAU__crt_locale_data@@@__crt_state_management@@QEAAPEAPEAU__crt_locale_data@@XZ 00000001400672f8 f i libucrt:per_thread_data.obj
 0001:0006658c       ?detach@?$__crt_unique_heap_ptr@U__acrt_ptd@@U__crt_internal_free_policy@@@@QEAAPEAU__acrt_ptd@@XZ 000000014006758c f i libucrt:per_thread_data.obj
 0001:00066598       ?get@?$__crt_unique_heap_ptr@U__acrt_ptd@@U__crt_internal_free_policy@@@@QEBAPEAU__acrt_ptd@@XZ 0000000140067598 f i libucrt:per_thread_data.obj
 0001:00066840       ?is_valid@?$__crt_unique_heap_ptr@U__acrt_ptd@@U__crt_internal_free_policy@@@@QEBA_NXZ 0000000140067840 f i libucrt:per_thread_data.obj
 0001:0006684c       ?release@?$__crt_unique_heap_ptr@U__acrt_ptd@@U__crt_internal_free_policy@@@@QEAAXXZ 000000014006784c f i libucrt:per_thread_data.obj
 0001:00066918       __acrt_freeptd             0000000140067918 f   libucrt:per_thread_data.obj
 0001:0006696c       __acrt_getptd              000000014006796c f   libucrt:per_thread_data.obj
 0001:00066a74       __acrt_getptd_head         0000000140067a74 f   libucrt:per_thread_data.obj
 0001:00066b40       __acrt_getptd_noexit       0000000140067b40 f   libucrt:per_thread_data.obj
 0001:00066c3c       __acrt_getptd_noexit_explicit 0000000140067c3c f   libucrt:per_thread_data.obj
 0001:00066d2c       __acrt_initialize_ptd      0000000140067d2c f   libucrt:per_thread_data.obj
 0001:00066d74       __acrt_uninitialize_ptd    0000000140067d74 f   libucrt:per_thread_data.obj
 0001:00066da0       __threadhandle             0000000140067da0 f   libucrt:per_thread_data.obj
 0001:00066da8       __threadid                 0000000140067da8 f   libucrt:per_thread_data.obj
 0001:00066db0       __p___mb_cur_max           0000000140067db0 f   libucrt:nlsdata.obj
 0001:00066df0       _pow_special               0000000140067df0 f   libucrt:pow_special.obj
 0001:00066f60       _powf_special              0000000140067f60 f   libucrt:pow_special.obj
 0001:00067104       __acrt_initialize_fma3     0000000140068104 f   libucrt:fma3_available.obj
 0001:00067190       _get_FMA3_enable           0000000140068190 f   libucrt:fma3_available.obj
 0001:00067198       _set_FMA3_enable           0000000140068198 f   libucrt:fma3_available.obj
 0001:000672e4       wcsncpy_s                  00000001400682e4 f   libucrt:wcsncpy_s.obj
 0001:00067450       ??$__acrt_convert_wcs_mbs_cp@D_WV<lambda_7c9dea7b4ca7285d2cdb541a38da6275>@@U__crt_win32_buffer_internal_dynamic_resizing@@@@YAHQEBDAEAV?$__crt_win32_buffer@_WU__crt_win32_buffer_internal_dynamic_resizing@@@@AEBV<lambda_7c9dea7b4ca7285d2cdb541a38da6275>@@I@Z 0000000140068450 f i libucrt:argv_wildcards.obj
 0001:00067628       ??$__acrt_convert_wcs_mbs_cp@_WDV<lambda_d8593a27d1aa8c02be35c86a17d324c4>@@U__crt_win32_buffer_internal_dynamic_resizing@@@@YAHQEB_WAEAV?$__crt_win32_buffer@DU__crt_win32_buffer_internal_dynamic_resizing@@@@AEBV<lambda_d8593a27d1aa8c02be35c86a17d324c4>@@I@Z 0000000140068628 f i libucrt:argv_wildcards.obj
 0001:00067818       ??$__acrt_mbs_to_wcs_cp@U__crt_win32_buffer_internal_dynamic_resizing@@@@YAHQEBDAEAV?$__crt_win32_buffer@_WU__crt_win32_buffer_internal_dynamic_resizing@@@@I@Z 0000000140068818 f i libucrt:argv_wildcards.obj
 0001:00067828       ??$__acrt_wcs_to_mbs_cp@U__crt_win32_buffer_internal_dynamic_resizing@@@@YAHQEB_WAEAV?$__crt_win32_buffer@DU__crt_win32_buffer_internal_dynamic_resizing@@@@I@Z 0000000140068828 f i libucrt:argv_wildcards.obj
 0001:000689dc       ??$tcsncpy_s@AEAPEAD_KAEAPEADAEB_K@?$__crt_char_traits@D@@SAHAEAPEAD$$QEA_K0AEB_K@Z 00000001400699dc f i libucrt:argv_wildcards.obj
 0001:000689f4       ??$tcsncpy_s@AEAPEA_W_KAEAPEA_WAEB_K@?$__crt_char_traits@_W@@SAHAEAPEA_W$$QEA_K0AEB_K@Z 00000001400699f4 f i libucrt:argv_wildcards.obj
 0001:00068a0c       ??$tcsncpy_s@PEADAEB_KAEBQEBDAEB_K@?$__crt_char_traits@D@@SAH$$QEAPEADAEB_KAEBQEBD1@Z 0000000140069a0c f i libucrt:argv_wildcards.obj
 0001:00068a24       ??$tcsncpy_s@PEAD_KAEBQEBDAEB_K@?$__crt_char_traits@D@@SAH$$QEAPEAD$$QEA_KAEBQEBDAEB_K@Z 0000000140069a24 f i libucrt:argv_wildcards.obj
 0001:00068a3c       ??$tcsncpy_s@PEA_WAEB_KAEBQEB_WAEB_K@?$__crt_char_traits@_W@@SAH$$QEAPEA_WAEB_KAEBQEB_W1@Z 0000000140069a3c f i libucrt:argv_wildcards.obj
 0001:00068a54       ??$tcsncpy_s@PEA_W_KAEBQEB_WAEB_K@?$__crt_char_traits@_W@@SAH$$QEAPEA_W$$QEA_KAEBQEB_WAEB_K@Z 0000000140069a54 f i libucrt:argv_wildcards.obj
 0001:00068a6c       ??$tcspbrk@AEAPEADAEAY02$$CBD@?$__crt_char_traits@D@@SAPEADAEAPEADAEAY02$$CBD@Z 0000000140069a6c f i libucrt:argv_wildcards.obj
 0001:00068a78       ??$tcspbrk@AEAPEA_WAEAY02$$CB_W@?$__crt_char_traits@_W@@SAPEA_WAEAPEA_WAEAY02$$CB_W@Z 0000000140069a78 f i libucrt:argv_wildcards.obj
 0001:00068a84       ??0?$__crt_unique_handle_t@U__crt_findfile_traits@@@@QEAA@QEAX@Z 0000000140069a84 f i libucrt:argv_wildcards.obj
 0001:00068a8c       ??0?$__crt_win32_buffer@DU__crt_win32_buffer_internal_dynamic_resizing@@@@QEAA@XZ 0000000140069a8c f i libucrt:argv_wildcards.obj
 0001:00068ab0       ??0?$__crt_win32_buffer@_WU__crt_win32_buffer_internal_dynamic_resizing@@@@QEAA@XZ 0000000140069ab0 f i libucrt:argv_wildcards.obj
 0001:00068b04       ??1?$__crt_unique_handle_t@U__crt_findfile_traits@@@@QEAA@XZ 0000000140069b04 f i libucrt:argv_wildcards.obj
 0001:00068b30       ??1?$__crt_win32_buffer@DU__crt_win32_buffer_internal_dynamic_resizing@@@@QEAA@XZ 0000000140069b30 f i libucrt:argv_wildcards.obj
 0001:00068b5c       ??1?$__crt_win32_buffer@_WU__crt_win32_buffer_internal_dynamic_resizing@@@@QEAA@XZ 0000000140069b5c f i libucrt:argv_wildcards.obj
 0001:00068c38       ??R<lambda_7c9dea7b4ca7285d2cdb541a38da6275>@@QEBAHIQEBDQEA_W_K@Z 0000000140069c38 f i libucrt:argv_wildcards.obj
 0001:00068ce8       ??R<lambda_d8593a27d1aa8c02be35c86a17d324c4>@@QEBAHIQEB_WQEAD_K@Z 0000000140069ce8 f i libucrt:argv_wildcards.obj
 0001:00068d24       ?_deallocate@?$__crt_win32_buffer@DU__crt_win32_buffer_internal_dynamic_resizing@@@@AEAAXXZ 0000000140069d24 f i libucrt:argv_wildcards.obj
 0001:00068d50       ?_deallocate@?$__crt_win32_buffer@_WU__crt_win32_buffer_internal_dynamic_resizing@@@@AEAAXXZ 0000000140069d50 f i libucrt:argv_wildcards.obj
 0001:00068d7c       ?allocate@?$__crt_win32_buffer@DU__crt_win32_buffer_internal_dynamic_resizing@@@@QEAAH_K@Z 0000000140069d7c f i libucrt:argv_wildcards.obj
 0001:00068de8       ?allocate@?$__crt_win32_buffer@_WU__crt_win32_buffer_internal_dynamic_resizing@@@@QEAAH_K@Z 0000000140069de8 f i libucrt:argv_wildcards.obj
 0001:00068e58       ?allocate@__crt_win32_buffer_internal_dynamic_resizing@@SAHQEAPEAX_KAEBV__crt_win32_buffer_empty_debug_info@@@Z 0000000140069e58 f i libucrt:argv_wildcards.obj
 0001:000690c0       ?capacity@?$__crt_win32_buffer@DU__crt_win32_buffer_internal_dynamic_resizing@@@@QEBA_KXZ 000000014006a0c0 f i libucrt:argv_wildcards.obj
 0001:000690c8       ?capacity@?$__crt_win32_buffer@_WU__crt_win32_buffer_internal_dynamic_resizing@@@@QEBA_KXZ 000000014006a0c8 f i libucrt:argv_wildcards.obj
 0001:000690d0       ?close@?$__crt_unique_handle_t@U__crt_findfile_traits@@@@QEAAXXZ 000000014006a0d0 f i libucrt:argv_wildcards.obj
 0001:000690fc       ?close@__crt_findfile_traits@@SA_NPEAX@Z 000000014006a0fc f i libucrt:argv_wildcards.obj
 0001:00069118       ?data@?$__crt_win32_buffer@DU__crt_win32_buffer_internal_dynamic_resizing@@@@QEAAPEADXZ 000000014006a118 f i libucrt:argv_wildcards.obj
 0001:00069120       ?data@?$__crt_win32_buffer@_WU__crt_win32_buffer_internal_dynamic_resizing@@@@QEAAPEA_WXZ 000000014006a120 f i libucrt:argv_wildcards.obj
 0001:00069128       ?deallocate@__crt_win32_buffer_internal_dynamic_resizing@@SAXQEAXAEBV__crt_win32_buffer_empty_debug_info@@@Z 000000014006a128 f i libucrt:argv_wildcards.obj
 0001:00069130       ?debug_info@?$__crt_win32_buffer@DU__crt_win32_buffer_internal_dynamic_resizing@@@@QEBAAEBV__crt_win32_buffer_empty_debug_info@@XZ 000000014006a130 f i libucrt:argv_wildcards.obj
 0001:00069134       ?debug_info@?$__crt_win32_buffer@_WU__crt_win32_buffer_internal_dynamic_resizing@@@@QEBAAEBV__crt_win32_buffer_empty_debug_info@@XZ 000000014006a134 f i libucrt:argv_wildcards.obj
 0001:00069338       ?get@?$__crt_unique_handle_t@U__crt_findfile_traits@@@@QEBAPEAXXZ 000000014006a338 f i libucrt:argv_wildcards.obj
 0001:0006940c       ?get_invalid_value@__crt_findfile_traits@@SAPEAXXZ 000000014006a40c f i libucrt:argv_wildcards.obj
 0001:000694f4       ?set_to_nullptr@?$__crt_win32_buffer@DU__crt_win32_buffer_internal_dynamic_resizing@@@@QEAAXXZ 000000014006a4f4 f i libucrt:argv_wildcards.obj
 0001:00069534       ?set_to_nullptr@?$__crt_win32_buffer@_WU__crt_win32_buffer_internal_dynamic_resizing@@@@QEAAXXZ 000000014006a534 f i libucrt:argv_wildcards.obj
 0001:00069574       ?size@?$__crt_win32_buffer@DU__crt_win32_buffer_internal_dynamic_resizing@@@@QEAAX_K@Z 000000014006a574 f i libucrt:argv_wildcards.obj
 0001:0006957c       ?size@?$__crt_win32_buffer@_WU__crt_win32_buffer_internal_dynamic_resizing@@@@QEAAX_K@Z 000000014006a57c f i libucrt:argv_wildcards.obj
 0001:000695a4       ?strpbrk@@YAPEADQEADQEBD@Z 000000014006a5a4 f i libucrt:argv_wildcards.obj
 0001:000695ac       ?wcspbrk@@YAPEA_WPEA_WPEB_W@Z 000000014006a5ac f i libucrt:argv_wildcards.obj
 0001:000695b4       __acrt_expand_narrow_argv_wildcards 000000014006a5b4 f   libucrt:argv_wildcards.obj
 0001:000695bc       __acrt_expand_wide_argv_wildcards 000000014006a5bc f   libucrt:argv_wildcards.obj
 0001:00069838       ??$initialize_from_array@$$BY10BAA@E@?$dual_state_global@PEAE@__crt_state_management@@QEAAXAEAY10BAA@E@Z 000000014006a838 f i libucrt:mbctype.obj
 0001:0006983c       ??$initialize_from_array@$$BY10BAB@E@?$dual_state_global@PEAE@__crt_state_management@@QEAAXAEAY10BAB@E@Z 000000014006a83c f i libucrt:mbctype.obj
 0001:00069ac8       ?dangerous_get_state_array@?$dual_state_global@PEAE@__crt_state_management@@QEAAPEAPEAEXZ 000000014006aac8 f i libucrt:mbctype.obj
 0001:00069acc       ?dangerous_get_state_array@?$dual_state_global@PEAU__crt_multibyte_data@@@__crt_state_management@@QEAAPEAPEAU__crt_multibyte_data@@XZ 000000014006aacc f i libucrt:mbctype.obj
 0001:00069b6c       ?initialize@?$dual_state_global@PEAU__crt_multibyte_data@@@__crt_state_management@@QEAAXQEAU__crt_multibyte_data@@@Z 000000014006ab6c f i libucrt:mbctype.obj
 0001:0006a290       ?value@?$dual_state_global@PEAE@__crt_state_management@@QEAAAEAPEAEXZ 000000014006b290 f i libucrt:mbctype.obj
 0001:0006a294       __acrt_initialize_multibyte 000000014006b294 f   libucrt:mbctype.obj
 0001:0006a30c       __acrt_update_thread_multibyte_data 000000014006b30c f   libucrt:mbctype.obj
 0001:0006a330       __p__mbcasemap             000000014006b330 f   libucrt:mbctype.obj
 0001:0006a33c       __p__mbctype               000000014006b33c f   libucrt:mbctype.obj
 0001:0006a348       _getmbcp                   000000014006b348 f   libucrt:mbctype.obj
 0001:0006a390       _setmbcp                   000000014006b390 f   libucrt:mbctype.obj
 0001:0006a3c0       _setmbcp_nolock            000000014006b3c0 f   libucrt:mbctype.obj
 0001:0006a864       _ismbbalnum                000000014006b864 f   libucrt:ismbbyte.obj
 0001:0006a880       _ismbbalnum_l              000000014006b880 f   libucrt:ismbbyte.obj
 0001:0006a8a0       _ismbbalpha                000000014006b8a0 f   libucrt:ismbbyte.obj
 0001:0006a8bc       _ismbbalpha_l              000000014006b8bc f   libucrt:ismbbyte.obj
 0001:0006a8dc       _ismbbblank                000000014006b8dc f   libucrt:ismbbyte.obj
 0001:0006a900       _ismbbblank_l              000000014006b900 f   libucrt:ismbbyte.obj
 0001:0006a928       _ismbbgraph                000000014006b928 f   libucrt:ismbbyte.obj
 0001:0006a944       _ismbbgraph_l              000000014006b944 f   libucrt:ismbbyte.obj
 0001:0006a964       _ismbbkalnum               000000014006b964 f   libucrt:ismbbyte.obj
 0001:0006a97c       _ismbbkalnum_l             000000014006b97c f   libucrt:ismbbyte.obj
 0001:0006a998       _ismbbkana                 000000014006b998 f   libucrt:ismbbyte.obj
 0001:0006a9a0       _ismbbkana_l               000000014006b9a0 f   libucrt:ismbbyte.obj
 0001:0006aa20       _ismbbkprint               000000014006ba20 f   libucrt:ismbbyte.obj
 0001:0006aa38       _ismbbkprint_l             000000014006ba38 f   libucrt:ismbbyte.obj
 0001:0006aa54       _ismbbkpunct               000000014006ba54 f   libucrt:ismbbyte.obj
 0001:0006aa6c       _ismbbkpunct_l             000000014006ba6c f   libucrt:ismbbyte.obj
 0001:0006aa88       _ismbblead                 000000014006ba88 f   libucrt:ismbbyte.obj
 0001:0006aaa0       _ismbblead_l               000000014006baa0 f   libucrt:ismbbyte.obj
 0001:0006aabc       _ismbbprint                000000014006babc f   libucrt:ismbbyte.obj
 0001:0006aad8       _ismbbprint_l              000000014006bad8 f   libucrt:ismbbyte.obj
 0001:0006aaf8       _ismbbpunct                000000014006baf8 f   libucrt:ismbbyte.obj
 0001:0006ab10       _ismbbpunct_l              000000014006bb10 f   libucrt:ismbbyte.obj
 0001:0006ab2c       _ismbbtrail                000000014006bb2c f   libucrt:ismbbyte.obj
 0001:0006ab44       _ismbbtrail_l              000000014006bb44 f   libucrt:ismbbyte.obj
 0001:0006abcc       __acrt_MultiByteToWideChar 000000014006bbcc f   libucrt:multibytetowidechar.obj
 0001:0006ac94       __acrt_WideCharToMultiByte 000000014006bc94 f   libucrt:widechartomultibyte.obj
 0001:0006ae30       __dcrt_get_narrow_environment_from_os 000000014006be30 f   libucrt:get_environment_from_os.obj
 0001:0006af84       __dcrt_get_wide_environment_from_os 000000014006bf84 f   libucrt:get_environment_from_os.obj
 0001:0006bcbc       ??$get_or_create_environment_nolock@$$V@?$__crt_char_traits@D@@SAPEAPEADXZ 000000014006ccbc f i libucrt:setenv.obj
 0001:0006bcc4       ??$get_or_create_environment_nolock@$$V@?$__crt_char_traits@_W@@SAPEAPEA_WXZ 000000014006ccc4 f i libucrt:setenv.obj
 0001:0006bccc       ??$set_environment_variable@AEBQEADQEAD@?$__crt_char_traits@D@@SAHAEBQEAD$$QEBQEAD@Z 000000014006cccc f i libucrt:setenv.obj
 0001:0006bcdc       ??$set_environment_variable@AEBQEA_WQEA_W@?$__crt_char_traits@_W@@SAHAEBQEA_W$$QEBQEA_W@Z 000000014006ccdc f i libucrt:setenv.obj
 0001:0006bcec       ??$tcschr@AEBQEADD@?$__crt_char_traits@D@@SAPEADAEBQEAD$$QEAD@Z 000000014006ccec f i libucrt:setenv.obj
 0001:0006bcfc       ??$tcschr@AEBQEA_WD@?$__crt_char_traits@_W@@SAPEA_WAEBQEA_W$$QEAD@Z 000000014006ccfc f i libucrt:setenv.obj
 0001:0006bd0c       ??$tcscpy_s@AEAPEADAEB_KAEAPEAD@?$__crt_char_traits@D@@SAHAEAPEADAEB_K0@Z 000000014006cd0c f i libucrt:setenv.obj
 0001:0006bd20       ??$tcscpy_s@AEAPEA_WAEB_KAEAPEA_W@?$__crt_char_traits@_W@@SAHAEAPEA_WAEB_K0@Z 000000014006cd20 f i libucrt:setenv.obj
 0001:0006bd34       ??$tcscpy_s@AEBQEADAEB_KAEBQEAD@?$__crt_char_traits@D@@SAHAEBQEADAEB_K0@Z 000000014006cd34 f i libucrt:setenv.obj
 0001:0006bd48       ??$tcscpy_s@AEBQEA_WAEB_KAEBQEA_W@?$__crt_char_traits@_W@@SAHAEBQEA_WAEB_K0@Z 000000014006cd48 f i libucrt:setenv.obj
 0001:0006bd5c       ??$tcsnicoll@AEBQEBDAEAPEADAEB_K@?$__crt_char_traits@D@@SAHAEBQEBDAEAPEADAEB_K@Z 000000014006cd5c f i libucrt:setenv.obj
 0001:0006bd70       ??$tcsnicoll@AEBQEB_WAEAPEA_WAEB_K@?$__crt_char_traits@_W@@SAHAEBQEB_WAEAPEA_WAEB_K@Z 000000014006cd70 f i libucrt:setenv.obj
 0001:0006bdcc       ?strchr@@YAPEADQEADH@Z     000000014006cdcc f i libucrt:setenv.obj
 0001:0006bdd4       ?wcschr@@YAPEA_WPEA_W_W@Z  000000014006cdd4 f i libucrt:setenv.obj
 0001:0006bddc       __dcrt_set_variable_in_narrow_environment_nolock 000000014006cddc f   libucrt:setenv.obj
 0001:0006bde4       __dcrt_set_variable_in_wide_environment_nolock 000000014006cde4 f   libucrt:setenv.obj
 0001:0006bdec       __acrt_initialize_locks    000000014006cdec f   libucrt:locks.obj
 0001:0006be48       __acrt_lock                000000014006ce48 f   libucrt:locks.obj
 0001:0006be68       __acrt_uninitialize_locks  000000014006ce68 f   libucrt:locks.obj
 0001:0006beac       __acrt_unlock              000000014006ceac f   libucrt:locks.obj
 0001:0006becc       _lock_locales              000000014006cecc f   libucrt:locks.obj
 0001:0006bef0       _unlock_locales            000000014006cef0 f   libucrt:locks.obj
 0001:0006c10c       __acrt_get_begin_thread_init_policy 000000014006d10c f   libucrt:win_policies.obj
 0001:0006c174       __acrt_get_developer_information_policy 000000014006d174 f   libucrt:win_policies.obj
 0001:0006c1dc       __acrt_get_process_end_policy 000000014006d1dc f   libucrt:win_policies.obj
 0001:0006c228       __acrt_get_windowing_model_policy 000000014006d228 f   libucrt:win_policies.obj
 0001:0006c2b0       ??$?RU__crt_lowio_handle_data@@@__crt_internal_free_policy@@QEBAXQEBU__crt_lowio_handle_data@@@Z 000000014006d2b0 f i libucrt:osfinfo.obj
 0001:0006c2bc       ??0?$__crt_unique_heap_ptr@U__crt_lowio_handle_data@@U__crt_internal_free_policy@@@@QEAA@QEAU__crt_lowio_handle_data@@@Z 000000014006d2bc f i libucrt:osfinfo.obj
 0001:0006c2c4       ??1?$__crt_unique_heap_ptr@U__crt_lowio_handle_data@@U__crt_internal_free_policy@@@@QEAA@XZ 000000014006d2c4 f i libucrt:osfinfo.obj
 0001:0006c2e8       ??B?$__crt_unique_heap_ptr@U__crt_lowio_handle_data@@U__crt_internal_free_policy@@@@QEBA_NXZ 000000014006d2e8 f i libucrt:osfinfo.obj
 0001:0006c2f4       ?detach@?$__crt_unique_heap_ptr@U__crt_lowio_handle_data@@U__crt_internal_free_policy@@@@QEAAPEAU__crt_lowio_handle_data@@XZ 000000014006d2f4 f i libucrt:osfinfo.obj
 0001:0006c300       ?get@?$__crt_unique_heap_ptr@U__crt_lowio_handle_data@@U__crt_internal_free_policy@@@@QEBAPEAU__crt_lowio_handle_data@@XZ 000000014006d300 f i libucrt:osfinfo.obj
 0001:0006c304       ?is_valid@?$__crt_unique_heap_ptr@U__crt_lowio_handle_data@@U__crt_internal_free_policy@@@@QEBA_NXZ 000000014006d304 f i libucrt:osfinfo.obj
 0001:0006c310       ?release@?$__crt_unique_heap_ptr@U__crt_lowio_handle_data@@U__crt_internal_free_policy@@@@QEAAXXZ 000000014006d310 f i libucrt:osfinfo.obj
 0001:0006c334       __acrt_lowio_create_handle_array 000000014006d334 f   libucrt:osfinfo.obj
 0001:0006c404       __acrt_lowio_destroy_handle_array 000000014006d404 f   libucrt:osfinfo.obj
 0001:0006c468       __acrt_lowio_ensure_fh_exists 000000014006d468 f   libucrt:osfinfo.obj
 0001:0006c53c       __acrt_lowio_lock_fh       000000014006d53c f   libucrt:osfinfo.obj
 0001:0006c56c       __acrt_lowio_set_os_handle 000000014006d56c f   libucrt:osfinfo.obj
 0001:0006c65c       __acrt_lowio_unlock_fh     000000014006d65c f   libucrt:osfinfo.obj
 0001:0006c68c       _alloc_osfhnd              000000014006d68c f   libucrt:osfinfo.obj
 0001:0006c81c       _free_osfhnd               000000014006d81c f   libucrt:osfinfo.obj
 0001:0006c904       _get_osfhandle             000000014006d904 f   libucrt:osfinfo.obj
 0001:0006c998       _open_osfhandle            000000014006d998 f   libucrt:osfinfo.obj
 0001:0006cadc       ?dangerous_get_state_array@?$dual_state_global@H@__crt_state_management@@QEAAPEAHXZ 000000014006dadc f i libucrt:txtmode.obj
 0001:0006cae0       __acrt_initialize_fmode    000000014006dae0 f   libucrt:txtmode.obj
 0001:0006cb00       __p__fmode                 000000014006db00 f   libucrt:txtmode.obj
 0001:0006cb0c       ??$?RG@__crt_internal_free_policy@@QEBAXQEBG@Z 000000014006db0c f i libucrt:initctype.obj
 0001:0006cb18       ??$?RJ@__crt_internal_free_policy@@QEBAXQEBJ@Z 000000014006db18 f i libucrt:initctype.obj
 0001:0006cb24       ??0?$__crt_unique_heap_ptr@GU__crt_internal_free_policy@@@@QEAA@QEAG@Z 000000014006db24 f i libucrt:initctype.obj
 0001:0006cb2c       ??0?$__crt_unique_heap_ptr@JU__crt_internal_free_policy@@@@QEAA@QEAJ@Z 000000014006db2c f i libucrt:initctype.obj
 0001:0006cb34       ??1?$__crt_unique_heap_ptr@GU__crt_internal_free_policy@@@@QEAA@XZ 000000014006db34 f i libucrt:initctype.obj
 0001:0006cb58       ??1?$__crt_unique_heap_ptr@JU__crt_internal_free_policy@@@@QEAA@XZ 000000014006db58 f i libucrt:initctype.obj
 0001:0006cb7c       ?detach@?$__crt_unique_heap_ptr@GU__crt_internal_free_policy@@@@QEAAPEAGXZ 000000014006db7c f i libucrt:initctype.obj
 0001:0006cb88       ?detach@?$__crt_unique_heap_ptr@JU__crt_internal_free_policy@@@@QEAAPEAJXZ 000000014006db88 f i libucrt:initctype.obj
 0001:0006cb94       ?release@?$__crt_unique_heap_ptr@GU__crt_internal_free_policy@@@@QEAAXXZ 000000014006db94 f i libucrt:initctype.obj
 0001:0006cbb8       ?release@?$__crt_unique_heap_ptr@JU__crt_internal_free_policy@@@@QEAAXXZ 000000014006dbb8 f i libucrt:initctype.obj
 0001:0006cbdc       ___lc_codepage_func        000000014006dbdc f   libucrt:initctype.obj
 0001:0006cc18       ___lc_collate_cp_func      000000014006dc18 f   libucrt:initctype.obj
 0001:0006cc54       ___lc_locale_name_func     000000014006dc54 f   libucrt:initctype.obj
 0001:0006cc94       ___mb_cur_max_func         000000014006dc94 f   libucrt:initctype.obj
 0001:0006ccd0       ___mb_cur_max_l_func       000000014006dcd0 f   libucrt:initctype.obj
 0001:0006cce4       __acrt_locale_initialize_ctype 000000014006dce4 f   libucrt:initctype.obj
 0001:0006d4e0       ??$?RUlconv@@@__crt_internal_free_policy@@QEBAXQEBUlconv@@@Z 000000014006e4e0 f i libucrt:initmon.obj
 0001:0006d4ec       ??0?$__crt_unique_heap_ptr@Ulconv@@U__crt_internal_free_policy@@@@QEAA@QEAUlconv@@@Z 000000014006e4ec f i libucrt:initmon.obj
 0001:0006d4f4       ??1?$__crt_unique_heap_ptr@Ulconv@@U__crt_internal_free_policy@@@@QEAA@XZ 000000014006e4f4 f i libucrt:initmon.obj
 0001:0006d518       ?detach@?$__crt_unique_heap_ptr@Ulconv@@U__crt_internal_free_policy@@@@QEAAPEAUlconv@@XZ 000000014006e518 f i libucrt:initmon.obj
 0001:0006d524       ?release@?$__crt_unique_heap_ptr@Ulconv@@U__crt_internal_free_policy@@@@QEAAXXZ 000000014006e524 f i libucrt:initmon.obj
 0001:0006d548       __acrt_locale_free_monetary 000000014006e548 f   libucrt:initmon.obj
 0001:0006d694       __acrt_locale_initialize_monetary 000000014006e694 f   libucrt:initmon.obj
 0001:0006dd54       __acrt_locale_free_numeric 000000014006ed54 f   libucrt:initnum.obj
 0001:0006dddc       __acrt_locale_initialize_numeric 000000014006eddc f   libucrt:initnum.obj
 0001:0006e1b8       ??$?RU__crt_lc_time_data@@@__crt_internal_free_policy@@QEBAXQEBU__crt_lc_time_data@@@Z 000000014006f1b8 f i libucrt:inittime.obj
 0001:0006e20c       ??0?$__crt_unique_heap_ptr@U__crt_lc_time_data@@U__crt_internal_free_policy@@@@QEAA@QEAU__crt_lc_time_data@@@Z 000000014006f20c f i libucrt:inittime.obj
 0001:0006e214       ??1?$__crt_unique_heap_ptr@U__crt_lc_time_data@@U__crt_internal_free_policy@@@@QEAA@XZ 000000014006f214 f i libucrt:inittime.obj
 0001:0006e238       ??B?$__crt_unique_heap_ptr@U__crt_lc_time_data@@U__crt_internal_free_policy@@@@QEBA_NXZ 000000014006f238 f i libucrt:inittime.obj
 0001:0006e244       ?detach@?$__crt_unique_heap_ptr@U__crt_lc_time_data@@U__crt_internal_free_policy@@@@QEAAPEAU__crt_lc_time_data@@XZ 000000014006f244 f i libucrt:inittime.obj
 0001:0006e290       ?get@?$__crt_unique_heap_ptr@U__crt_lc_time_data@@U__crt_internal_free_policy@@@@QEBAPEAU__crt_lc_time_data@@XZ 000000014006f290 f i libucrt:inittime.obj
 0001:0006e740       ?is_valid@?$__crt_unique_heap_ptr@U__crt_lc_time_data@@U__crt_internal_free_policy@@@@QEBA_NXZ 000000014006f740 f i libucrt:inittime.obj
 0001:0006e74c       ?release@?$__crt_unique_heap_ptr@U__crt_lc_time_data@@U__crt_internal_free_policy@@@@QEAAXXZ 000000014006f74c f i libucrt:inittime.obj
 0001:0006e770       __acrt_locale_free_time    000000014006f770 f   libucrt:inittime.obj
 0001:0006e8bc       __acrt_locale_initialize_time 000000014006f8bc f   libucrt:inittime.obj
 0001:0006e980       __pctype_func              000000014006f980 f   libucrt:ctype.obj
 0001:0006e9bc       __pwctype_func             000000014006f9bc f   libucrt:ctype.obj
 0001:0006e9c8       wcscspn                    000000014006f9c8 f   libucrt:wcscspn.obj
 0001:0006ea18       wcspbrk                    000000014006fa18 f   libucrt:wcspbrk.obj
 0001:0006ea5c       ??0?$__crt_scoped_stack_ptr@_W@@QEAA@U?$__crt_scoped_stack_ptr_tag@_W@@@Z 000000014006fa5c f i libucrt:getstringtypea.obj
 0001:0006ea64       ??0?$__crt_scoped_stack_ptr_tag@_W@@QEAA@QEA_W@Z 000000014006fa64 f i libucrt:getstringtypea.obj
 0001:0006ea6c       ??1?$__crt_scoped_stack_ptr@_W@@QEAA@XZ 000000014006fa6c f i libucrt:getstringtypea.obj
 0001:0006ea98       ?get@?$__crt_scoped_stack_ptr@_W@@QEBAPEA_WXZ 000000014006fa98 f i libucrt:getstringtypea.obj
 0001:0006ea9c       _MallocaComputeSize        000000014006fa9c f i libucrt:getstringtypea.obj
 0001:0006eab0       _MarkAllocaS               000000014006fab0 f i libucrt:getstringtypea.obj
 0001:0006eac4       __acrt_GetStringTypeA      000000014006fac4 f   libucrt:getstringtypea.obj
 0001:0006ecc4       _freea_crt                 000000014006fcc4 f i libucrt:getstringtypea.obj
 0001:0006ecec       __acrt_add_locale_ref      000000014006fcec f   libucrt:locale_refcounting.obj
 0001:0006ed9c       __acrt_free_locale         000000014006fd9c f   libucrt:locale_refcounting.obj
 0001:0006ef70       __acrt_locale_add_lc_time_reference 000000014006ff70 f   libucrt:locale_refcounting.obj
 0001:0006efa0       __acrt_locale_free_lc_time_if_unreferenced 000000014006ffa0 f   libucrt:locale_refcounting.obj
 0001:0006efe4       __acrt_locale_release_lc_time_reference 000000014006ffe4 f   libucrt:locale_refcounting.obj
 0001:0006f014       __acrt_release_locale_ref  0000000140070014 f   libucrt:locale_refcounting.obj
 0001:0006f0e8       __acrt_update_thread_locale_data 00000001400700e8 f   libucrt:locale_refcounting.obj
 0001:0006f174       _updatetlocinfoEx_nolock   0000000140070174 f   libucrt:locale_refcounting.obj
 0001:0006fc58       __acrt_get_qualified_locale 0000000140070c58 f   libucrt:get_qualified_locale.obj
 0001:00070a18       __acrt_get_qualified_locale_downlevel 0000000140071a18 f   libucrt:getqloc_downlevel.obj
 0001:00070d38       localeconv                 0000000140071d38 f   libucrt:localeconv.obj
 0001:00070d78       _recalloc                  0000000140071d78 f   libucrt:recalloc.obj
 0001:00070d80       _recalloc_base             0000000140071d80 f   libucrt:recalloc.obj
 0001:00070e3c       __acrt_getheap             0000000140071e3c f   libucrt:heap_handle.obj
 0001:00070e48       __acrt_initialize_heap     0000000140071e48 f   libucrt:heap_handle.obj
 0001:00070e6c       __acrt_uninitialize_heap   0000000140071e6c f   libucrt:heap_handle.obj
 0001:00070e7c       _get_heap_handle           0000000140071e7c f   libucrt:heap_handle.obj
 0001:00070e88       __acrt_execute_initializers 0000000140071e88 f   libucrt:shared_initialization.obj
 0001:00070f44       __acrt_execute_uninitializers 0000000140071f44 f   libucrt:shared_initialization.obj
 0001:00070f9c       ??$?B$$A6AH_K@Z@__crt_fast_encoded_nullptr_t@@QEBAP6AH_K@ZXZ 0000000140071f9c f i libucrt:new_handler.obj
 0001:00070fa8       ??$__crt_fast_decode_pointer@P6AH_K@Z@@YAP6AH_K@ZQ6AH0@Z@Z 0000000140071fa8 f i libucrt:new_handler.obj
 0001:00070fc4       ??$__crt_fast_encode_pointer@P6AH_K@Z@@YAP6AH_K@ZQ6AH0@Z@Z 0000000140071fc4 f i libucrt:new_handler.obj
 0001:00070fec       ?_set_new_handler@@YAP6AH_K@ZH@Z 0000000140071fec f   libucrt:new_handler.obj
 0001:00070ffc       ?initialize@?$dual_state_global@P6AH_K@Z@__crt_state_management@@QEAAXQ6AH_K@Z@Z 0000000140071ffc f i libucrt:new_handler.obj
 0001:0007100c       ?value@?$dual_state_global@P6AH_K@Z@__crt_state_management@@QEAAAEAP6AH_K@ZXZ 000000014007200c f i libucrt:new_handler.obj
 0001:00071010       __acrt_initialize_new_handler 0000000140072010 f   libucrt:new_handler.obj
 0001:0007101c       _callnewh                  000000014007201c f   libucrt:new_handler.obj
 0001:00071064       _query_new_handler         0000000140072064 f   libucrt:new_handler.obj
 0001:000710a8       _set_new_handler           00000001400720a8 f   libucrt:new_handler.obj
 0001:00071118       _iswctype_l                0000000140072118 f   libucrt:iswctype.obj
 0001:00071120       iswctype                   0000000140072120 f   libucrt:iswctype.obj
 0001:000711a8       _isctype                   00000001400721a8 f   libucrt:isctype.obj
 0001:000711e4       _isctype_l                 00000001400721e4 f   libucrt:isctype.obj
 0001:00071330       ?should_round_up@__crt_strtox@@YA_N_N000@Z 0000000140072330 f i libucrt:fpexcept.obj
 0001:000713d8       _errcode                   00000001400723d8 f   libucrt:fpexcept.obj
 0001:0007142c       _except1                   000000014007242c f   libucrt:fpexcept.obj
 0001:0007155c       _except2                   000000014007255c f   libucrt:fpexcept.obj
 0001:000716e4       _handle_exc                00000001400726e4 f   libucrt:fpexcept.obj
 0001:00071a98       _handle_qnan2              0000000140072a98 f   libucrt:fpexcept.obj
 0001:00071aa0       _raise_exc                 0000000140072aa0 f   libucrt:fpexcept.obj
 0001:00071ad0       _raise_exc_ex              0000000140072ad0 f   libucrt:fpexcept.obj
 0001:00071ea0       _raise_excf                0000000140072ea0 f   libucrt:fpexcept.obj
 0001:00071ed4       _set_errno_from_matherr    0000000140072ed4 f   libucrt:fpexcept.obj
 0001:00071f10       _umatherr                  0000000140072f10 f   libucrt:fpexcept.obj
 0001:00072010       _clrfp                     0000000140073010 f   libucrt:fpctrl.obj
 0001:00072034       _ctrlfp                    0000000140073034 f   libucrt:fpctrl.obj
 0001:000720d0       _set_statfp                00000001400730d0 f   libucrt:fpctrl.obj
 0001:000720f8       _statfp                    00000001400730f8 f   libucrt:fpctrl.obj
 0001:00072110       __acrt_OutputDebugStringA  0000000140073110 f   libucrt:outputdebugstringa.obj
 0001:00072364       _commit                    0000000140073364 f   libucrt:commit.obj
 0001:00073048       _utf8_no_of_trailbytes     0000000140074048 f i libucrt:write.obj
 0001:0007305c       _write                     000000014007405c f   libucrt:write.obj
 0001:0007311c       _write_internal            000000014007411c f   libucrt:write.obj
 0001:0007328c       _write_nolock              000000014007428c f   libucrt:write.obj
 0001:00073768       __acrt_DownlevelLCIDToLocaleName 0000000140074768 f   libucrt:lcidtoname_downlevel.obj
 0001:00073888       __acrt_DownlevelLocaleNameToLCID 0000000140074888 f   libucrt:lcidtoname_downlevel.obj
 0001:00073ac4       _fclose_nolock             0000000140074ac4 f   libucrt:fclose.obj
 0001:00073b84       fclose                     0000000140074b84 f   libucrt:fclose.obj
 0001:00073d3c       __acrt_fp_strflt_to_string 0000000140074d3c f   libucrt:_fptostr.obj
 0001:000754b0       ??0big_integer@__crt_strtox@@QEAA@AEBU01@@Z 00000001400764b0 f i libucrt:cfout.obj
 0001:000754f0       ??0big_integer@__crt_strtox@@QEAA@XZ 00000001400764f0 f i libucrt:cfout.obj
 0001:00075560       ??4big_integer@__crt_strtox@@QEAAAEAU01@AEBU01@@Z 0000000140076560 f i libucrt:cfout.obj
 0001:000755a0       ??8__crt_strtox@@YA_NAEBUbig_integer@0@0@Z 00000001400765a0 f i libucrt:cfout.obj
 0001:000755e0       ??9__crt_strtox@@YA_NAEBUbig_integer@0@0@Z 00000001400765e0 f i libucrt:cfout.obj
 0001:00075630       ?add_carry@__crt_strtox@@YAIAEAIII@Z 0000000140076630 f i libucrt:cfout.obj
 0001:00075650       ?add_multiply_carry@__crt_strtox@@YAIAEAIIII@Z 0000000140076650 f i libucrt:cfout.obj
 0001:00075680       ?bit_scan_reverse@__crt_strtox@@YAII@Z 0000000140076680 f i libucrt:cfout.obj
 0001:000756a0       ?count_sequential_high_zeroes@__crt_strtox@@YAII@Z 00000001400766a0 f i libucrt:cfout.obj
 0001:000756c0       ?divide@__crt_strtox@@YA_KAEAUbig_integer@1@AEBU21@@Z 00000001400766c0 f i libucrt:cfout.obj
 0001:00075c70       ?is_zero@__crt_strtox@@YA_NAEBUbig_integer@1@@Z 0000000140076c70 f i libucrt:cfout.obj
 0001:00075c80       ?make_big_integer@__crt_strtox@@YA?AUbig_integer@1@_K@Z 0000000140076c80 f i libucrt:cfout.obj
 0001:00075ca0       ?make_big_integer_power_of_two@__crt_strtox@@YA?AUbig_integer@1@I@Z 0000000140076ca0 f i libucrt:cfout.obj
 0001:00075d20       ?multiply@__crt_strtox@@YA_NAEAUbig_integer@1@AEBU21@@Z 0000000140076d20 f i libucrt:cfout.obj
 0001:000761c0       ?multiply@__crt_strtox@@YA_NAEAUbig_integer@1@I@Z 00000001400771c0 f i libucrt:cfout.obj
 0001:000762f0       ?multiply_64_32@__crt_strtox@@YA_K_KI@Z 00000001400772f0 f i libucrt:cfout.obj
 0001:00076300       ?multiply_by_power_of_ten@__crt_strtox@@YA_NAEAUbig_integer@1@I@Z 0000000140077300 f i libucrt:cfout.obj
 0001:000769f0       ?multiply_core@__crt_strtox@@YAIQEAIII@Z 00000001400779f0 f i libucrt:cfout.obj
 0001:00076a50       ?shift_left@__crt_strtox@@YA_NAEAUbig_integer@1@I@Z 0000000140077a50 f i libucrt:cfout.obj
 0001:00076c2c       __acrt_fltout              0000000140077c2c f   libucrt:cfout.obj
 0001:000783a4       __fpe_flt_rounds           00000001400793a4 f   libucrt:fegetround.obj
 0001:000783fc       fegetround                 00000001400793fc f   libucrt:fegetround.obj
 0001:00078418       ?__c32rtomb_utf8@__crt_mbstring@@YA_KPEAD_UPEAU_Mbstatet@@AEAV__crt_cached_ptd_host@@@Z 0000000140079418 f   libucrt:c32rtomb.obj
 0001:000784e4       c32rtomb                   00000001400794e4 f   libucrt:c32rtomb.obj
 0001:000785d4       ?__mbrtowc_utf8@__crt_mbstring@@YA_KPEA_WPEBD_KPEAU_Mbstatet@@AEAV__crt_cached_ptd_host@@@Z 00000001400795d4 f   libucrt:mbrtowc.obj
 0001:00078628       ?__mbsrtowcs_utf8@__crt_mbstring@@YA_KPEA_WPEAPEBD_KPEAU_Mbstatet@@AEAV__crt_cached_ptd_host@@@Z 0000000140079628 f   libucrt:mbrtowc.obj
 0001:00078de0       btowc                      0000000140079de0 f   libucrt:mbrtowc.obj
 0001:00078ef0       mbrlen                     0000000140079ef0 f   libucrt:mbrtowc.obj
 0001:00078fe8       mbrtowc                    0000000140079fe8 f   libucrt:mbrtowc.obj
 0001:00079108       mbsrtowcs                  000000014007a108 f   libucrt:mbrtowc.obj
 0001:000791d4       mbsrtowcs_s                000000014007a1d4 f   libucrt:mbrtowc.obj
 0001:000797e8       ?has_big_buffer@__crt_stdio_stream@@QEBA_NXZ 000000014007a7e8 f i libucrt:_flsbuf.obj
 0001:00079890       __acrt_stdio_flush_and_write_narrow_nolock 000000014007a890 f   libucrt:_flsbuf.obj
 0001:00079984       __acrt_stdio_flush_and_write_wide_nolock 000000014007a984 f   libucrt:_flsbuf.obj
 0001:00079a7c       _isatty                    000000014007aa7c f   libucrt:isatty.obj
 0001:00079c40       qsort                      000000014007ac40 f   libucrt:qsort.obj
 0001:0007a268       strncpy_s                  000000014007b268 f   libucrt:strncpy_s.obj
 0001:0007a460       strpbrk                    000000014007b460 f   libucrt:strpbrk.obj
 0001:0007a91c       _mbsdec                    000000014007b91c f   libucrt:mbsdec.obj
 0001:0007a928       _mbsdec_l                  000000014007b928 f   libucrt:mbsdec.obj
 0001:0007a9e4       ??B?$__crt_scoped_stack_ptr@_W@@QEBA_NXZ 000000014007b9e4 f i libucrt:lcmapstringa.obj
 0001:0007add8       __acrt_LCMapStringA        000000014007bdd8 f   libucrt:lcmapstringa.obj
 0001:0007aeb0       _wcsnicoll                 000000014007beb0 f   libucrt:wcsnicol.obj
 0001:0007af14       _wcsnicoll_l               000000014007bf14 f   libucrt:wcsnicol.obj
 0001:0007b040       _strnicoll                 000000014007c040 f   libucrt:strnicol.obj
 0001:0007b05c       _strnicoll_l               000000014007c05c f   libucrt:strnicol.obj
 0001:0007b19c       __acrt_SetEnvironmentVariableA 000000014007c19c f   libucrt:setenvironmentvariablea.obj
 0001:0007b588       __acrt_GetLocaleInfoA      000000014007c588 f   libucrt:getlocaleinfoa.obj
 0001:0007b7c4       __ascii_wcsicmp            000000014007c7c4 f   libucrt:wcsicmp.obj
 0001:0007b814       _towlower_fast_internal    000000014007c814 f i libucrt:wcsicmp.obj
 0001:0007b844       _towlower_internal         000000014007c844 f i libucrt:wcsicmp.obj
 0001:0007b888       _wcsicmp                   000000014007c888 f   libucrt:wcsicmp.obj
 0001:0007b8e0       _wcsicmp_l                 000000014007c8e0 f   libucrt:wcsicmp.obj
 0001:0007ba50       __ascii_wcsnicmp           000000014007ca50 f   libucrt:wcsnicmp.obj
 0001:0007bab0       _wcsnicmp                  000000014007cab0 f   libucrt:wcsnicmp.obj
 0001:0007bb08       _wcsnicmp_l                000000014007cb08 f   libucrt:wcsnicmp.obj
 0001:0007bcac       wcscmp                     000000014007ccac f   libucrt:wcscmp.obj
 0001:0007bcf0       _msize                     000000014007ccf0 f   libucrt:msize.obj
 0001:0007bcf8       _msize_base                000000014007ccf8 f   libucrt:msize.obj
 0001:0007bd40       _realloc_base              000000014007cd40 f   libucrt:realloc_base.obj
 0001:0007bdd8       __acrt_GetStringTypeW      000000014007cdd8 f   libucrt:getstringtypew.obj
 0001:0007bde0       _add_exp                   000000014007cde0 f   libucrt:util.obj
 0001:0007be44       _decomp                    000000014007ce44 f   libucrt:util.obj
 0001:0007bfc0       _get_exp                   000000014007cfc0 f   libucrt:util.obj
 0001:0007bfe4       _set_bexp                  000000014007cfe4 f   libucrt:util.obj
 0001:0007c020       _set_exp                   000000014007d020 f   libucrt:util.obj
 0001:0007c068       _sptype                    000000014007d068 f   libucrt:util.obj
 0001:0007c110       _get_fpsr                  000000014007d110 f   libucrt:fpsr.obj
 0001:0007c120       _set_fpsr                  000000014007d120 f   libucrt:fpsr.obj
 0001:0007c12a       _fclrf                     000000014007d12a f   libucrt:fpsr.obj
 0001:0007c13e       _frnd                      000000014007d13e f   libucrt:fpsr.obj
 0001:0007c560       _mbstowcs_l                000000014007d560 f   libucrt:mbstowcs.obj
 0001:0007c630       _mbstowcs_s_l              000000014007d630 f   libucrt:mbstowcs.obj
 0001:0007c714       mbstowcs                   000000014007d714 f   libucrt:mbstowcs.obj
 0001:0007c7d4       mbstowcs_s                 000000014007d7d4 f   libucrt:mbstowcs.obj
 0001:0007cebc       _lseek                     000000014007debc f   libucrt:lseek.obj
 0001:0007cf7c       _lseek_internal            000000014007df7c f   libucrt:lseek.obj
 0001:0007cf84       _lseek_nolock              000000014007df84 f   libucrt:lseek.obj
 0001:0007d044       _lseek_nolock_internal     000000014007e044 f   libucrt:lseek.obj
 0001:0007d04c       _lseeki64                  000000014007e04c f   libucrt:lseek.obj
 0001:0007d10c       _lseeki64_internal         000000014007e10c f   libucrt:lseek.obj
 0001:0007d114       _lseeki64_nolock           000000014007e114 f   libucrt:lseek.obj
 0001:0007d1d4       _lseeki64_nolock_internal  000000014007e1d4 f   libucrt:lseek.obj
 0001:0007d29c       _putwch                    000000014007e29c f   libucrt:putwch.obj
 0001:0007d2e8       _putwch_nolock             000000014007e2e8 f   libucrt:putwch.obj
 0001:0007d334       _putwch_nolock_internal    000000014007e334 f   libucrt:putwch.obj
 0001:0007dc14       _read                      000000014007ec14 f   libucrt:read.obj
 0001:0007dd74       _read_nolock               000000014007ed74 f   libucrt:read.obj
 0001:0007e4c4       _close                     000000014007f4c4 f   libucrt:close.obj
 0001:0007e584       _close_internal            000000014007f584 f   libucrt:close.obj
 0001:0007e678       _close_nolock              000000014007f678 f   libucrt:close.obj
 0001:0007e738       _close_nolock_internal     000000014007f738 f   libucrt:close.obj
 0001:0007e838       ??$?RU__crt_stdio_stream_data@@@__crt_internal_free_policy@@QEBAXQEBU__crt_stdio_stream_data@@@Z 000000014007f838 f i libucrt:stream.obj
 0001:0007e844       ??0?$__crt_unique_heap_ptr@U__crt_stdio_stream_data@@U__crt_internal_free_policy@@@@QEAA@QEAU__crt_stdio_stream_data@@@Z 000000014007f844 f i libucrt:stream.obj
 0001:0007e84c       ??0__crt_stdio_stream@@QEAA@XZ 000000014007f84c f i libucrt:stream.obj
 0001:0007e858       ??1?$__crt_unique_heap_ptr@U__crt_stdio_stream_data@@U__crt_internal_free_policy@@@@QEAA@XZ 000000014007f858 f i libucrt:stream.obj
 0001:0007e87c       ?__acrt_stdio_allocate_stream@@YA?AV__crt_stdio_stream@@XZ 000000014007f87c f   libucrt:stream.obj
 0001:0007e8e8       ?__acrt_stdio_free_stream@@YAXV__crt_stdio_stream@@@Z 000000014007f8e8 f   libucrt:stream.obj
 0001:0007e90c       ?deallocate@__crt_stdio_stream@@QEAAXXZ 000000014007f90c f i libucrt:stream.obj
 0001:0007e918       ?detach@?$__crt_unique_heap_ptr@U__crt_stdio_stream_data@@U__crt_internal_free_policy@@@@QEAAPEAU__crt_stdio_stream_data@@XZ 000000014007f918 f i libucrt:stream.obj
 0001:0007ea48       ?lock@__crt_stdio_stream@@QEBAXXZ 000000014007fa48 f i libucrt:stream.obj
 0001:0007ea54       ?release@?$__crt_unique_heap_ptr@U__crt_stdio_stream_data@@U__crt_internal_free_policy@@@@QEAAXXZ 000000014007fa54 f i libucrt:stream.obj
 0001:0007ea78       ?try_allocate@__crt_stdio_stream@@QEAA_NXZ 000000014007fa78 f i libucrt:stream.obj
 0001:0007eaa0       ?unlock@__crt_stdio_stream@@QEBAXXZ 000000014007faa0 f i libucrt:stream.obj
 0001:0007eaac       _controlfp_s               000000014007faac f   libucrt:contrlfp.obj
 0001:0007eb28       fegetenv                   000000014007fb28 f   libucrt:fegetenv.obj
 0001:0007eb50       fesetenv                   000000014007fb50 f   libucrt:fesetenv.obj
 0001:0007ebb0       feholdexcept               000000014007fbb0 f   libucrt:feholdexcept.obj
 0001:0007ec14       ceil                       000000014007fc14 f   libucrt:ceil.obj
 0001:0007ed10       log10                      000000014007fd10 f   libucrt:log10.obj
 0001:0007f428       ??$__acrt_fenv_shift_bits@W4__acrt_fenv_abstract_control@@@@YA?AW4__acrt_fenv_abstract_control@@W40@0I@Z 0000000140080428 f i libucrt:_fenvutils.obj
 0001:0007f434       ??$__acrt_fenv_shift_bits@W4__acrt_fenv_abstract_status@@@@YA?AW4__acrt_fenv_abstract_status@@W40@0I@Z 0000000140080434 f i libucrt:_fenvutils.obj
 0001:0007f440       ??$__acrt_fenv_translate_bit@W4__acrt_fenv_abstract_control@@W4__acrt_fenv_machine_sse_control@@@@YA?AW4__acrt_fenv_abstract_control@@W4__acrt_fenv_machine_sse_control@@0W40@1@Z 0000000140080440 f i libucrt:_fenvutils.obj
 0001:0007f450       ??$__acrt_fenv_translate_bit@W4__acrt_fenv_abstract_status@@W4__acrt_fenv_machine_sse_status@@@@YA?AW4__acrt_fenv_abstract_status@@W4__acrt_fenv_machine_sse_status@@0W40@1@Z 0000000140080450 f i libucrt:_fenvutils.obj
 0001:0007f45c       ??$__acrt_fenv_translate_bit@W4__acrt_fenv_machine_sse_control@@W4__acrt_fenv_abstract_control@@@@YA?AW4__acrt_fenv_machine_sse_control@@W4__acrt_fenv_abstract_control@@0W40@1@Z 000000014008045c f i libucrt:_fenvutils.obj
 0001:0007f46c       ??$__acrt_fenv_translate_bit@W4__acrt_fenv_machine_sse_status@@W4__acrt_fenv_abstract_status@@@@YA?AW4__acrt_fenv_machine_sse_status@@W4__acrt_fenv_abstract_status@@0W40@1@Z 000000014008046c f i libucrt:_fenvutils.obj
 0001:0007f478       ??$__acrt_fenv_unshift_bits@W4__acrt_fenv_abstract_control@@@@YA?AW4__acrt_fenv_abstract_control@@W40@0I@Z 0000000140080478 f i libucrt:_fenvutils.obj
 0001:0007f484       ??$__acrt_fenv_unshift_bits@W4__acrt_fenv_abstract_status@@@@YA?AW4__acrt_fenv_abstract_status@@W40@0I@Z 0000000140080484 f i libucrt:_fenvutils.obj
 0001:0007f6ac       ??I@YA?AW4__acrt_fenv_abstract_control@@W40@0@Z 00000001400806ac f i libucrt:_fenvutils.obj
 0001:0007f6b4       ??I@YA?AW4__acrt_fenv_abstract_status@@W40@0@Z 00000001400806b4 f i libucrt:_fenvutils.obj
 0001:0007f6bc       ??I@YA?AW4__acrt_fenv_machine_sse_control@@W40@0@Z 00000001400806bc f i libucrt:_fenvutils.obj
 0001:0007f6c4       ??I@YA?AW4__acrt_fenv_machine_sse_status@@W40@0@Z 00000001400806c4 f i libucrt:_fenvutils.obj
 0001:0007f6cc       ??U@YA?AW4__acrt_fenv_abstract_control@@W40@0@Z 00000001400806cc f i libucrt:_fenvutils.obj
 0001:0007f6d4       ??U@YA?AW4__acrt_fenv_abstract_status@@W40@0@Z 00000001400806d4 f i libucrt:_fenvutils.obj
 0001:0007f6dc       ??U@YA?AW4__acrt_fenv_machine_sse_control@@W40@0@Z 00000001400806dc f i libucrt:_fenvutils.obj
 0001:0007f6e4       ??_5@YAAEAW4__acrt_fenv_abstract_control@@AEAW40@W40@@Z 00000001400806e4 f i libucrt:_fenvutils.obj
 0001:0007f6ec       ??_5@YAAEAW4__acrt_fenv_abstract_status@@AEAW40@W40@@Z 00000001400806ec f i libucrt:_fenvutils.obj
 0001:0007f6f4       ??_5@YAAEAW4__acrt_fenv_machine_sse_control@@AEAW40@W40@@Z 00000001400806f4 f i libucrt:_fenvutils.obj
 0001:0007f6fc       ??_5@YAAEAW4__acrt_fenv_machine_sse_status@@AEAW40@W40@@Z 00000001400806fc f i libucrt:_fenvutils.obj
 0001:0007f704       ?__acrt_fenv_shift_abstract_sse_control@@YA?AW4__acrt_fenv_abstract_control@@W41@@Z 0000000140080704 f i libucrt:_fenvutils.obj
 0001:0007f720       ?__acrt_fenv_shift_abstract_sse_status@@YA?AW4__acrt_fenv_abstract_status@@W41@@Z 0000000140080720 f i libucrt:_fenvutils.obj
 0001:0007f72c       ?__acrt_fenv_unshift_abstract_sse_control@@YA?AW4__acrt_fenv_abstract_control@@W41@@Z 000000014008072c f i libucrt:_fenvutils.obj
 0001:0007f748       ?__acrt_fenv_unshift_abstract_sse_status@@YA?AW4__acrt_fenv_abstract_status@@W41@@Z 0000000140080748 f i libucrt:_fenvutils.obj
 0001:0007faa8       __acrt_fenv_expand_round_control 0000000140080aa8 f   libucrt:_fenvutils.obj
 0001:0007fac8       __acrt_fenv_get_common_round_control 0000000140080ac8 f   libucrt:_fenvutils.obj
 0001:0007fad4       __acrt_fenv_get_control    0000000140080ad4 f   libucrt:_fenvutils.obj
 0001:0007fbf0       __acrt_fenv_get_fp_status_word_from_exception_mask 0000000140080bf0 f   libucrt:_fenvutils.obj
 0001:0007fc00       __acrt_fenv_get_status     0000000140080c00 f   libucrt:_fenvutils.obj
 0001:0007fc6c       __acrt_fenv_set_control    0000000140080c6c f   libucrt:_fenvutils.obj
 0001:0007fdf4       __acrt_fenv_set_status     0000000140080df4 f   libucrt:_fenvutils.obj
 0001:0007fe88       ?reset_and_return@__crt_mbstring@@YA_K_KPEAU_Mbstatet@@@Z 0000000140080e88 f   libucrt:common_utf8.obj
 0001:0007fe94       ?return_illegal_sequence@__crt_mbstring@@YA_KPEAU_Mbstatet@@AEAV__crt_cached_ptd_host@@@Z 0000000140080e94 f   libucrt:common_utf8.obj
 0001:0007feb0       ?__mbrtoc32_utf8@__crt_mbstring@@YA_KPEA_UPEBD_KPEAU_Mbstatet@@AEAV__crt_cached_ptd_host@@@Z 0000000140080eb0 f   libucrt:mbrtoc32.obj
 0001:00080100       mbrtoc32                   0000000140081100 f   libucrt:mbrtoc32.obj
 0001:000801cc       __acrt_stdio_allocate_buffer_nolock 00000001400811cc f   libucrt:_getbuf.obj
 0001:00080254       __strncnt                  0000000140081254 f   libucrt:strncnt.obj
 0001:00080270       __acrt_CompareStringW      0000000140081270 f   libucrt:comparestringw.obj
 0001:0008035c       __ascii_strnicmp           000000014008135c f   libucrt:strnicmp.obj
 0001:000803b8       _strnicmp                  00000001400813b8 f   libucrt:strnicmp.obj
 0001:0008041c       _strnicmp_l                000000014008141c f   libucrt:strnicmp.obj
 0001:00080954       __acrt_CompareStringA      0000000140081954 f   libucrt:comparestringa.obj
 0001:00080a00       _towlower_l                0000000140081a00 f   libucrt:towlower.obj
 0001:00080b34       towlower                   0000000140081b34 f   libucrt:towlower.obj
 0001:00080ca8       __dcrt_lowio_ensure_console_output_initialized 0000000140081ca8 f   libucrt:initcon.obj
 0001:00080d10       __dcrt_terminate_console_output 0000000140081d10 f   libucrt:initcon.obj
 0001:00080d34       __dcrt_write_console       0000000140081d34 f   libucrt:initcon.obj
 0001:00080f90       _clearfp                   0000000140081f90 f   libucrt:ieee.obj
 0001:0008101c       _control87                 000000014008201c f   libucrt:ieee.obj
 0001:00081024       _controlfp                 0000000140082024 f   libucrt:ieee.obj
 0001:00081030       _fpreset                   0000000140082030 f   libucrt:ieee.obj
 0001:0008112c       _set_controlfp             000000014008212c f   libucrt:ieee.obj
 0001:00081170       _statusfp                  0000000140082170 f   libucrt:ieee.obj
 0001:00081560       _log10_special             0000000140082560 f   libucrt:log_special.obj
 0001:00081588       _log10f_special            0000000140082588 f   libucrt:log_special.obj
 0001:000815b0       _log_special               00000001400825b0 f   libucrt:log_special.obj
 0001:00081694       _logf_special              0000000140082694 f   libucrt:log_special.obj
 0001:00081780       __acrt_LCMapStringW        0000000140082780 f   libucrt:lcmapstringw.obj
 0001:00081830       _FindPESection             0000000140082830 f   LIBCMT:pesect.obj
 0001:00081890       _IsNonwritableInCurrentImage 0000000140082890 f   LIBCMT:pesect.obj
 0001:000818f0       _ValidateImageBase         00000001400828f0 f   LIBCMT:pesect.obj
 0001:00081928       ??1type_info@@UEAA@XZ      0000000140082928 f   LIBCMT:std_type_info_static.obj
 0001:00081938       ??_Etype_info@@UEAAPEAXI@Z 0000000140082938 f i LIBCMT:std_type_info_static.obj
 0001:00081938       ??_Gtype_info@@UEAAPEAXI@Z 0000000140082938 f i LIBCMT:std_type_info_static.obj
 0001:00081970       ??3@YAXPEAX_K@Z            0000000140082970 f   LIBCMT:delete_scalar_size.obj
 0001:00081978       __GSHandlerCheck_SEH       0000000140082978 f   LIBCMT:gshandlerseh.obj
 0001:00081a30       __chkstk                   0000000140082a30 f   LIBCMT:chkstk.obj
 0001:00081a30       _alloca_probe              0000000140082a30 f   LIBCMT:chkstk.obj
 0001:00081a98       __GSHandlerCheck_EH        0000000140082a98 f   LIBCMT:gshandlereh.obj
 0001:00081b38       ??3@YAXPEAX@Z              0000000140082b38 f   LIBCMT:delete_scalar.obj
 0001:00081b3d       RtlUnwindEx                0000000140082b3d f   kernel32:KERNEL32.dll
 0001:00081b43       InterlockedPushEntrySList  0000000140082b43 f   kernel32:KERNEL32.dll
 0001:00081b49       InterlockedFlushSList      0000000140082b49 f   kernel32:KERNEL32.dll
 0001:00081b4f       GetLastError               0000000140082b4f f   kernel32:KERNEL32.dll
 0001:00081b55       SetLastError               0000000140082b55 f   kernel32:KERNEL32.dll
 0001:00081b5b       EnterCriticalSection       0000000140082b5b f   kernel32:KERNEL32.dll
 0001:00081b61       LeaveCriticalSection       0000000140082b61 f   kernel32:KERNEL32.dll
 0001:00081b67       DeleteCriticalSection      0000000140082b67 f   kernel32:KERNEL32.dll
 0001:00081b6d       InitializeCriticalSectionAndSpinCount 0000000140082b6d f   kernel32:KERNEL32.dll
 0001:00081b73       TlsAlloc                   0000000140082b73 f   kernel32:KERNEL32.dll
 0001:00081b79       TlsGetValue                0000000140082b79 f   kernel32:KERNEL32.dll
 0001:00081b7f       TlsSetValue                0000000140082b7f f   kernel32:KERNEL32.dll
 0001:00081b85       TlsFree                    0000000140082b85 f   kernel32:KERNEL32.dll
 0001:00081b8b       FreeLibrary                0000000140082b8b f   kernel32:KERNEL32.dll
 0001:00081b91       GetProcAddress             0000000140082b91 f   kernel32:KERNEL32.dll
 0001:00081b97       LoadLibraryExW             0000000140082b97 f   kernel32:KERNEL32.dll
 0001:00081b9d       EncodePointer              0000000140082b9d f   kernel32:KERNEL32.dll
 0001:00081ba3       RaiseException             0000000140082ba3 f   kernel32:KERNEL32.dll
 0001:00081ba9       RtlPcToFileHeader          0000000140082ba9 f   kernel32:KERNEL32.dll
 0001:00081baf       RtlUnwind                  0000000140082baf f   kernel32:KERNEL32.dll
 0001:00081bb5       GetStdHandle               0000000140082bb5 f   kernel32:KERNEL32.dll
 0001:00081bbb       GetFileType                0000000140082bbb f   kernel32:KERNEL32.dll
 0001:00081bc1       GetModuleFileNameW         0000000140082bc1 f   kernel32:KERNEL32.dll
 0001:00081bc7       GetModuleHandleExW         0000000140082bc7 f   kernel32:KERNEL32.dll
 0001:00081bcd       WriteConsoleW              0000000140082bcd f   kernel32:KERNEL32.dll
 0001:00081bd3       WriteFile                  0000000140082bd3 f   kernel32:KERNEL32.dll
 0001:00081bd9       ExitProcess                0000000140082bd9 f   kernel32:KERNEL32.dll
 0001:00081bdf       GetCommandLineA            0000000140082bdf f   kernel32:KERNEL32.dll
 0001:00081be5       GetCommandLineW            0000000140082be5 f   kernel32:KERNEL32.dll
 0001:00081beb       OutputDebugStringW         0000000140082beb f   kernel32:KERNEL32.dll
 0001:00081bf1       SetConsoleCtrlHandler      0000000140082bf1 f   kernel32:KERNEL32.dll
 0001:00081bf7       HeapAlloc                  0000000140082bf7 f   kernel32:KERNEL32.dll
 0001:00081bfd       HeapFree                   0000000140082bfd f   kernel32:KERNEL32.dll
 0001:00081c03       FlsAlloc                   0000000140082c03 f   kernel32:KERNEL32.dll
 0001:00081c09       FlsGetValue                0000000140082c09 f   kernel32:KERNEL32.dll
 0001:00081c0f       FlsSetValue                0000000140082c0f f   kernel32:KERNEL32.dll
 0001:00081c15       FlsFree                    0000000140082c15 f   kernel32:KERNEL32.dll
 0001:00081c1b       GetDateFormatW             0000000140082c1b f   kernel32:KERNEL32.dll
 0001:00081c21       GetTimeFormatW             0000000140082c21 f   kernel32:KERNEL32.dll
 0001:00081c27       CompareStringW             0000000140082c27 f   kernel32:KERNEL32.dll
 0001:00081c2d       LCMapStringW               0000000140082c2d f   kernel32:KERNEL32.dll
 0001:00081c33       GetLocaleInfoW             0000000140082c33 f   kernel32:KERNEL32.dll
 0001:00081c39       IsValidLocale              0000000140082c39 f   kernel32:KERNEL32.dll
 0001:00081c3f       GetUserDefaultLCID         0000000140082c3f f   kernel32:KERNEL32.dll
 0001:00081c45       EnumSystemLocalesW         0000000140082c45 f   kernel32:KERNEL32.dll
 0001:00081c4b       GetCurrentThread           0000000140082c4b f   kernel32:KERNEL32.dll
 0001:00081c51       FindClose                  0000000140082c51 f   kernel32:KERNEL32.dll
 0001:00081c57       FindFirstFileExW           0000000140082c57 f   kernel32:KERNEL32.dll
 0001:00081c5d       FindNextFileW              0000000140082c5d f   kernel32:KERNEL32.dll
 0001:00081c63       IsValidCodePage            0000000140082c63 f   kernel32:KERNEL32.dll
 0001:00081c69       GetACP                     0000000140082c69 f   kernel32:KERNEL32.dll
 0001:00081c6f       GetOEMCP                   0000000140082c6f f   kernel32:KERNEL32.dll
 0001:00081c75       GetCPInfo                  0000000140082c75 f   kernel32:KERNEL32.dll
 0001:00081c7b       MultiByteToWideChar        0000000140082c7b f   kernel32:KERNEL32.dll
 0001:00081c81       WideCharToMultiByte        0000000140082c81 f   kernel32:KERNEL32.dll
 0001:00081c87       GetEnvironmentStringsW     0000000140082c87 f   kernel32:KERNEL32.dll
 0001:00081c8d       FreeEnvironmentStringsW    0000000140082c8d f   kernel32:KERNEL32.dll
 0001:00081c93       SetEnvironmentVariableW    0000000140082c93 f   kernel32:KERNEL32.dll
 0001:00081c99       SetStdHandle               0000000140082c99 f   kernel32:KERNEL32.dll
 0001:00081c9f       GetStringTypeW             0000000140082c9f f   kernel32:KERNEL32.dll
 0001:00081ca5       GetProcessHeap             0000000140082ca5 f   kernel32:KERNEL32.dll
 0001:00081cab       FlushFileBuffers           0000000140082cab f   kernel32:KERNEL32.dll
 0001:00081cb1       GetConsoleOutputCP         0000000140082cb1 f   kernel32:KERNEL32.dll
 0001:00081cb7       GetConsoleMode             0000000140082cb7 f   kernel32:KERNEL32.dll
 0001:00081cbd       GetFileSizeEx              0000000140082cbd f   kernel32:KERNEL32.dll
 0001:00081cc3       SetFilePointerEx           0000000140082cc3 f   kernel32:KERNEL32.dll
 0001:00081cc9       HeapSize                   0000000140082cc9 f   kernel32:KERNEL32.dll
 0001:00081ccf       HeapReAlloc                0000000140082ccf f   kernel32:KERNEL32.dll
 0001:00081cd5       ReadFile                   0000000140082cd5 f   kernel32:KERNEL32.dll
 0001:00081cdb       ReadConsoleW               0000000140082cdb f   kernel32:KERNEL32.dll
 0001:00081ce1       CloseHandle                0000000140082ce1 f   kernel32:KERNEL32.dll
 0001:00081ce7       CreateFileW                0000000140082ce7 f   kernel32:KERNEL32.dll
 0001:00081d00       memcmp                     0000000140082d00 f   libvcruntime:memcmp.obj
 0001:00081dfc       __C_specific_handler_noexcept 0000000140082dfc f   libvcruntime:chandler_noexcept.obj
 0001:00081e5c       strrchr                    0000000140082e5c f   libvcruntime:strrchr.obj
 0001:00081fe8       strchr                     0000000140082fe8 f   libvcruntime:strchr.obj
 0001:00082084       wcschr                     0000000140083084 f   libvcruntime:wcschr.obj
 0001:00085710       _guard_dispatch_icall_nop  0000000140086710 f   LIBCMT:guard_dispatch.obj
 0001:00085730       _guard_xfg_dispatch_icall_nop 0000000140086730 f   LIBCMT:guard_xfg_dispatch.obj
 0002:00000000       __xc_a                     000000014008a000     LIBCMT:initializers.obj
 0002:00000220       __xc_z                     000000014008a220     LIBCMT:initializers.obj
 0002:00000330       __xi_a                     000000014008a330     LIBCMT:initializers.obj
 0002:00000660       __acrt_stdio_initializer   000000014008a660     libucrt:stdio_initializer.obj
 0002:00000670       __acrt_tran_fma3_initializer 000000014008a670     libucrt:fma3_initializer.obj
 0002:00000680       __acrt_multibyte_initializer 000000014008a680     libucrt:multibyte_initializer.obj
 0002:00000690       __acrt_fmode_initializer   000000014008a690     libucrt:fmode_initializer.obj
 0002:000007a0       __xi_z                     000000014008a7a0     LIBCMT:initializers.obj
 0002:000008b0       __xp_a                     000000014008a8b0     LIBCMT:initializers.obj
 0002:000009c0       __acrt_locale_terminator   000000014008a9c0     libucrt:locale_initializer.obj
 0002:000009d0       __dcrt_console_output_terminator 000000014008a9d0     libucrt:console_output_initializer.obj
 0002:00000ae0       __acrt_stdio_terminator    000000014008aae0     libucrt:stdio_initializer.obj
 0002:00000bf0       __xp_z                     000000014008abf0     LIBCMT:initializers.obj
 0002:00000d00       __xt_a                     000000014008ad00     LIBCMT:initializers.obj
 0002:00000e10       __xt_z                     000000014008ae10     LIBCMT:initializers.obj
 0002:00000f20       __real@00000000            000000014008af20     collision.obj
 0002:00000f24       __real@34000000            000000014008af24     collision.obj
 0002:00000f28       __real@3f800000            000000014008af28     collision.obj
 0002:00000f2c       __real@7f7fffff            000000014008af2c     collision.obj
 0002:00000f30       __xmm@80000000800000008000000080000000 000000014008af30     collision.obj
 0002:00000f40       __real@c1f00000            000000014008af40     physics_sys.obj
 0002:00000f44       __real@41f00000            000000014008af44     input_sys.obj
 0002:00000f48       __real@c1000000            000000014008af48     game.obj
 0002:00000f4c       __real@c1100000            000000014008af4c     game.obj
 0002:000012cc       __real@c1400000            000000014008b2cc     game.obj
 0002:000012d0       __real@bf800000            000000014008b2d0     collision_sys.obj
 0002:00001414       __real@3c23d70a            000000014008b414     game.obj
 0002:00001418       __real@3d4ccccd            000000014008b418     game.obj
 0002:0000141c       __real@3dcccccd            000000014008b41c     game.obj
 0002:00001420       __real@3e4ccccd            000000014008b420     game.obj
 0002:00001424       __real@3e99999a            000000014008b424     game.obj
 0002:00001428       __real@3ecccccd            000000014008b428     game.obj
 0002:0000142c       __real@3f000000            000000014008b42c     game.obj
 0002:00001430       __real@3f19999a            000000014008b430     game.obj
 0002:00001434       __real@3f4ccccd            000000014008b434     game.obj
 0002:00001438       __real@3f666666            000000014008b438     game.obj
 0002:0000143c       __real@3f8ccccd            000000014008b43c     game.obj
 0002:00001440       __real@3fa66666            000000014008b440     game.obj
 0002:00001444       __real@3fb33333            000000014008b444     game.obj
 0002:00001448       __real@3fd9999a            000000014008b448     game.obj
 0002:0000144c       __real@3ff33333            000000014008b44c     game.obj
 0002:00001450       __real@40000000            000000014008b450     game.obj
 0002:00001454       __real@4019999a            000000014008b454     game.obj
 0002:00001458       __real@40800000            000000014008b458     game.obj
 0002:0000145c       __real@40833333            000000014008b45c     game.obj
 0002:00001460       __real@40900000            000000014008b460     game.obj
 0002:00001464       __real@409ccccd            000000014008b464     game.obj
 0002:00001468       __real@40a00000            000000014008b468     game.obj
 0002:0000146c       __real@40a9999a            000000014008b46c     game.obj
 0002:00001470       __real@40b66666            000000014008b470     game.obj
 0002:00001474       __real@41000000            000000014008b474     game.obj
 0002:00001478       __real@42c80000            000000014008b478     game.obj
 0002:0000147c       __real@be4ccccd            000000014008b47c     game.obj
 0002:00001480       __real@bf000000            000000014008b480     game.obj
 0002:00001484       __real@bf333333            000000014008b484     game.obj
 0002:00001488       __real@bfb33333            000000014008b488     game.obj
 0002:0000148c       __real@bfc00000            000000014008b48c     game.obj
 0002:00001490       __real@bff33333            000000014008b490     game.obj
 0002:00001494       __real@c0000000            000000014008b494     game.obj
 0002:00001498       __real@c0133333            000000014008b498     game.obj
 0002:0000149c       __real@c019999a            000000014008b49c     game.obj
 0002:000014a0       __real@c02ccccd            000000014008b4a0     game.obj
 0002:000014a4       __real@c0800000            000000014008b4a4     game.obj
 0002:000014a8       __real@c0a00000            000000014008b4a8     game.obj
 0002:000014ac       __real@c0c00000            000000014008b4ac     game.obj
 0002:000014b0       __real@c0e00000            000000014008b4b0     game.obj
 0002:000014f4       __real@3c888889            000000014008b4f4     main.obj
 0002:000014fc       __real@41700000            000000014008b4fc     input_sys.obj
 0002:00001524       __real@3a83126f            000000014008b524     physics_sys.obj
 0002:00001528       __real@3ba3d70a            000000014008b528     physics_sys.obj
 0002:0000152c       __real@3f866666            000000014008b52c     physics_sys.obj
 0002:00001550       __xmm@ffffffffffffffffffffffffffffffff 000000014008b550     LIBCMT:utility.obj
 0002:00001568       _pDestructExceptionObject  000000014008b568     libvcruntime:ehhelpers.obj
 0002:00001e00       ??_C@_08EHJDFFNH@__based?$CI@ 000000014008be00     libvcruntime:undname.obj
 0002:00001e10       ??_C@_07KOLFKCDI@__cdecl@  000000014008be10     libvcruntime:undname.obj
 0002:00001e20       ??_C@_08GHMPAG@__pascal@   000000014008be20     libvcruntime:undname.obj
 0002:00001e30       ??_C@_09IFJBGAPI@__stdcall@ 000000014008be30     libvcruntime:undname.obj
 0002:00001e40       ??_C@_0L@NPHFGOKO@__thiscall@ 000000014008be40     libvcruntime:undname.obj
 0002:00001e50       ??_C@_0L@JMKHOMEK@__fastcall@ 000000014008be50     libvcruntime:undname.obj
 0002:00001e60       ??_C@_0N@BCKKPABJ@__vectorcall@ 000000014008be60     libvcruntime:undname.obj
 0002:00001e70       ??_C@_09HIJEGCPM@__clrcall@ 000000014008be70     libvcruntime:undname.obj
 0002:00001e7c       ??_C@_06GHPCKEAG@__eabi@   000000014008be7c     libvcruntime:undname.obj
 0002:00001e88       ??_C@_09IOPIDJLG@__swift_1@ 000000014008be88     libvcruntime:undname.obj
 0002:00001e98       ??_C@_09KFNFGKHF@__swift_2@ 000000014008be98     libvcruntime:undname.obj
 0002:00001ea8       ??_C@_09LMMOFLDE@__swift_3@ 000000014008bea8     libvcruntime:undname.obj
 0002:00001eb8       ??_C@_07JOMMBBKO@__ptr64@  000000014008beb8     libvcruntime:undname.obj
 0002:00001ec8       ??_C@_0L@PILCLIHE@__restrict@ 000000014008bec8     libvcruntime:undname.obj
 0002:00001ed8       ??_C@_0M@GFIIJFMG@__unaligned@ 000000014008bed8     libvcruntime:undname.obj
 0002:00001ee8       ??_C@_09DHDLOLLB@restrict?$CI@ 000000014008bee8     libvcruntime:undname.obj
 0002:00001ef4       ??_C@_00CNPNBAHC@@         000000014008bef4     libvcruntime:undname.obj
 0002:00001ef8       ??_C@_04NIHEBCM@?5new@     000000014008bef8     libvcruntime:undname.obj
 0002:00001f00       ??_C@_07FPCDHGMM@?5delete@ 000000014008bf00     libvcruntime:undname.obj
 0002:00001f0c       ??_C@_01NEMOKFLO@?$DN@     000000014008bf0c     libvcruntime:undname.obj
 0002:00001f10       ??_C@_02GPIOPFAK@?$DO?$DO@ 000000014008bf10     libvcruntime:undname.obj
 0002:00001f14       ??_C@_02FODMEDOG@?$DM?$DM@ 000000014008bf14     libvcruntime:undname.obj
 0002:00001f18       ??_C@_01DCLJPIOD@?$CB@     000000014008bf18     libvcruntime:undname.obj
 0002:00001f1c       ??_C@_02EGOFBIJA@?$DN?$DN@ 000000014008bf1c     libvcruntime:undname.obj
 0002:00001f20       ??_C@_02FDNJECIE@?$CB?$DN@ 000000014008bf20     libvcruntime:undname.obj
 0002:00001f24       ??_C@_02GPECMEKF@?$FL?$FN@ 000000014008bf24     libvcruntime:undname.obj
 0002:00001f28       ??_C@_08LHJFAFGD@operator@ 000000014008bf28     libvcruntime:undname.obj
 0002:00001f34       ??_C@_02HBOOOICD@?9?$DO@   000000014008bf34     libvcruntime:undname.obj
 0002:00001f38       ??_C@_01NBENCBCI@?$CK@     000000014008bf38     libvcruntime:undname.obj
 0002:00001f3c       ??_C@_02ECNGHCIF@?$CL?$CL@ 000000014008bf3c     libvcruntime:undname.obj
 0002:00001f40       ??_C@_02BAABKJLB@?9?9@     000000014008bf40     libvcruntime:undname.obj
 0002:00001f44       ??_C@_01JOAMLHOP@?9@       000000014008bf44     libvcruntime:undname.obj
 0002:00001f48       ??_C@_01MIFGBAGJ@?$CL@     000000014008bf48     libvcruntime:undname.obj
 0002:00001f4c       ??_C@_01HNPIGOCE@?$CG@     000000014008bf4c     libvcruntime:undname.obj
 0002:00001f50       ??_C@_03MNHNFDLC@?9?$DO?$CK@ 000000014008bf50     libvcruntime:undname.obj
 0002:00001f54       ??_C@_01KMDKNFGN@?1@       000000014008bf54     libvcruntime:undname.obj
 0002:00001f58       ??_C@_01FGNFDNOH@?$CF@     000000014008bf58     libvcruntime:undname.obj
 0002:00001f5c       ??_C@_01MNNFJEPP@?$DM@     000000014008bf5c     libvcruntime:undname.obj
 0002:00001f60       ??_C@_02EHCHHCKH@?$DM?$DN@ 000000014008bf60     libvcruntime:undname.obj
 0002:00001f64       ??_C@_01PPODPGHN@?$DO@     000000014008bf64     libvcruntime:undname.obj
 0002:00001f68       ??_C@_02EEKDKGMJ@?$DO?$DN@ 000000014008bf68     libvcruntime:undname.obj
 0002:00001f6c       ??_C@_01IHBHIGKO@?0@       000000014008bf6c     libvcruntime:undname.obj
 0002:00001f70       ??_C@_02HCKGKOFO@?$CI?$CJ@ 000000014008bf70     libvcruntime:undname.obj
 0002:00001f74       ??_C@_01PJKLJHI@?$HO@      000000014008bf74     libvcruntime:undname.obj
 0002:00001f78       ??_C@_01JKBOJNNK@?$FO@     000000014008bf78     libvcruntime:undname.obj
 0002:00001f7c       ??_C@_01DNKMNLPK@?$HM@     000000014008bf7c     libvcruntime:undname.obj
 0002:00001f80       ??_C@_02PPKAJPJL@?$CG?$CG@ 000000014008bf80     libvcruntime:undname.obj
 0002:00001f84       ??_C@_02NONPIBCD@?$HM?$HM@ 000000014008bf84     libvcruntime:undname.obj
 0002:00001f88       ??_C@_02FPIMKNGF@?$CK?$DN@ 000000014008bf88     libvcruntime:undname.obj
 0002:00001f8c       ??_C@_02FOEOMHFC@?$CL?$DN@ 000000014008bf8c     libvcruntime:undname.obj
 0002:00001f90       ??_C@_02FKMDLLOA@?9?$DN@   000000014008bf90     libvcruntime:undname.obj
 0002:00001f94       ??_C@_02FJEHGPIO@?1?$DN@   000000014008bf94     libvcruntime:undname.obj
 0002:00001f98       ??_C@_02FENAOKFI@?$CF?$DN@ 000000014008bf98     libvcruntime:undname.obj
 0002:00001f9c       ??_C@_03IKFCCPFF@?$DO?$DO?$DN@ 000000014008bf9c     libvcruntime:undname.obj
 0002:00001fa0       ??_C@_03CDNPDDLA@?$DM?$DM?$DN@ 000000014008bfa0     libvcruntime:undname.obj
 0002:00001fa4       ??_C@_02FGJGFEAB@?$CG?$DN@ 000000014008bfa4     libvcruntime:undname.obj
 0002:00001fa8       ??_C@_02DHLNPPGH@?$HM?$DN@ 000000014008bfa8     libvcruntime:undname.obj
 0002:00001fac       ??_C@_02MHEGNOJ@?$FO?$DN@  000000014008bfac     libvcruntime:undname.obj
 0002:00001fb0       ??_C@_09IFPLHPGF@?$GAvftable?8@ 000000014008bfb0     libvcruntime:undname.obj
 0002:00001fc0       ??_C@_09BLBHBJP@?$GAvbtable?8@ 000000014008bfc0     libvcruntime:undname.obj
 0002:00001fd0       ??_C@_07FEEIOKP@?$GAvcall?8@ 000000014008bfd0     libvcruntime:undname.obj
 0002:00001fe0       ??_C@_08LLFFHHDJ@?$GAtypeof?8@ 000000014008bfe0     libvcruntime:undname.obj
 0002:00001ff0       ??_C@_0BF@KDPPACIK@?$GAlocal?5static?5guard?8@ 000000014008bff0     libvcruntime:undname.obj
 0002:00002010       ??_C@_08OBABFOLI@?$GAstring?8@ 000000014008c010     libvcruntime:undname.obj
 0002:00002020       ??_C@_0BD@JDLKDPAB@?$GAvbase?5destructor?8@ 000000014008c020     libvcruntime:undname.obj
 0002:00002038       ??_C@_0BN@DEGPLNFK@?$GAvector?5deleting?5destructor?8@ 000000014008c038     libvcruntime:undname.obj
 0002:00002060       ??_C@_0BO@OBMKPJIG@?$GAdefault?5constructor?5closure?8@ 000000014008c060     libvcruntime:undname.obj
 0002:00002088       ??_C@_0BN@IMDCHIKM@?$GAscalar?5deleting?5destructor?8@ 000000014008c088     libvcruntime:undname.obj
 0002:000020b0       ??_C@_0BO@PFGOCPJJ@?$GAvector?5constructor?5iterator?8@ 000000014008c0b0     libvcruntime:undname.obj
 0002:000020d8       ??_C@_0BN@LFPFMEDL@?$GAvector?5destructor?5iterator?8@ 000000014008c0d8     libvcruntime:undname.obj
 0002:00002100       ??_C@_0CE@IKBNEHA@?$GAvector?5vbase?5constructor?5itera@ 000000014008c100     libvcruntime:undname.obj
 0002:00002130       ??_C@_0BL@NILFHHPC@?$GAvirtual?5displacement?5map?8@ 000000014008c130     libvcruntime:undname.obj
 0002:00002150       ??_C@_0CB@JONCMFFK@?$GAeh?5vector?5constructor?5iterator@ 000000014008c150     libvcruntime:undname.obj
 0002:00002178       ??_C@_0CA@GCEOPDGL@?$GAeh?5vector?5destructor?5iterator?8@ 000000014008c178     libvcruntime:undname.obj
 0002:000021a0       ??_C@_0CH@OOJPLCPH@?$GAeh?5vector?5vbase?5constructor?5it@ 000000014008c1a0     libvcruntime:undname.obj
 0002:000021d0       ??_C@_0BL@LLKPOHJI@?$GAcopy?5constructor?5closure?8@ 000000014008c1d0     libvcruntime:undname.obj
 0002:000021f0       ??_C@_0BA@KBCDOMBN@?$GAudt?5returning?8@ 000000014008c1f0     libvcruntime:undname.obj
 0002:00002204       ??_C@_03KLGMFNMG@?$GAEH@   000000014008c204     libvcruntime:undname.obj
 0002:00002208       ??_C@_05KHLCHHI@?$GARTTI@  000000014008c208     libvcruntime:undname.obj
 0002:00002210       ??_C@_0BA@KKLDJDLB@?$GAlocal?5vftable?8@ 000000014008c210     libvcruntime:undname.obj
 0002:00002228       ??_C@_0CE@IIHCMGGL@?$GAlocal?5vftable?5constructor?5clos@ 000000014008c228     libvcruntime:undname.obj
 0002:00002254       ??_C@_06FHBGPFGH@?5new?$FL?$FN@ 000000014008c254     libvcruntime:undname.obj
 0002:00002260       ??_C@_09LBNFPBCA@?5delete?$FL?$FN@ 000000014008c260     libvcruntime:undname.obj
 0002:00002270       ??_C@_0P@HJKNJFNN@?$GAomni?5callsig?8@ 000000014008c270     libvcruntime:undname.obj
 0002:00002288       ??_C@_0BL@CNOONJFP@?$GAplacement?5delete?5closure?8@ 000000014008c288     libvcruntime:undname.obj
 0002:000022a8       ??_C@_0BN@CKNJLHMB@?$GAplacement?5delete?$FL?$FN?5closure?8@ 000000014008c2a8     libvcruntime:undname.obj
 0002:000022d0       ??_C@_0CG@CFDHKGGD@?$GAmanaged?5vector?5constructor?5ite@ 000000014008c2d0     libvcruntime:undname.obj
 0002:00002300       ??_C@_0CF@IMGKMJNO@?$GAmanaged?5vector?5destructor?5iter@ 000000014008c300     libvcruntime:undname.obj
 0002:00002330       ??_C@_0CG@HLDDJMAG@?$GAeh?5vector?5copy?5constructor?5ite@ 000000014008c330     libvcruntime:undname.obj
 0002:00002360       ??_C@_0CM@FCBBDIGB@?$GAeh?5vector?5vbase?5copy?5construct@ 000000014008c360     libvcruntime:undname.obj
 0002:00002398       ??_C@_0BL@CLIPGLGB@?$GAdynamic?5initializer?5for?5?8@ 000000014008c398     libvcruntime:undname.obj
 0002:000023b8       ??_C@_0CB@PDBIFEP@?$GAdynamic?5atexit?5destructor?5for?5@ 000000014008c3b8     libvcruntime:undname.obj
 0002:000023e0       ??_C@_0CD@CGAJBKEJ@?$GAvector?5copy?5constructor?5iterat@ 000000014008c3e0     libvcruntime:undname.obj
 0002:00002410       ??_C@_0CJ@GJELGAMM@?$GAvector?5vbase?5copy?5constructor?5@ 000000014008c410     libvcruntime:undname.obj
 0002:00002448       ??_C@_0CL@FGIJHLCE@?$GAmanaged?5vector?5copy?5constructo@ 000000014008c448     libvcruntime:undname.obj
 0002:00002480       ??_C@_0BM@PMGGMLDN@?$GAlocal?5static?5thread?5guard?8@ 000000014008c480     libvcruntime:undname.obj
 0002:000024a8       ??_C@_0N@BDNMDMOL@operator?5?$CC?$CC?5@ 000000014008c4a8     libvcruntime:undname.obj
 0002:000024b8       ??_C@_0BC@GGEBGALA@operator?5co_await@ 000000014008c4b8     libvcruntime:undname.obj
 0002:000024d0       ??_C@_0M@GAAIMMOH@operator?$DM?$DN?$DO@ 000000014008c4d0     libvcruntime:undname.obj
 0002:000024e0       ??_C@_0BC@DAFEJGAK@?5Type?5Descriptor?8@ 000000014008c4e0     libvcruntime:undname.obj
 0002:000024f8       ??_C@_0BM@LDKODKLH@?5Base?5Class?5Descriptor?5at?5?$CI@ 000000014008c4f8     libvcruntime:undname.obj
 0002:00002520       ??_C@_0BD@LGICGFMM@?5Base?5Class?5Array?8@ 000000014008c520     libvcruntime:undname.obj
 0002:00002538       ??_C@_0BN@MECKDCOJ@?5Class?5Hierarchy?5Descriptor?8@ 000000014008c538     libvcruntime:undname.obj
 0002:00002560       ??_C@_0BK@CFCOFLF@?5Complete?5Object?5Locator?8@ 000000014008c560     libvcruntime:undname.obj
 0002:00002580       ??_C@_0BG@JNJLAMPM@?$GAanonymous?5namespace?8@ 000000014008c580     libvcruntime:undname.obj
 0002:0000259c       ??_C@_04HEJADOOB@CV?3?5@   000000014008c59c     libvcruntime:undname.obj
 0002:000025a4       ??_C@_02MOLJINC@?3?3@      000000014008c5a4     libvcruntime:undname.obj
 0002:000025a8       ??_C@_0BE@JAEOCHPE@template?9parameter?9@ 000000014008c5a8     libvcruntime:undname.obj
 0002:000025c0       ??_C@_0BF@LNLGBBNL@?$GAtemplate?9parameter?9@ 000000014008c5c0     libvcruntime:undname.obj
 0002:000025e0       ??_C@_0O@KHGCOMHP@generic?9type?9@ 000000014008c5e0     libvcruntime:undname.obj
 0002:000025f0       ??_C@_0P@ODDENDLM@?$GAgeneric?9type?9@ 000000014008c5f0     libvcruntime:undname.obj
 0002:00002604       ??_C@_02OHHJMEON@?8?8@     000000014008c604     libvcruntime:undname.obj
 0002:00002608       ??_C@_0BN@IBLMMFAP@?$GAnon?9type?9template?9parameter@ 000000014008c608     libvcruntime:undname.obj
 0002:0000262c       ??_C@_03DLDNIBIK@?$CFlf@   000000014008c62c     libvcruntime:undname.obj
 0002:00002630       ??_C@_04OFALKAJ@?$DP?$DP_C@ 000000014008c630     libvcruntime:undname.obj
 0002:00002638       ??_C@_03KHICJKCI@?4?4?4@   000000014008c638     libvcruntime:undname.obj
 0002:0000263c       ??_C@_04HIBGFPH@NULL@      000000014008c63c     libvcruntime:undname.obj
 0002:00002644       ??_C@_02DPKJAMEF@?$CFd@    000000014008c644     libvcruntime:undname.obj
 0002:00002648       ??_C@_0BK@IHCCFNEL@?$GAtemplate?9type?9parameter?9@ 000000014008c648     libvcruntime:undname.obj
 0002:00002668       ??_C@_0BK@OFCNNNKO@?$GAgeneric?9class?9parameter?9@ 000000014008c668     libvcruntime:undname.obj
 0002:00002688       ??_C@_0BL@NGJBLFIL@?$GAgeneric?9method?9parameter?9@ 000000014008c688     libvcruntime:undname.obj
 0002:000026a8       ??_C@_07OHNGEDJK@nullptr@  000000014008c6a8     libvcruntime:undname.obj
 0002:000026b4       ??_C@_06COJIGPIB@lambda@   000000014008c6b4     libvcruntime:undname.obj
 0002:000026bc       ??_C@_04GKJNKENE@void@     000000014008c6bc     libvcruntime:undname.obj
 0002:000026c8       ??_C@_0BE@EODMJLIF@?$GAtemplate?9parameter@ 000000014008c6c8     libvcruntime:undname.obj
 0002:000026e0       ??_C@_03OPGICMGF@?$HN?8?5@ 000000014008c6e0     libvcruntime:undname.obj
 0002:000026e4       ??_C@_02IGFCGPIL@?$HN?8@   000000014008c6e4     libvcruntime:undname.obj
 0002:000026e8       ??_C@_0N@CBHHHENL@?$GAvtordispex?$HL@ 000000014008c6e8     libvcruntime:undname.obj
 0002:000026f8       ??_C@_0L@GHPFDFH@?$GAvtordisp?$HL@ 000000014008c6f8     libvcruntime:undname.obj
 0002:00002708       ??_C@_0L@HNGCOGAE@?$GAadjustor?$HL@ 000000014008c708     libvcruntime:undname.obj
 0002:00002718       ??_C@_0CB@KJDOOODE@?$GAlocal?5static?5destructor?5helper@ 000000014008c718     libvcruntime:undname.obj
 0002:00002740       ??_C@_0DB@ILEFOCIJ@?$GAtemplate?5static?5data?5member?5co@ 000000014008c740     libvcruntime:undname.obj
 0002:00002780       ??_C@_0DA@HGFJFBBE@?$GAtemplate?5static?5data?5member?5de@ 000000014008c780     libvcruntime:undname.obj
 0002:000027c0       ??_C@_07PGOEDBHP@static?5@ 000000014008c7c0     libvcruntime:undname.obj
 0002:000027d0       ??_C@_08NIEOINHE@virtual?5@ 000000014008c7d0     libvcruntime:undname.obj
 0002:000027e0       ??_C@_09LAPHOOG@private?3?5@ 000000014008c7e0     libvcruntime:undname.obj
 0002:000027f0       ??_C@_0M@GAIFPFIP@protected?3?5@ 000000014008c7f0     libvcruntime:undname.obj
 0002:00002800       ??_C@_08GPDDCMKI@public?3?5@ 000000014008c800     libvcruntime:undname.obj
 0002:00002810       ??_C@_08KJLFOPNE@?$FLthunk?$FN?3@ 000000014008c810     libvcruntime:undname.obj
 0002:00002820       ??_C@_0M@DHNBOJMP@extern?5?$CCC?$CC?5@ 000000014008c820     libvcruntime:undname.obj
 0002:00002830       ??_C@_02KCKGHPCA@?$CJ?5@   000000014008c830     libvcruntime:undname.obj
 0002:00002834       ??_C@_05CIHEBHNO@char?5@   000000014008c834     libvcruntime:undname.obj
 0002:0000283c       ??_C@_06EHJMALKF@short?5@  000000014008c83c     libvcruntime:undname.obj
 0002:00002844       ??_C@_04LAHKHJMA@int?5@    000000014008c844     libvcruntime:undname.obj
 0002:0000284c       ??_C@_05CJIMAING@long?5@   000000014008c84c     libvcruntime:undname.obj
 0002:00002858       ??_C@_09EBBEKKIH@unsigned?5@ 000000014008c858     libvcruntime:undname.obj
 0002:00002864       ??_C@_05BEFAKPML@void?5@   000000014008c864     libvcruntime:undname.obj
 0002:00002870       ??_C@_09GAIEOBLP@volatile?5@ 000000014008c870     libvcruntime:undname.obj
 0002:00002880       ??_C@_08PABEKFH@volatile@  000000014008c880     libvcruntime:undname.obj
 0002:00002890       ??_C@_0BA@LKIJLKPP@std?3?3nullptr_t?5@ 000000014008c890     libvcruntime:undname.obj
 0002:000028a8       ??_C@_0P@GCOCNKDM@std?3?3nullptr_t@ 000000014008c8a8     libvcruntime:undname.obj
 0002:000028c0       ??_C@_0L@EGPHHEKN@?$DMellipsis?$DO@ 000000014008c8c0     libvcruntime:undname.obj
 0002:000028d0       ??_C@_04EENFHACM@?0?4?4?4@ 000000014008c8d0     libvcruntime:undname.obj
 0002:000028d8       ??_C@_0M@ELJOJFFH@?0?$DMellipsis?$DO@ 000000014008c8d8     libvcruntime:undname.obj
 0002:000028e8       ??_C@_09DNHFEOJI@?5noexcept@ 000000014008c8e8     libvcruntime:undname.obj
 0002:000028f4       ??_C@_03PBJBJNON@cpu@      000000014008c8f4     libvcruntime:undname.obj
 0002:000028f8       ??_C@_03DCBBJBAA@amp@      000000014008c8f8     libvcruntime:undname.obj
 0002:000028fc       ??_C@_02KEGNLNML@?0?5@     000000014008c8fc     libvcruntime:undname.obj
 0002:00002900       ??_C@_04ENMBGAPA@char@     000000014008c900     libvcruntime:undname.obj
 0002:00002908       ??_C@_05BFKKPKCG@short@    000000014008c908     libvcruntime:undname.obj
 0002:00002910       ??_C@_03JBIPMCLC@int@      000000014008c910     libvcruntime:undname.obj
 0002:00002914       ??_C@_04GOKPGOLB@long@     000000014008c914     libvcruntime:undname.obj
 0002:0000291c       ??_C@_05KNFBNCOH@float@    000000014008c91c     libvcruntime:undname.obj
 0002:00002924       ??_C@_06BNJCAIGJ@double@   000000014008c924     libvcruntime:undname.obj
 0002:0000292c       ??_C@_04DDKJGDCM@bool@     000000014008c92c     libvcruntime:undname.obj
 0002:00002934       ??_C@_06EBGKOKIG@__int8@   000000014008c934     libvcruntime:undname.obj
 0002:00002940       ??_C@_07ICFHOGAF@__int16@  000000014008c940     libvcruntime:undname.obj
 0002:00002950       ??_C@_07OFLPPHGP@__int32@  000000014008c950     libvcruntime:undname.obj
 0002:00002960       ??_C@_07LFCOJCAC@__int64@  000000014008c960     libvcruntime:undname.obj
 0002:00002970       ??_C@_08GAHOLHEO@__int128@ 000000014008c970     libvcruntime:undname.obj
 0002:00002980       ??_C@_09EEKGDCPH@?$DMunknown?$DO@ 000000014008c980     libvcruntime:undname.obj
 0002:00002990       ??_C@_07CFHGOPCN@char8_t@  000000014008c990     libvcruntime:undname.obj
 0002:000029a0       ??_C@_08HBIPOFJB@char16_t@ 000000014008c9a0     libvcruntime:undname.obj
 0002:000029b0       ??_C@_08IECNCBKG@char32_t@ 000000014008c9b0     libvcruntime:undname.obj
 0002:000029c0       ??_C@_07CLGGIAMF@wchar_t@  000000014008c9c0     libvcruntime:undname.obj
 0002:000029cc       ??_C@_04HAPDLBFF@auto@     000000014008c9cc     libvcruntime:undname.obj
 0002:000029d8       ??_C@_0P@LHCGKIGK@decltype?$CIauto?$CJ@ 000000014008c9d8     libvcruntime:undname.obj
 0002:000029ec       ??_C@_05PCNBGHCF@this?5@   000000014008c9ec     libvcruntime:undname.obj
 0002:000029f4       ??_C@_06GCICPBLB@__w64?5@  000000014008c9f4     libvcruntime:undname.obj
 0002:00002a00       ??_C@_07NFANNNEC@UNKNOWN@  000000014008ca00     libvcruntime:undname.obj
 0002:00002a10       ??_C@_07EDHNAJHC@signed?5@ 000000014008ca10     libvcruntime:undname.obj
 0002:00002a1c       ??_C@_05BNCCCJPP@const@    000000014008ca1c     libvcruntime:undname.obj
 0002:00002a28       ??_C@_09EFNPDFFP@?5volatile@ 000000014008ca28     libvcruntime:undname.obj
 0002:00002a38       ??_C@_0P@GCIFDJCJ@?$GAunknown?5ecsu?8@ 000000014008ca38     libvcruntime:undname.obj
 0002:00002a4c       ??_C@_06MOJHIBMG@union?5@  000000014008ca4c     libvcruntime:undname.obj
 0002:00002a58       ??_C@_07DIBCDNGL@struct?5@ 000000014008ca58     libvcruntime:undname.obj
 0002:00002a64       ??_C@_06LJBABKPM@class?5@  000000014008ca64     libvcruntime:undname.obj
 0002:00002a70       ??_C@_08KOFANOFK@coclass?5@ 000000014008ca70     libvcruntime:undname.obj
 0002:00002a80       ??_C@_0N@DLIEFKNA@cointerface?5@ 000000014008ca80     libvcruntime:undname.obj
 0002:00002a90       ??_C@_05LJGMCFOG@enum?5@   000000014008ca90     libvcruntime:undname.obj
 0002:00002a98       ??_C@_06LIJLOJAG@const?5@  000000014008ca98     libvcruntime:undname.obj
 0002:00002aa0       ??_C@_02KJPKDIBN@?$CG?5@   000000014008caa0     libvcruntime:undname.obj
 0002:00002aa4       ??_C@_03PCKGMOPB@?$CG?$CG?5@ 000000014008caa4     libvcruntime:undname.obj
 0002:00002aa8       ??_C@_0M@EALIELKG@cli?3?3array?$DM@ 000000014008caa8     libvcruntime:undname.obj
 0002:00002ab8       ??_C@_0O@GKABPPIF@cli?3?3pin_ptr?$DM@ 000000014008cab8     libvcruntime:undname.obj
 0002:00002ac8       ??_C@_02GOGNNPBN@?$CJ?$FL@ 000000014008cac8     libvcruntime:undname.obj
 0002:00002acc       ??_C@_06EEGAIFAK@?$HLflat?$HN@ 000000014008cacc     libvcruntime:undname.obj
 0002:00002ad4       ??_C@_05JIBOFOHK@?$HLfor?5@ 000000014008cad4     libvcruntime:undname.obj
 0002:00002adc       ??_C@_02MDINNEEG@s?5@      000000014008cadc     libvcruntime:undname.obj
 0002:00002ae8       ??_7DNameNode@@6B@         000000014008cae8     libvcruntime:undname.obj
 0002:00002b18       ??_7charNode@@6B@          000000014008cb18     libvcruntime:undname.obj
 0002:00002b48       ??_7pcharNode@@6B@         000000014008cb48     libvcruntime:undname.obj
 0002:00002b78       ??_7pDNameNode@@6B@        000000014008cb78     libvcruntime:undname.obj
 0002:00002ba8       ??_7DNameStatusNode@@6B@   000000014008cba8     libvcruntime:undname.obj
 0002:00002bd8       ??_7pairNode@@6B@          000000014008cbd8     libvcruntime:undname.obj
 0002:00002d34       ??_C@_04OKOHEJBO@?5?$DP?$DP?5@ 000000014008cd34     libvcruntime:undname.obj
 0002:00002d40       ?nodes@?1??make@DNameStatusNode@@SAPEBV2@W4DNameStatus@@@Z@4QBV2@B 000000014008cd40     libvcruntime:undname.obj
 0002:00002db0       ??_C@_1DM@KHCHBNEB@?$AAa?$AAp?$AAi?$AA?9?$AAm?$AAs?$AA?9?$AAw?$AAi?$AAn?$AA?9?$AAc?$AAo?$AAr?$AAe@ 000000014008cdb0     libvcruntime:winapi_downlevel.obj
 0002:00002df8       ??_C@_1DK@LPPGFMPP@?$AAa?$AAp?$AAi?$AA?9?$AAm?$AAs?$AA?9?$AAw?$AAi?$AAn?$AA?9?$AAc?$AAo?$AAr?$AAe@ 000000014008cdf8     libvcruntime:winapi_downlevel.obj
 0002:00002e40       ??_C@_1BC@GDMECMAK@?$AAk?$AAe?$AAr?$AAn?$AAe?$AAl?$AA3?$AA2@ 000000014008ce40     libvcruntime:winapi_downlevel.obj
 0002:00002e58       ??_C@_1BA@PFFKHIOG@?$AAa?$AAp?$AAi?$AA?9?$AAm?$AAs?$AA?9@ 000000014008ce58     libvcruntime:winapi_downlevel.obj
 0002:00002e80       ??_C@_08KNHFBNJ@FlsAlloc@  000000014008ce80     libvcruntime:winapi_downlevel.obj
 0002:00002ea0       ??_C@_07PEJMOBNF@FlsFree@  000000014008cea0     libvcruntime:winapi_downlevel.obj
 0002:00002ec0       ??_C@_0M@GDNOONDI@FlsGetValue@ 000000014008cec0     libvcruntime:winapi_downlevel.obj
 0002:00002ee0       ??_C@_0M@JCPCPOEF@FlsSetValue@ 000000014008cee0     libvcruntime:winapi_downlevel.obj
 0002:00002f00       ??_C@_0BM@HCFOFFN@InitializeCriticalSectionEx@ 000000014008cf00     libvcruntime:winapi_downlevel.obj
 0002:00002f28       ?s_negLengthTab@FH4@@3QBCB 000000014008cf28     libvcruntime:risctrnsctrl.obj
 0002:00002f40       ?s_shiftTab@FH4@@3QBEB     000000014008cf40     libvcruntime:risctrnsctrl.obj
 0002:000030e0       ??_7exception@std@@6B@     000000014008d0e0     libvcruntime:frame.obj
 0002:000030f8       ??_C@_0BC@EOODALEL@Unknown?5exception@ 000000014008d0f8     libvcruntime:frame.obj
 0002:00003118       ??_7bad_exception@std@@6B@ 000000014008d118     libvcruntime:frame.obj
 0002:00003130       ??_C@_0O@DPKOEFFH@bad?5exception@ 000000014008d130     libvcruntime:frame.obj
 0002:00003140       __xmm@7fffffffffffffff7fffffffffffffff 000000014008d140     libucrt:fabs.obj
 0002:00003154       ??_C@_05KGFAIMPG@sqrtf@    000000014008d154     libucrt:sqrtf.obj
 0002:00003160       ??_C@_0CK@CFPGFGGO@Assertion?5failed?3?5?$CFTs?0?5file?5?$CFTs@ 000000014008d160     libucrt:assert.obj
 0002:000031a0       ??_C@_1FE@LHBLIKM@?$AAA?$AAs?$AAs?$AAe?$AAr?$AAt?$AAi?$AAo?$AAn?$AA?5?$AAf?$AAa?$AAi?$AAl?$AAe@ 000000014008d1a0     libucrt:assert.obj
 0002:00003208       ??_C@_0CF@GOGNBNAK@Microsoft?5Visual?5C?$CL?$CL?5Runtime?5Li@ 000000014008d208     libucrt:assert.obj
 0002:00003240       ??_C@_1EK@MBDPDCGA@?$AAM?$AAi?$AAc?$AAr?$AAo?$AAs?$AAo?$AAf?$AAt?$AA?5?$AAV?$AAi?$AAs?$AAu?$AAa@ 000000014008d240     libucrt:assert.obj
 0002:00003298       ??_C@_0BC@LAIDCHCH@Assertion?5failed?$CB@ 000000014008d298     libucrt:assert.obj
 0002:000032b0       ??_C@_1CE@OJBNHDMO@?$AAA?$AAs?$AAs?$AAe?$AAr?$AAt?$AAi?$AAo?$AAn?$AA?5?$AAf?$AAa?$AAi?$AAl?$AAe@ 000000014008d2b0     libucrt:assert.obj
 0002:000032e0       ??_C@_09KLGCKDOD@Program?3?5@ 000000014008d2e0     libucrt:assert.obj
 0002:000032f0       ??_C@_1BE@PHKBBGE@?$AAP?$AAr?$AAo?$AAg?$AAr?$AAa?$AAm?$AA?3?$AA?5@ 000000014008d2f0     libucrt:assert.obj
 0002:00003308       ??_C@_06IGPBOHMJ@File?3?5@ 000000014008d308     libucrt:assert.obj
 0002:00003310       ??_C@_1O@HEMHKNDC@?$AAF?$AAi?$AAl?$AAe?$AA?3?$AA?5@ 000000014008d310     libucrt:assert.obj
 0002:00003320       ??_C@_06FIEBOLOH@Line?3?5@ 000000014008d320     libucrt:assert.obj
 0002:00003328       ??_C@_1O@KCAFKHJE@?$AAL?$AAi?$AAn?$AAe?$AA?3?$AA?5@ 000000014008d328     libucrt:assert.obj
 0002:00003338       ??_C@_0N@MEECIJGN@Expression?3?5@ 000000014008d338     libucrt:assert.obj
 0002:00003348       ??_C@_1BK@PEDCIPMA@?$AAE?$AAx?$AAp?$AAr?$AAe?$AAs?$AAs?$AAi?$AAo?$AAn?$AA?3?$AA?5@ 000000014008d348     libucrt:assert.obj
 0002:00003370       ??_C@_0HA@OJHAGA@For?5information?5on?5how?5your?5pro@ 000000014008d370     libucrt:assert.obj
 0002:00003400       ??_C@_1OA@EGMLFBHJ@?$AAF?$AAo?$AAr?$AA?5?$AAi?$AAn?$AAf?$AAo?$AAr?$AAm?$AAa?$AAt?$AAi?$AAo?$AAn@ 000000014008d400     libucrt:assert.obj
 0002:00003510       ??_C@_0DN@EBBNMLME@?$CIPress?5Retry?5to?5debug?5the?5appli@ 000000014008d510     libucrt:assert.obj
 0002:00003560       ??_C@_1HK@POCJMFGK@?$AA?$CI?$AAP?$AAr?$AAe?$AAs?$AAs?$AA?5?$AAR?$AAe?$AAt?$AAr?$AAy?$AA?5?$AAt?$AAo@ 000000014008d560     libucrt:assert.obj
 0002:000035f8       ??_C@_17LGKOMLJ@?$AA?4?$AA?4?$AA?4@ 000000014008d5f8     libucrt:assert.obj
 0002:00003604       ??_C@_01EEMJAFIK@?6@       000000014008d604     libucrt:assert.obj
 0002:00003608       ??_C@_13LBAGMAIH@?$AA?6@   000000014008d608     libucrt:assert.obj
 0002:0000360c       ??_C@_02PHMGELLB@?6?6@     000000014008d60c     libucrt:assert.obj
 0002:00003610       ??_C@_15IABLJNFO@?$AA?6?$AA?6@ 000000014008d610     libucrt:assert.obj
 0002:00003618       ??_C@_0BH@DNAGHKFM@?$DMprogram?5name?5unknown?$DO@ 000000014008d618     libucrt:assert.obj
 0002:00003638       ??_C@_1CO@EAEJAADC@?$AA?$DM?$AAp?$AAr?$AAo?$AAg?$AAr?$AAa?$AAm?$AA?5?$AAn?$AAa?$AAm?$AAe?$AA?5?$AAu@ 000000014008d638     libucrt:assert.obj
 0002:00003670       _Fenv1                     000000014008d670     libucrt:output.obj
 0002:00003680       ?standard_lookup_table_spectre@__crt_stdio_output@@3V?$spectre_mitigated_lookup_table@Ustate_transition_pair@__crt_stdio_output@@$0IA@@1@B 000000014008d680     libucrt:output.obj
 0002:000037c0       ?format_validation_lookup_table_spectre@__crt_stdio_output@@3V?$spectre_mitigated_lookup_table@Ustate_transition_pair@__crt_stdio_output@@$0IA@@1@B 000000014008d7c0     libucrt:output.obj
 0002:000038f8       ??_C@_1O@CEDCILHN@?$AA?$CI?$AAn?$AAu?$AAl?$AAl?$AA?$CJ@ 000000014008d8f8     libucrt:output.obj
 0002:00003908       ??_C@_06OJHGLDPL@?$CInull?$CJ@ 000000014008d908     libucrt:output.obj
 0002:000043e0       __acrt_exception_action_table 000000014008e3e0     libucrt:exception_filter.obj
 0002:000044c8       __acrt_signal_action_table_count 000000014008e4c8     libucrt:exception_filter.obj
 0002:000044d8       __acrt_signal_action_table_size 000000014008e4d8     libucrt:exception_filter.obj
 0002:000044e8       __acrt_signal_action_first_fpe_index 000000014008e4e8     libucrt:exception_filter.obj
 0002:000044f8       __acrt_signal_action_fpe_count 000000014008e4f8     libucrt:exception_filter.obj
 0002:00004508       ??_C@_1DE@JNGNBFGO@?$AAR?$AAu?$AAn?$AAt?$AAi?$AAm?$AAe?$AA?5?$AAE?$AAr?$AAr?$AAo?$AAr?$AA?$CB?$AA?6@ 000000014008e508     libucrt:report_runtime_error.obj
 0002:000045d8       RtlNtPathSeperatorString   000000014008e5d8     libucrt:exit.obj
 0002:000045ec       ??_C@_13FPGAJAPJ@?$AA?2@   000000014008e5ec     libucrt:exit.obj
 0002:000045f0       RtlDosPathSeperatorsString 000000014008e5f0     libucrt:exit.obj
 0002:00004604       ??_C@_15MNCACJLI@?$AA?2?$AA?1@ 000000014008e604     libucrt:exit.obj
 0002:00004610       RtlAlternateDosPathSeperatorString 000000014008e610     libucrt:exit.obj
 0002:00004624       ??_C@_13CGOKJPIL@?$AA?1@   000000014008e624     libucrt:exit.obj
 0002:000046b8       ??_C@_1BI@BGOHAHKC@?$AAm?$AAs?$AAc?$AAo?$AAr?$AAe?$AAe?$AA?4?$AAd?$AAl?$AAl@ 000000014008e6b8     libucrt:exit.obj
 0002:000046d8       ??_C@_0P@MIGLKIOC@CorExitProcess@ 000000014008e6d8     libucrt:exit.obj
 0002:00004790       __lc_category              000000014008e790     libucrt:wsetlocale.obj
 0002:00004840       ??_C@_1O@GIFLHMA@?$AAL?$AAC?$AA_?$AAA?$AAL?$AAL@ 000000014008e840     libucrt:wsetlocale.obj
 0002:00004850       ??_C@_1BG@PPOMIBNJ@?$AAL?$AAC?$AA_?$AAC?$AAO?$AAL?$AAL?$AAA?$AAT?$AAE@ 000000014008e850     libucrt:wsetlocale.obj
 0002:00004870       ??_C@_1BC@FFJGAPJM@?$AAL?$AAC?$AA_?$AAC?$AAT?$AAY?$AAP?$AAE@ 000000014008e870     libucrt:wsetlocale.obj
 0002:00004888       ??_C@_1BI@PCKFNJFB@?$AAL?$AAC?$AA_?$AAM?$AAO?$AAN?$AAE?$AAT?$AAA?$AAR?$AAY@ 000000014008e888     libucrt:wsetlocale.obj
 0002:000048a8       ??_C@_1BG@ENIEDKID@?$AAL?$AAC?$AA_?$AAN?$AAU?$AAM?$AAE?$AAR?$AAI?$AAC@ 000000014008e8a8     libucrt:wsetlocale.obj
 0002:000048c8       ??_C@_1BA@HAAOMIIG@?$AAL?$AAC?$AA_?$AAT?$AAI?$AAM?$AAE@ 000000014008e8c8     libucrt:wsetlocale.obj
 0002:000048dc       ??_C@_15NBPDDFIP@?$AA?$DN?$AA?$DL@ 000000014008e8dc     libucrt:wsetlocale.obj
 0002:000048e4       ??_C@_13PJJBFPED@?$AA?$DL@ 000000014008e8e4     libucrt:wsetlocale.obj
 0002:000048e8       ??_C@_13NMPKAAJP@?$AA?$DN@ 000000014008e8e8     libucrt:wsetlocale.obj
 0002:000048ec       ??_C@_13IMODFHAA@?$AA?9@   000000014008e8ec     libucrt:wsetlocale.obj
 0002:000048f0       ??_C@_17EFJLDFDO@?$AA?9?$AA_?$AA?4@ 000000014008e8f0     libucrt:wsetlocale.obj
 0002:000048fc       ??_C@_13FHBKNHDA@?$AAC@    000000014008e8fc     libucrt:wsetlocale.obj
 0002:00004900       ??_C@_17MBJJLFDM@?$AA_?$AA?4?$AA?0@ 000000014008e900     libucrt:wsetlocale.obj
 0002:0000490c       ??_C@_13ENNFDPBH@?$AA_@    000000014008e90c     libucrt:wsetlocale.obj
 0002:00004910       ??_C@_13JOFGPIOO@?$AA?4@   000000014008e910     libucrt:wsetlocale.obj
 0002:00004d30       ??_C@_1EA@JGEFHKEI@?$AAa?$AAp?$AAi?$AA?9?$AAm?$AAs?$AA?9?$AAw?$AAi?$AAn?$AA?9?$AAc?$AAo?$AAr?$AAe@ 000000014008ed30     libucrt:winapi_thunks.obj
 0002:00004d80       ??_C@_1DI@IJCEHOCB@?$AAa?$AAp?$AAi?$AA?9?$AAm?$AAs?$AA?9?$AAw?$AAi?$AAn?$AA?9?$AAc?$AAo?$AAr?$AAe@ 000000014008ed80     libucrt:winapi_thunks.obj
 0002:00004dd0       ??_C@_1EI@MPIAOHOC@?$AAa?$AAp?$AAi?$AA?9?$AAm?$AAs?$AA?9?$AAw?$AAi?$AAn?$AA?9?$AAc?$AAo?$AAr?$AAe@ 000000014008edd0     libucrt:winapi_thunks.obj
 0002:00004e30       ??_C@_1FK@FPHCKFIE@?$AAa?$AAp?$AAi?$AA?9?$AAm?$AAs?$AA?9?$AAw?$AAi?$AAn?$AA?9?$AAc?$AAo?$AAr?$AAe@ 000000014008ee30     libucrt:winapi_thunks.obj
 0002:00004ea0       ??_C@_1EM@DILCGIIO@?$AAa?$AAp?$AAi?$AA?9?$AAm?$AAs?$AA?9?$AAw?$AAi?$AAn?$AA?9?$AAc?$AAo?$AAr?$AAe@ 000000014008eea0     libucrt:winapi_thunks.obj
 0002:00004f00       ??_C@_1DM@LNCGDDPN@?$AAa?$AAp?$AAi?$AA?9?$AAm?$AAs?$AA?9?$AAw?$AAi?$AAn?$AA?9?$AAc?$AAo?$AAr?$AAe@ 000000014008ef00     libucrt:winapi_thunks.obj
 0002:00004f48       ??_C@_1DO@FPAPJEMD@?$AAa?$AAp?$AAi?$AA?9?$AAm?$AAs?$AA?9?$AAw?$AAi?$AAn?$AA?9?$AAc?$AAo?$AAr?$AAe@ 000000014008ef48     libucrt:winapi_thunks.obj
 0002:00004f98       ??_C@_1DK@NDHNAHIO@?$AAa?$AAp?$AAi?$AA?9?$AAm?$AAs?$AA?9?$AAw?$AAi?$AAn?$AA?9?$AAc?$AAo?$AAr?$AAe@ 000000014008ef98     libucrt:winapi_thunks.obj
 0002:00004fe0       ??_C@_1DM@KGHDGBCM@?$AAa?$AAp?$AAi?$AA?9?$AAm?$AAs?$AA?9?$AAw?$AAi?$AAn?$AA?9?$AAc?$AAo?$AAr?$AAe@ 000000014008efe0     libucrt:winapi_thunks.obj
 0002:00005030       ??_C@_1EO@IJIOEFOH@?$AAa?$AAp?$AAi?$AA?9?$AAm?$AAs?$AA?9?$AAw?$AAi?$AAn?$AA?9?$AAr?$AAt?$AAc?$AAo@ 000000014008f030     libucrt:winapi_thunks.obj
 0002:00005090       ??_C@_1FG@HHGEKANL@?$AAa?$AAp?$AAi?$AA?9?$AAm?$AAs?$AA?9?$AAw?$AAi?$AAn?$AA?9?$AAs?$AAe?$AAc?$AAu@ 000000014008f090     libucrt:winapi_thunks.obj
 0002:00005100       ??_C@_1EG@DBIOJECG@?$AAe?$AAx?$AAt?$AA?9?$AAm?$AAs?$AA?9?$AAw?$AAi?$AAn?$AA?9?$AAn?$AAt?$AAu?$AAs@ 000000014008f100     libucrt:winapi_thunks.obj
 0002:00005160       ??_C@_1EO@FIHMJCLF@?$AAe?$AAx?$AAt?$AA?9?$AAm?$AAs?$AA?9?$AAw?$AAi?$AAn?$AA?9?$AAn?$AAt?$AAu?$AAs@ 000000014008f160     libucrt:winapi_thunks.obj
 0002:000051c0       ??_C@_1BC@DNHGCMLG@?$AAa?$AAd?$AAv?$AAa?$AAp?$AAi?$AA3?$AA2@ 000000014008f1c0     libucrt:winapi_thunks.obj
 0002:000051d8       ??_C@_1M@OAIMIKLP@?$AAn?$AAt?$AAd?$AAl?$AAl@ 000000014008f1d8     libucrt:winapi_thunks.obj
 0002:000051f0       ??_C@_1EG@DPGNFKGC@?$AAa?$AAp?$AAi?$AA?9?$AAm?$AAs?$AA?9?$AAw?$AAi?$AAn?$AA?9?$AAa?$AAp?$AAp?$AAm@ 000000014008f1f0     libucrt:winapi_thunks.obj
 0002:00005248       ??_C@_1O@BCCLBEOE@?$AAu?$AAs?$AAe?$AAr?$AA3?$AA2@ 000000014008f248     libucrt:winapi_thunks.obj
 0002:00005258       ??_C@_1BA@IAIFMGEF@?$AAe?$AAx?$AAt?$AA?9?$AAm?$AAs?$AA?9@ 000000014008f258     libucrt:winapi_thunks.obj
 0002:00005270       ??_C@_0BA@FHFNEAED@AreFileApisANSI@ 000000014008f270     libucrt:winapi_thunks.obj
 0002:00005298       ??_C@_0BA@IHGNDAEB@CompareStringEx@ 000000014008f298     libucrt:winapi_thunks.obj
 0002:000052c0       ??_C@_0BE@LJANKFHF@EnumSystemLocalesEx@ 000000014008f2c0     libucrt:winapi_thunks.obj
 0002:000052e8       ??_C@_0BA@HNOPNCHB@GetActiveWindow@ 000000014008f2e8     libucrt:winapi_thunks.obj
 0002:00005310       ??_C@_0BA@EPCJIIPD@GetDateFormatEx@ 000000014008f310     libucrt:winapi_thunks.obj
 0002:00005338       ??_C@_0BJ@DIBIJBHA@GetEnabledXStateFeatures@ 000000014008f338     libucrt:winapi_thunks.obj
 0002:00005368       ??_C@_0BD@HHGDFDBJ@GetLastActivePopup@ 000000014008f368     libucrt:winapi_thunks.obj
 0002:00005390       ??_C@_0BA@ONOKGCMP@GetLocaleInfoEx@ 000000014008f390     libucrt:winapi_thunks.obj
 0002:000053b8       ??_C@_0BI@DFKBFLJE@GetProcessWindowStation@ 000000014008f3b8     libucrt:winapi_thunks.obj
 0002:000053d8       ??_C@_0BP@FPNJPEJC@GetSystemTimePreciseAsFileTime@ 000000014008f3d8     libucrt:winapi_thunks.obj
 0002:00005410       ??_C@_0BA@CIJJKCJJ@GetTimeFormatEx@ 000000014008f410     libucrt:winapi_thunks.obj
 0002:00005438       ??_C@_0BJ@PBCCBIPI@GetUserDefaultLocaleName@ 000000014008f438     libucrt:winapi_thunks.obj
 0002:00005468       ??_C@_0BK@DEKFELLI@GetUserObjectInformationW@ 000000014008f468     libucrt:winapi_thunks.obj
 0002:00005498       ??_C@_0BG@IKLDMBLM@GetXStateFeaturesMask@ 000000014008f498     libucrt:winapi_thunks.obj
 0002:000054d8       ??_C@_0BC@CELBKLLA@IsValidLocaleName@ 000000014008f4d8     libucrt:winapi_thunks.obj
 0002:00005500       ??_C@_0O@KKBNKAPF@LCMapStringEx@ 000000014008f500     libucrt:winapi_thunks.obj
 0002:00005520       ??_C@_0BB@CDHDDLLP@LCIDToLocaleName@ 000000014008f520     libucrt:winapi_thunks.obj
 0002:00005548       ??_C@_0BB@HBDEELFH@LocaleNameToLCID@ 000000014008f548     libucrt:winapi_thunks.obj
 0002:00005570       ??_C@_0BE@KINNKFDA@LocateXStateFeature@ 000000014008f570     libucrt:winapi_thunks.obj
 0002:00005598       ??_C@_0M@CHKKJDAI@MessageBoxA@ 000000014008f598     libucrt:winapi_thunks.obj
 0002:000055b8       ??_C@_0M@DLDCCGNP@MessageBoxW@ 000000014008f5b8     libucrt:winapi_thunks.obj
 0002:000055d0       ??_C@_0N@PPOMPGGK@RoInitialize@ 000000014008f5d0     libucrt:winapi_thunks.obj
 0002:000055e8       ??_C@_0P@LLFHBIJD@RoUninitialize@ 000000014008f5e8     libucrt:winapi_thunks.obj
 0002:00005600       ??_C@_0CF@OJOFEIGO@AppPolicyGetProcessTerminationM@ 000000014008f600     libucrt:winapi_thunks.obj
 0002:00005630       ??_C@_0CF@NNDFDCOC@AppPolicyGetThreadInitializatio@ 000000014008f630     libucrt:winapi_thunks.obj
 0002:00005660       ??_C@_0CE@OICFMIKE@AppPolicyGetShowDeveloperDiagno@ 000000014008f660     libucrt:winapi_thunks.obj
 0002:00005690       ??_C@_0BL@ODDJNEDA@AppPolicyGetWindowingModel@ 000000014008f690     libucrt:winapi_thunks.obj
 0002:000056c0       ??_C@_0BI@BKLFFAPO@SetThreadStackGuarantee@ 000000014008f6c0     libucrt:winapi_thunks.obj
 0002:000056f0       ??_C@_0BC@JEAENNKH@SystemFunction036@ 000000014008f6f0     libucrt:winapi_thunks.obj
 0002:000057ac       ??_C@_03OEIAHPBN@INF@      000000014008f7ac     libucrt:cvt.obj
 0002:000057b0       ??_C@_03OJHLLCGB@inf@      000000014008f7b0     libucrt:cvt.obj
 0002:000057b4       ??_C@_03LKNCIKJB@NAN@      000000014008f7b4     libucrt:cvt.obj
 0002:000057b8       ??_C@_03LHCJEHON@nan@      000000014008f7b8     libucrt:cvt.obj
 0002:000057c0       ??_C@_09OFJJIMPC@NAN?$CISNAN?$CJ@ 000000014008f7c0     libucrt:cvt.obj
 0002:000057d0       ??_C@_09IPFBKMDL@nan?$CIsnan?$CJ@ 000000014008f7d0     libucrt:cvt.obj
 0002:000057e0       ??_C@_08IKHNHAJ@NAN?$CIIND?$CJ@ 000000014008f7e0     libucrt:cvt.obj
 0002:000057f0       ??_C@_08OFCDMILK@nan?$CIind?$CJ@ 000000014008f7f0     libucrt:cvt.obj
 0002:000057fc       ??_C@_05KLBDPFGC@e?$CL000@ 000000014008f7fc     libucrt:cvt.obj
 0002:00005810       __lc_time_c                000000014008f810     libucrt:nlsdata.obj
 0002:00005b5c       ??_C@_03KOEHGMDN@Sun@      000000014008fb5c     libucrt:nlsdata.obj
 0002:00005b60       ??_C@_03PDAGKDH@Mon@       000000014008fb60     libucrt:nlsdata.obj
 0002:00005b64       ??_C@_03NAGEINEP@Tue@      000000014008fb64     libucrt:nlsdata.obj
 0002:00005b68       ??_C@_03MHOMLAJA@Wed@      000000014008fb68     libucrt:nlsdata.obj
 0002:00005b6c       ??_C@_03IOFIKPDN@Thu@      000000014008fb6c     libucrt:nlsdata.obj
 0002:00005b70       ??_C@_03IDIOELNC@Fri@      000000014008fb70     libucrt:nlsdata.obj
 0002:00005b74       ??_C@_03FEFJNEK@Sat@       000000014008fb74     libucrt:nlsdata.obj
 0002:00005b78       ??_C@_06OOPIFAJ@Sunday@    000000014008fb78     libucrt:nlsdata.obj
 0002:00005b80       ??_C@_06JLEDEDGH@Monday@   000000014008fb80     libucrt:nlsdata.obj
 0002:00005b88       ??_C@_07BAAGCFCM@Tuesday@  000000014008fb88     libucrt:nlsdata.obj
 0002:00005b98       ??_C@_09DLIGFAKA@Wednesday@ 000000014008fb98     libucrt:nlsdata.obj
 0002:00005ba8       ??_C@_08HACCIKIA@Thursday@ 000000014008fba8     libucrt:nlsdata.obj
 0002:00005bb4       ??_C@_06JECMNKMI@Friday@   000000014008fbb4     libucrt:nlsdata.obj
 0002:00005bc0       ??_C@_08INBOOONO@Saturday@ 000000014008fbc0     libucrt:nlsdata.obj
 0002:00005bcc       ??_C@_03JIHJHPIE@Jan@      000000014008fbcc     libucrt:nlsdata.obj
 0002:00005bd0       ??_C@_03HJBDCHOM@Feb@      000000014008fbd0     libucrt:nlsdata.obj
 0002:00005bd4       ??_C@_03ODNJBKGA@Mar@      000000014008fbd4     libucrt:nlsdata.obj
 0002:00005bd8       ??_C@_03LEOLGMJP@Apr@      000000014008fbd8     libucrt:nlsdata.obj
 0002:00005bdc       ??_C@_03CNMDKL@May@        000000014008fbdc     libucrt:nlsdata.obj
 0002:00005be0       ??_C@_03IDFGHECI@Jun@      000000014008fbe0     libucrt:nlsdata.obj
 0002:00005be4       ??_C@_03LBGABGKK@Jul@      000000014008fbe4     libucrt:nlsdata.obj
 0002:00005be8       ??_C@_03IFJFEIGA@Aug@      000000014008fbe8     libucrt:nlsdata.obj
 0002:00005bec       ??_C@_03GGCAPAJC@Sep@      000000014008fbec     libucrt:nlsdata.obj
 0002:00005bf0       ??_C@_03BMAOKBAD@Oct@      000000014008fbf0     libucrt:nlsdata.obj
 0002:00005bf4       ??_C@_03JPJOFNIA@Nov@      000000014008fbf4     libucrt:nlsdata.obj
 0002:00005bf8       ??_C@_03MKABNOCG@Dec@      000000014008fbf8     libucrt:nlsdata.obj
 0002:00005c00       ??_C@_07CGJPFGJA@January@  000000014008fc00     libucrt:nlsdata.obj
 0002:00005c10       ??_C@_08GNJGEPFN@February@ 000000014008fc10     libucrt:nlsdata.obj
 0002:00005c1c       ??_C@_05HPCKOFNC@March@    000000014008fc1c     libucrt:nlsdata.obj
 0002:00005c24       ??_C@_05DMJDNLEJ@April@    000000014008fc24     libucrt:nlsdata.obj
 0002:00005c2c       ??_C@_04CNLMGBGM@June@     000000014008fc2c     libucrt:nlsdata.obj
 0002:00005c34       ??_C@_04MIEPOIFP@July@     000000014008fc34     libucrt:nlsdata.obj
 0002:00005c3c       ??_C@_06LBBHFDDG@August@   000000014008fc3c     libucrt:nlsdata.obj
 0002:00005c48       ??_C@_09BHHEALKD@September@ 000000014008fc48     libucrt:nlsdata.obj
 0002:00005c58       ??_C@_07JJNFCEND@October@  000000014008fc58     libucrt:nlsdata.obj
 0002:00005c68       ??_C@_08HCHEGEOA@November@ 000000014008fc68     libucrt:nlsdata.obj
 0002:00005c78       ??_C@_08EDHMEBNP@December@ 000000014008fc78     libucrt:nlsdata.obj
 0002:00005c84       ??_C@_02DEDBPAFC@AM@       000000014008fc84     libucrt:nlsdata.obj
 0002:00005c88       ??_C@_02CJNFDJBF@PM@       000000014008fc88     libucrt:nlsdata.obj
 0002:00005c90       ??_C@_08BPBNCDIB@MM?1dd?1yy@ 000000014008fc90     libucrt:nlsdata.obj
 0002:00005ca0       ??_C@_0BE@CKGJFCPC@dddd?0?5MMMM?5dd?0?5yyyy@ 000000014008fca0     libucrt:nlsdata.obj
 0002:00005cb8       ??_C@_08JCCMCCIL@HH?3mm?3ss@ 000000014008fcb8     libucrt:nlsdata.obj
 0002:00005cc8       ??_C@_17MBGCMIPB@?$AAS?$AAu?$AAn@ 000000014008fcc8     libucrt:nlsdata.obj
 0002:00005cd8       ??_C@_17KBOMKBF@?$AAM?$AAo?$AAn@ 000000014008fcd8     libucrt:nlsdata.obj
 0002:00005ce8       ??_C@_17BMKGEGOJ@?$AAT?$AAu?$AAe@ 000000014008fce8     libucrt:nlsdata.obj
 0002:00005cf8       ??_C@_17CJEDCEPE@?$AAW?$AAe?$AAd@ 000000014008fcf8     libucrt:nlsdata.obj
 0002:00005d08       ??_C@_17PDPHAADD@?$AAT?$AAh?$AAu@ 000000014008fd08     libucrt:nlsdata.obj
 0002:00005d18       ??_C@_17HFOLPPLP@?$AAF?$AAr?$AAi@ 000000014008fd18     libucrt:nlsdata.obj
 0002:00005d28       ??_C@_17GGIBDPIH@?$AAS?$AAa?$AAt@ 000000014008fd28     libucrt:nlsdata.obj
 0002:00005d38       ??_C@_1O@IHNHDHPB@?$AAS?$AAu?$AAn?$AAd?$AAa?$AAy@ 000000014008fd38     libucrt:nlsdata.obj
 0002:00005d48       ??_C@_1O@MMNBFLIA@?$AAM?$AAo?$AAn?$AAd?$AAa?$AAy@ 000000014008fd48     libucrt:nlsdata.obj
 0002:00005d58       ??_C@_1BA@ENFBFFEK@?$AAT?$AAu?$AAe?$AAs?$AAd?$AAa?$AAy@ 000000014008fd58     libucrt:nlsdata.obj
 0002:00005d70       ??_C@_1BE@EBOGMDOH@?$AAW?$AAe?$AAd?$AAn?$AAe?$AAs?$AAd?$AAa?$AAy@ 000000014008fd70     libucrt:nlsdata.obj
 0002:00005d88       ??_C@_1BC@HHMNLIHE@?$AAT?$AAh?$AAu?$AAr?$AAs?$AAd?$AAa?$AAy@ 000000014008fd88     libucrt:nlsdata.obj
 0002:00005da0       ??_C@_1O@PDICJHAG@?$AAF?$AAr?$AAi?$AAd?$AAa?$AAy@ 000000014008fda0     libucrt:nlsdata.obj
 0002:00005db0       ??_C@_1BC@ENMNNPAJ@?$AAS?$AAa?$AAt?$AAu?$AAr?$AAd?$AAa?$AAy@ 000000014008fdb0     libucrt:nlsdata.obj
 0002:00005dc8       ??_C@_17DKNBKCHM@?$AAJ?$AAa?$AAn@ 000000014008fdc8     libucrt:nlsdata.obj
 0002:00005dd8       ??_C@_17LMDJEKJN@?$AAF?$AAe?$AAb@ 000000014008fdd8     libucrt:nlsdata.obj
 0002:00005de8       ??_C@_17CKNLEDEC@?$AAM?$AAa?$AAr@ 000000014008fde8     libucrt:nlsdata.obj
 0002:00005df8       ??_C@_17LFPOIHDD@?$AAA?$AAp?$AAr@ 000000014008fdf8     libucrt:nlsdata.obj
 0002:00005e08       ??_C@_17PNNKMEED@?$AAM?$AAa?$AAy@ 000000014008fe08     libucrt:nlsdata.obj
 0002:00005e18       ??_C@_17KCJGOCPB@?$AAJ?$AAu?$AAn@ 000000014008fe18     libucrt:nlsdata.obj
 0002:00005e28       ??_C@_17IJPCKHK@?$AAJ?$AAu?$AAl@ 000000014008fe28     libucrt:nlsdata.obj
 0002:00005e38       ??_C@_17ICPELBCN@?$AAA?$AAu?$AAg@ 000000014008fe38     libucrt:nlsdata.obj
 0002:00005e48       ??_C@_17HCHCOKMG@?$AAS?$AAe?$AAp@ 000000014008fe48     libucrt:nlsdata.obj
 0002:00005e58       ??_C@_17FNLKOI@?$AAO?$AAc?$AAt@ 000000014008fe58     libucrt:nlsdata.obj
 0002:00005e68       ??_C@_17BBDMLCIG@?$AAN?$AAo?$AAv@ 000000014008fe68     libucrt:nlsdata.obj
 0002:00005e78       ??_C@_17EGKACKIF@?$AAD?$AAe?$AAc@ 000000014008fe78     libucrt:nlsdata.obj
 0002:00005e88       ??_C@_1BA@EFMEIEBA@?$AAJ?$AAa?$AAn?$AAu?$AAa?$AAr?$AAy@ 000000014008fe88     libucrt:nlsdata.obj
 0002:00005ea0       ??_C@_1BC@JGDDFFAM@?$AAF?$AAe?$AAb?$AAr?$AAu?$AAa?$AAr?$AAy@ 000000014008fea0     libucrt:nlsdata.obj
 0002:00005eb8       ??_C@_1M@IKEENEDF@?$AAM?$AAa?$AAr?$AAc?$AAh@ 000000014008feb8     libucrt:nlsdata.obj
 0002:00005ec8       ??_C@_1M@GJNLMHFD@?$AAA?$AAp?$AAr?$AAi?$AAl@ 000000014008fec8     libucrt:nlsdata.obj
 0002:00005ed8       ??_C@_19EPFLPGAP@?$AAJ?$AAu?$AAn?$AAe@ 000000014008fed8     libucrt:nlsdata.obj
 0002:00005ee8       ??_C@_19BIFMLPCD@?$AAJ?$AAu?$AAl?$AAy@ 000000014008fee8     libucrt:nlsdata.obj
 0002:00005ef8       ??_C@_1O@PAHLKOAC@?$AAA?$AAu?$AAg?$AAu?$AAs?$AAt@ 000000014008fef8     libucrt:nlsdata.obj
 0002:00005f08       ??_C@_1BE@DKAAMBJL@?$AAS?$AAe?$AAp?$AAt?$AAe?$AAm?$AAb?$AAe?$AAr@ 000000014008ff08     libucrt:nlsdata.obj
 0002:00005f20       ??_C@_1BA@EPANDLNG@?$AAO?$AAc?$AAt?$AAo?$AAb?$AAe?$AAr@ 000000014008ff20     libucrt:nlsdata.obj
 0002:00005f38       ??_C@_1BC@BGLIFPF@?$AAN?$AAo?$AAv?$AAe?$AAm?$AAb?$AAe?$AAr@ 000000014008ff38     libucrt:nlsdata.obj
 0002:00005f50       ??_C@_1BC@FEMKIFH@?$AAD?$AAe?$AAc?$AAe?$AAm?$AAb?$AAe?$AAr@ 000000014008ff50     libucrt:nlsdata.obj
 0002:00005f68       ??_C@_15ODEHAHHF@?$AAA?$AAM@ 000000014008ff68     libucrt:nlsdata.obj
 0002:00005f70       ??_C@_15CLMNNGEL@?$AAP?$AAM@ 000000014008ff70     libucrt:nlsdata.obj
 0002:00005f78       ??_C@_1BC@IEBCMHCM@?$AAM?$AAM?$AA?1?$AAd?$AAd?$AA?1?$AAy?$AAy@ 000000014008ff78     libucrt:nlsdata.obj
 0002:00005f90       ??_C@_1CI@KNAKOEBC@?$AAd?$AAd?$AAd?$AAd?$AA?0?$AA?5?$AAM?$AAM?$AAM?$AAM?$AA?5?$AAd?$AAd?$AA?0?$AA?5@ 000000014008ff90     libucrt:nlsdata.obj
 0002:00005fc0       ??_C@_1BC@GDGBMEMK@?$AAH?$AAH?$AA?3?$AAm?$AAm?$AA?3?$AAs?$AAs@ 000000014008ffc0     libucrt:nlsdata.obj
 0002:00005fd8       ??_C@_1M@BMHNFIME@?$AAe?$AAn?$AA?9?$AAU?$AAS@ 000000014008ffd8     libucrt:nlsdata.obj
 0002:00005ff0       __two_to_jby64_table       000000014008fff0     libucrt:two_to_jby64_table.obj
 0002:00006260       __log_F_inv_qword          0000000140090260     libucrt:log_f_inv_qword_table.obj
 0002:00006c0c       ??_C@_04MBFDLNIM@powf@     0000000140090c0c     libucrt:pow_special.obj
 0002:00006c14       ??_C@_03JGHBODFD@pow@      0000000140090c14     libucrt:pow_special.obj
 0002:00006c40       ??_C@_1M@HPNHIDJI@?$AAj?$AAa?$AA?9?$AAJ?$AAP@ 0000000140090c40     libucrt:mbctype.obj
 0002:00006c50       ??_C@_1M@BIBDDEMK@?$AAz?$AAh?$AA?9?$AAC?$AAN@ 0000000140090c50     libucrt:mbctype.obj
 0002:00006c60       ??_C@_1M@JLOOOEGK@?$AAk?$AAo?$AA?9?$AAK?$AAR@ 0000000140090c60     libucrt:mbctype.obj
 0002:00006c70       ??_C@_1M@CLNBBOPM@?$AAz?$AAh?$AA?9?$AAT?$AAW@ 0000000140090c70     libucrt:mbctype.obj
 0002:00006c80       __newctype                 0000000140090c80     libucrt:ctype.obj
 0002:00007020       __newclmap                 0000000140091020     libucrt:ctype.obj
 0002:000071f0       __newcumap                 00000001400911f0     libucrt:ctype.obj
 0002:000073c0       _wctype                    00000001400913c0     libucrt:ctype.obj
 0002:00007630       __acrt_rg_language         0000000140091630     libucrt:get_qualified_locale.obj
 0002:00007b10       __acrt_rg_language_count   0000000140091b10     libucrt:get_qualified_locale.obj
 0002:00007b20       __acrt_rg_country          0000000140091b20     libucrt:get_qualified_locale.obj
 0002:00007ce0       __acrt_rg_country_count    0000000140091ce0     libucrt:get_qualified_locale.obj
 0002:00007cf0       ??_C@_1BC@LLOKLNP@?$AAa?$AAm?$AAe?$AAr?$AAi?$AAc?$AAa?$AAn@ 0000000140091cf0     libucrt:get_qualified_locale.obj
 0002:00007d08       ??_C@_1CC@HEIGCDGG@?$AAa?$AAm?$AAe?$AAr?$AAi?$AAc?$AAa?$AAn?$AA?5?$AAe?$AAn?$AAg?$AAl?$AAi?$AAs@ 0000000140091d08     libucrt:get_qualified_locale.obj
 0002:00007d30       ??_C@_1CC@IHCNOMIN@?$AAa?$AAm?$AAe?$AAr?$AAi?$AAc?$AAa?$AAn?$AA?9?$AAe?$AAn?$AAg?$AAl?$AAi?$AAs@ 0000000140091d30     libucrt:get_qualified_locale.obj
 0002:00007d58       ??_C@_1BG@GKAGPCGG@?$AAa?$AAu?$AAs?$AAt?$AAr?$AAa?$AAl?$AAi?$AAa?$AAn@ 0000000140091d58     libucrt:get_qualified_locale.obj
 0002:00007d78       ??_C@_1BA@GMENCENF@?$AAb?$AAe?$AAl?$AAg?$AAi?$AAa?$AAn@ 0000000140091d78     libucrt:get_qualified_locale.obj
 0002:00007d90       ??_C@_1BC@PJMIIAAN@?$AAc?$AAa?$AAn?$AAa?$AAd?$AAi?$AAa?$AAn@ 0000000140091d90     libucrt:get_qualified_locale.obj
 0002:00007da8       ??_C@_17NOIMNFBF@?$AAc?$AAh?$AAh@ 0000000140091da8     libucrt:get_qualified_locale.obj
 0002:00007db8       ??_C@_17GGDALCHA@?$AAc?$AAh?$AAi@ 0000000140091db8     libucrt:get_qualified_locale.obj
 0002:00007dc8       ??_C@_1BA@NPNJKIBL@?$AAc?$AAh?$AAi?$AAn?$AAe?$AAs?$AAe@ 0000000140091dc8     libucrt:get_qualified_locale.obj
 0002:00007de0       ??_C@_1CC@DINBAMMJ@?$AAc?$AAh?$AAi?$AAn?$AAe?$AAs?$AAe?$AA?9?$AAh?$AAo?$AAn?$AAg?$AAk?$AAo?$AAn@ 0000000140091de0     libucrt:get_qualified_locale.obj
 0002:00007e08       ??_C@_1CG@IOBJPACO@?$AAc?$AAh?$AAi?$AAn?$AAe?$AAs?$AAe?$AA?9?$AAs?$AAi?$AAm?$AAp?$AAl?$AAi?$AAf@ 0000000140091e08     libucrt:get_qualified_locale.obj
 0002:00007e38       ??_C@_1CE@GAJNDCKG@?$AAc?$AAh?$AAi?$AAn?$AAe?$AAs?$AAe?$AA?9?$AAs?$AAi?$AAn?$AAg?$AAa?$AAp?$AAo@ 0000000140091e38     libucrt:get_qualified_locale.obj
 0002:00007e68       ??_C@_1CI@PAJPIOOD@?$AAc?$AAh?$AAi?$AAn?$AAe?$AAs?$AAe?$AA?9?$AAt?$AAr?$AAa?$AAd?$AAi?$AAt?$AAi@ 0000000140091e68     libucrt:get_qualified_locale.obj
 0002:00007e98       ??_C@_1BM@NILJBMMD@?$AAd?$AAu?$AAt?$AAc?$AAh?$AA?9?$AAb?$AAe?$AAl?$AAg?$AAi?$AAa?$AAn@ 0000000140091e98     libucrt:get_qualified_locale.obj
 0002:00007ec0       ??_C@_1CC@OOJPJNEJ@?$AAe?$AAn?$AAg?$AAl?$AAi?$AAs?$AAh?$AA?9?$AAa?$AAm?$AAe?$AAr?$AAi?$AAc?$AAa@ 0000000140091ec0     libucrt:get_qualified_locale.obj
 0002:00007ee8       ??_C@_1BI@IOLFEEM@?$AAe?$AAn?$AAg?$AAl?$AAi?$AAs?$AAh?$AA?9?$AAa?$AAu?$AAs@ 0000000140091ee8     libucrt:get_qualified_locale.obj
 0002:00007f08       ??_C@_1BO@HFFNLENJ@?$AAe?$AAn?$AAg?$AAl?$AAi?$AAs?$AAh?$AA?9?$AAb?$AAe?$AAl?$AAi?$AAz?$AAe@ 0000000140091f08     libucrt:get_qualified_locale.obj
 0002:00007f30       ??_C@_1BI@HAPKJMPO@?$AAe?$AAn?$AAg?$AAl?$AAi?$AAs?$AAh?$AA?9?$AAc?$AAa?$AAn@ 0000000140091f30     libucrt:get_qualified_locale.obj
 0002:00007f50       ??_C@_1CE@HLNDMIOJ@?$AAe?$AAn?$AAg?$AAl?$AAi?$AAs?$AAh?$AA?9?$AAc?$AAa?$AAr?$AAi?$AAb?$AAb?$AAe@ 0000000140091f50     libucrt:get_qualified_locale.obj
 0002:00007f80       ??_C@_1BI@LDHJHHAC@?$AAe?$AAn?$AAg?$AAl?$AAi?$AAs?$AAh?$AA?9?$AAi?$AAr?$AAe@ 0000000140091f80     libucrt:get_qualified_locale.obj
 0002:00007fa0       ??_C@_1CA@NJMMCFOC@?$AAe?$AAn?$AAg?$AAl?$AAi?$AAs?$AAh?$AA?9?$AAj?$AAa?$AAm?$AAa?$AAi?$AAc?$AAa@ 0000000140091fa0     libucrt:get_qualified_locale.obj
 0002:00007fc8       ??_C@_1BG@BHJEBBGG@?$AAe?$AAn?$AAg?$AAl?$AAi?$AAs?$AAh?$AA?9?$AAn?$AAz@ 0000000140091fc8     libucrt:get_qualified_locale.obj
 0002:00007fe8       ??_C@_1CK@FGOEJJCO@?$AAe?$AAn?$AAg?$AAl?$AAi?$AAs?$AAh?$AA?9?$AAs?$AAo?$AAu?$AAt?$AAh?$AA?5?$AAa@ 0000000140091fe8     libucrt:get_qualified_locale.obj
 0002:00008020       ??_C@_1DE@PDBJPCJ@?$AAe?$AAn?$AAg?$AAl?$AAi?$AAs?$AAh?$AA?9?$AAt?$AAr?$AAi?$AAn?$AAi?$AAd?$AAa@ 0000000140092020     libucrt:get_qualified_locale.obj
 0002:00008060       ??_C@_1BG@JGCANDME@?$AAe?$AAn?$AAg?$AAl?$AAi?$AAs?$AAh?$AA?9?$AAu?$AAk@ 0000000140092060     libucrt:get_qualified_locale.obj
 0002:00008080       ??_C@_1BG@DINKMLE@?$AAe?$AAn?$AAg?$AAl?$AAi?$AAs?$AAh?$AA?9?$AAu?$AAs@ 0000000140092080     libucrt:get_qualified_locale.obj
 0002:000080a0       ??_C@_1BI@NMFDBHJE@?$AAe?$AAn?$AAg?$AAl?$AAi?$AAs?$AAh?$AA?9?$AAu?$AAs?$AAa@ 00000001400920a0     libucrt:get_qualified_locale.obj
 0002:000080c0       ??_C@_1BO@OIHKJKII@?$AAf?$AAr?$AAe?$AAn?$AAc?$AAh?$AA?9?$AAb?$AAe?$AAl?$AAg?$AAi?$AAa?$AAn@ 00000001400920c0     libucrt:get_qualified_locale.obj
 0002:000080e8       ??_C@_1CA@NKAELJKI@?$AAf?$AAr?$AAe?$AAn?$AAc?$AAh?$AA?9?$AAc?$AAa?$AAn?$AAa?$AAd?$AAi?$AAa?$AAn@ 00000001400920e8     libucrt:get_qualified_locale.obj
 0002:00008110       ??_C@_1CE@MGKCNLGN@?$AAf?$AAr?$AAe?$AAn?$AAc?$AAh?$AA?9?$AAl?$AAu?$AAx?$AAe?$AAm?$AAb?$AAo?$AAu@ 0000000140092110     libucrt:get_qualified_locale.obj
 0002:00008140       ??_C@_1BK@CEGEAILM@?$AAf?$AAr?$AAe?$AAn?$AAc?$AAh?$AA?9?$AAs?$AAw?$AAi?$AAs?$AAs@ 0000000140092140     libucrt:get_qualified_locale.obj
 0002:00008160       ??_C@_1CA@PAFKEOCC@?$AAg?$AAe?$AAr?$AAm?$AAa?$AAn?$AA?9?$AAa?$AAu?$AAs?$AAt?$AAr?$AAi?$AAa?$AAn@ 0000000140092160     libucrt:get_qualified_locale.obj
 0002:00008188       ??_C@_1CI@HCFHGOFD@?$AAg?$AAe?$AAr?$AAm?$AAa?$AAn?$AA?9?$AAl?$AAi?$AAc?$AAh?$AAt?$AAe?$AAn?$AAs@ 0000000140092188     libucrt:get_qualified_locale.obj
 0002:000081b8       ??_C@_1CE@FEDDNPDG@?$AAg?$AAe?$AAr?$AAm?$AAa?$AAn?$AA?9?$AAl?$AAu?$AAx?$AAe?$AAm?$AAb?$AAo?$AAu@ 00000001400921b8     libucrt:get_qualified_locale.obj
 0002:000081e8       ??_C@_1BK@LIMINNMN@?$AAg?$AAe?$AAr?$AAm?$AAa?$AAn?$AA?9?$AAs?$AAw?$AAi?$AAs?$AAs@ 00000001400921e8     libucrt:get_qualified_locale.obj
 0002:00008208       ??_C@_1BM@LGMDBEPD@?$AAi?$AAr?$AAi?$AAs?$AAh?$AA?9?$AAe?$AAn?$AAg?$AAl?$AAi?$AAs?$AAh@ 0000000140092208     libucrt:get_qualified_locale.obj
 0002:00008230       ??_C@_1BM@NNCFBAEE@?$AAi?$AAt?$AAa?$AAl?$AAi?$AAa?$AAn?$AA?9?$AAs?$AAw?$AAi?$AAs?$AAs@ 0000000140092230     libucrt:get_qualified_locale.obj
 0002:00008258       ??_C@_1BE@FEDJNPIB@?$AAn?$AAo?$AAr?$AAw?$AAe?$AAg?$AAi?$AAa?$AAn@ 0000000140092258     libucrt:get_qualified_locale.obj
 0002:00008270       ??_C@_1CC@CILKDEIE@?$AAn?$AAo?$AAr?$AAw?$AAe?$AAg?$AAi?$AAa?$AAn?$AA?9?$AAb?$AAo?$AAk?$AAm?$AAa@ 0000000140092270     libucrt:get_qualified_locale.obj
 0002:00008298       ??_C@_1CE@DHMMHEPL@?$AAn?$AAo?$AAr?$AAw?$AAe?$AAg?$AAi?$AAa?$AAn?$AA?9?$AAn?$AAy?$AAn?$AAo?$AAr@ 0000000140092298     libucrt:get_qualified_locale.obj
 0002:000082c8       ??_C@_1CK@OPNMHECD@?$AAp?$AAo?$AAr?$AAt?$AAu?$AAg?$AAu?$AAe?$AAs?$AAe?$AA?9?$AAb?$AAr?$AAa?$AAz@ 00000001400922c8     libucrt:get_qualified_locale.obj
 0002:00008300       ??_C@_1CE@KEEHCDB@?$AAs?$AAp?$AAa?$AAn?$AAi?$AAs?$AAh?$AA?9?$AAa?$AAr?$AAg?$AAe?$AAn?$AAt?$AAi@ 0000000140092300     libucrt:get_qualified_locale.obj
 0002:00008330       ??_C@_1CA@GIAOLHJD@?$AAs?$AAp?$AAa?$AAn?$AAi?$AAs?$AAh?$AA?9?$AAb?$AAo?$AAl?$AAi?$AAv?$AAi?$AAa@ 0000000140092330     libucrt:get_qualified_locale.obj
 0002:00008358       ??_C@_1BM@OJNDFNPD@?$AAs?$AAp?$AAa?$AAn?$AAi?$AAs?$AAh?$AA?9?$AAc?$AAh?$AAi?$AAl?$AAe@ 0000000140092358     libucrt:get_qualified_locale.obj
 0002:00008380       ??_C@_1CC@OCOLPALL@?$AAs?$AAp?$AAa?$AAn?$AAi?$AAs?$AAh?$AA?9?$AAc?$AAo?$AAl?$AAo?$AAm?$AAb?$AAi@ 0000000140092380     libucrt:get_qualified_locale.obj
 0002:000083a8       ??_C@_1CG@BPOFMKBB@?$AAs?$AAp?$AAa?$AAn?$AAi?$AAs?$AAh?$AA?9?$AAc?$AAo?$AAs?$AAt?$AAa?$AA?5?$AAr@ 00000001400923a8     libucrt:get_qualified_locale.obj
 0002:000083d8       ??_C@_1DG@IGOBAPBB@?$AAs?$AAp?$AAa?$AAn?$AAi?$AAs?$AAh?$AA?9?$AAd?$AAo?$AAm?$AAi?$AAn?$AAi?$AAc@ 00000001400923d8     libucrt:get_qualified_locale.obj
 0002:00008418       ??_C@_1CA@JHAPGEGI@?$AAs?$AAp?$AAa?$AAn?$AAi?$AAs?$AAh?$AA?9?$AAe?$AAc?$AAu?$AAa?$AAd?$AAo?$AAr@ 0000000140092418     libucrt:get_qualified_locale.obj
 0002:00008440       ??_C@_1CI@LAPALJPP@?$AAs?$AAp?$AAa?$AAn?$AAi?$AAs?$AAh?$AA?9?$AAe?$AAl?$AA?5?$AAs?$AAa?$AAl?$AAv@ 0000000140092440     libucrt:get_qualified_locale.obj
 0002:00008470       ??_C@_1CE@PDGBOFOM@?$AAs?$AAp?$AAa?$AAn?$AAi?$AAs?$AAh?$AA?9?$AAg?$AAu?$AAa?$AAt?$AAe?$AAm?$AAa@ 0000000140092470     libucrt:get_qualified_locale.obj
 0002:000084a0       ??_C@_1CC@NBEBAODI@?$AAs?$AAp?$AAa?$AAn?$AAi?$AAs?$AAh?$AA?9?$AAh?$AAo?$AAn?$AAd?$AAu?$AAr?$AAa@ 00000001400924a0     libucrt:get_qualified_locale.obj
 0002:000084c8       ??_C@_1CA@LLKGHBMF@?$AAs?$AAp?$AAa?$AAn?$AAi?$AAs?$AAh?$AA?9?$AAm?$AAe?$AAx?$AAi?$AAc?$AAa?$AAn@ 00000001400924c8     libucrt:get_qualified_locale.obj
 0002:000084f0       ??_C@_1BO@LKNDOIGD@?$AAs?$AAp?$AAa?$AAn?$AAi?$AAs?$AAh?$AA?9?$AAm?$AAo?$AAd?$AAe?$AAr?$AAn@ 00000001400924f0     libucrt:get_qualified_locale.obj
 0002:00008518       ??_C@_1CE@NMDMOEEB@?$AAs?$AAp?$AAa?$AAn?$AAi?$AAs?$AAh?$AA?9?$AAn?$AAi?$AAc?$AAa?$AAr?$AAa?$AAg@ 0000000140092518     libucrt:get_qualified_locale.obj
 0002:00008548       ??_C@_1BO@LLCBEJGB@?$AAs?$AAp?$AAa?$AAn?$AAi?$AAs?$AAh?$AA?9?$AAp?$AAa?$AAn?$AAa?$AAm?$AAa@ 0000000140092548     libucrt:get_qualified_locale.obj
 0002:00008570       ??_C@_1CC@FKPGGIHO@?$AAs?$AAp?$AAa?$AAn?$AAi?$AAs?$AAh?$AA?9?$AAp?$AAa?$AAr?$AAa?$AAg?$AAu?$AAa@ 0000000140092570     libucrt:get_qualified_locale.obj
 0002:00008598       ??_C@_1BK@CDEIHOOP@?$AAs?$AAp?$AAa?$AAn?$AAi?$AAs?$AAh?$AA?9?$AAp?$AAe?$AAr?$AAu@ 0000000140092598     libucrt:get_qualified_locale.obj
 0002:000085b8       ??_C@_1CI@GAHAKKGP@?$AAs?$AAp?$AAa?$AAn?$AAi?$AAs?$AAh?$AA?9?$AAp?$AAu?$AAe?$AAr?$AAt?$AAo?$AA?5@ 00000001400925b8     libucrt:get_qualified_locale.obj
 0002:000085e8       ??_C@_1CA@NKJBCAGP@?$AAs?$AAp?$AAa?$AAn?$AAi?$AAs?$AAh?$AA?9?$AAu?$AAr?$AAu?$AAg?$AAu?$AAa?$AAy@ 00000001400925e8     libucrt:get_qualified_locale.obj
 0002:00008610       ??_C@_1CE@ODILCONM@?$AAs?$AAp?$AAa?$AAn?$AAi?$AAs?$AAh?$AA?9?$AAv?$AAe?$AAn?$AAe?$AAz?$AAu?$AAe@ 0000000140092610     libucrt:get_qualified_locale.obj
 0002:00008640       ??_C@_1CA@OBNMCGFO@?$AAs?$AAw?$AAe?$AAd?$AAi?$AAs?$AAh?$AA?9?$AAf?$AAi?$AAn?$AAl?$AAa?$AAn?$AAd@ 0000000140092640     libucrt:get_qualified_locale.obj
 0002:00008668       ??_C@_1M@PIPDDPPI@?$AAs?$AAw?$AAi?$AAs?$AAs@ 0000000140092668     libucrt:get_qualified_locale.obj
 0002:00008678       ??_C@_15PJPFLCCM@?$AAu?$AAk@ 0000000140092678     libucrt:get_qualified_locale.obj
 0002:00008680       ??_C@_15GMFIMNFM@?$AAu?$AAs@ 0000000140092680     libucrt:get_qualified_locale.obj
 0002:00008688       ??_C@_17HAEBFAGL@?$AAu?$AAs?$AAa@ 0000000140092688     libucrt:get_qualified_locale.obj
 0002:00008698       ??_C@_1BA@DPFJEPHB@?$AAa?$AAm?$AAe?$AAr?$AAi?$AAc?$AAa@ 0000000140092698     libucrt:get_qualified_locale.obj
 0002:000086b0       ??_C@_1BA@ELOGGFK@?$AAb?$AAr?$AAi?$AAt?$AAa?$AAi?$AAn@ 00000001400926b0     libucrt:get_qualified_locale.obj
 0002:000086c8       ??_C@_1M@GHBGIGDA@?$AAc?$AAh?$AAi?$AAn?$AAa@ 00000001400926c8     libucrt:get_qualified_locale.obj
 0002:000086d8       ??_C@_1M@NCHEJOPO@?$AAc?$AAz?$AAe?$AAc?$AAh@ 00000001400926d8     libucrt:get_qualified_locale.obj
 0002:000086e8       ??_C@_1BA@BKPAPBLA@?$AAe?$AAn?$AAg?$AAl?$AAa?$AAn?$AAd@ 00000001400926e8     libucrt:get_qualified_locale.obj
 0002:00008700       ??_C@_1BM@HKBCKIPC@?$AAg?$AAr?$AAe?$AAa?$AAt?$AA?5?$AAb?$AAr?$AAi?$AAt?$AAa?$AAi?$AAn@ 0000000140092700     libucrt:get_qualified_locale.obj
 0002:00008728       ??_C@_1BA@PPCHPGJB@?$AAh?$AAo?$AAl?$AAl?$AAa?$AAn?$AAd@ 0000000140092728     libucrt:get_qualified_locale.obj
 0002:00008740       ??_C@_1BE@JBMPEGDG@?$AAh?$AAo?$AAn?$AAg?$AA?9?$AAk?$AAo?$AAn?$AAg@ 0000000140092740     libucrt:get_qualified_locale.obj
